TN:
SF:/Library/Developer/CommandLineTools/usr/include/c++/v1/__functional_base
FN:60,_ZNKSt3__14lessIN5Catch8TestCaseEEclERKS2_S5_
FN:60,_ZNKSt3__14lessIiEclERKiS3_
FN:60,_ZNKSt3__14lessINS_12basic_stringIcNS_11char_traitsIcEENS_9allocatorIcEEEEEclERKS6_S9_
FNDA:9,_ZNKSt3__14lessINS_12basic_stringIcNS_11char_traitsIcEENS_9allocatorIcEEEEEclERKS6_S9_
FNDA:0,_ZNKSt3__14lessIiEclERKiS3_
FNDA:0,_ZNKSt3__14lessIN5Catch8TestCaseEEclERKS2_S5_
FNF:3
FNH:1
DA:61,9
LF:1
LH:1
end_of_record
SF:/Library/Developer/CommandLineTools/usr/include/c++/v1/__locale
FN:188,_ZNSt3__19has_facetINS_7codecvtIcc11__mbstate_tEEEEbRKNS_6localeE
FN:196,_ZNSt3__19use_facetINS_7codecvtIcc11__mbstate_tEEEERKT_RKNS_6localeE
FN:196,_ZNSt3__19use_facetINS_5ctypeIcEEEERKT_RKNS_6localeE
FN:611,_ZNKSt3__15ctypeIcE5widenEc
FN:846,_ZNKSt3__17codecvtIcc11__mbstate_tE3outERS1_PKcS5_RS5_PcS7_RS7_
FN:854,_ZNKSt3__17codecvtIcc11__mbstate_tE7unshiftERS1_PcS4_RS4_
FN:861,_ZNKSt3__17codecvtIcc11__mbstate_tE2inERS1_PKcS5_RS5_PcS7_RS7_
FN:869,_ZNKSt3__17codecvtIcc11__mbstate_tE8encodingEv
FN:875,_ZNKSt3__17codecvtIcc11__mbstate_tE13always_noconvEv
FN:881,_ZNKSt3__17codecvtIcc11__mbstate_tE6lengthERS1_PKcS5_m
FNDA:16,_ZNSt3__19has_facetINS_7codecvtIcc11__mbstate_tEEEEbRKNS_6localeE
FNDA:16,_ZNSt3__19use_facetINS_7codecvtIcc11__mbstate_tEEEERKT_RKNS_6localeE
FNDA:3,_ZNSt3__19use_facetINS_5ctypeIcEEEERKT_RKNS_6localeE
FNDA:3,_ZNKSt3__15ctypeIcE5widenEc
FNDA:0,_ZNKSt3__17codecvtIcc11__mbstate_tE3outERS1_PKcS5_RS5_PcS7_RS7_
FNDA:0,_ZNKSt3__17codecvtIcc11__mbstate_tE7unshiftERS1_PcS4_RS4_
FNDA:0,_ZNKSt3__17codecvtIcc11__mbstate_tE2inERS1_PKcS5_RS5_PcS7_RS7_
FNDA:0,_ZNKSt3__17codecvtIcc11__mbstate_tE8encodingEv
FNDA:16,_ZNKSt3__17codecvtIcc11__mbstate_tE13always_noconvEv
FNDA:0,_ZNKSt3__17codecvtIcc11__mbstate_tE6lengthERS1_PKcS5_m
FNF:10
FNH:5
DA:190,32
DA:191,0
DA:198,19
DA:613,3
DA:850,0
DA:857,0
DA:865,0
DA:871,0
DA:877,16
DA:883,0
LF:10
LH:4
end_of_record
SF:/Library/Developer/CommandLineTools/usr/include/c++/v1/__nullptr
FN:31,_ZNSt3__19nullptr_tC1EMNS0_5__natEi
FN:31,_ZNSt3__19nullptr_tC2EMNS0_5__natEi
FN:37,_ZNKSt3__19nullptr_tcvPT_IN5Catch5Clara6Parser5TokenEEEv
FN:37,_ZNKSt3__19nullptr_tcvPT_IN5Catch3PtrINS4_16TestCaseTracking8ITrackerEEEEEv
FN:37,_ZNKSt3__19nullptr_tcvPT_IN5Catch11SectionInfoEEEv
FN:37,_ZNKSt3__19nullptr_tcvPT_IN5Catch11MessageInfoEEEv
FN:37,_ZNKSt3__19nullptr_tcvPT_IN5Catch3PtrINS4_22CumulativeReporterBase4NodeINS4_14TestGroupStatsENS7_INS4_13TestCaseStatsENS6_11SectionNodeEEEEEEEEEv
FN:37,_ZNKSt3__19nullptr_tcvPT_IN5Catch14SectionEndInfoEEEv
FN:37,_ZNKSt3__19nullptr_tcvPT_INS_11__tree_nodeIN5Catch8TestCaseEPvEEEEv
FN:37,_ZNKSt3__19nullptr_tcvPT_INS_11__tree_nodeINS_12__value_typeINS_12basic_stringIcNS_11char_traitsIcEENS_9allocatorIcEEEEN5Catch8TagAliasEEEPvEEEEv
FN:37,_ZNKSt3__19nullptr_tcvPT_IN5Catch14AssertionStatsEEEv
FN:37,_ZNKSt3__19nullptr_tcvPT_INS_6vectorIN5Catch3PtrINS5_22CumulativeReporterBase11SectionNodeEEENS_9allocatorIS9_EEEEEEv
FN:37,_ZNKSt3__19nullptr_tcvPT_INS_15basic_streambufIcNS_11char_traitsIcEEEEEEv
FN:37,_ZNKSt3__19nullptr_tcvPT_INS_11__tree_nodeINS_12basic_stringIcNS_11char_traitsIcEENS_9allocatorIcEEEEPvEEEEv
FN:37,_ZNKSt3__19nullptr_tcvPT_IN5Catch5Clara11CommandLineINS4_10ConfigDataEE3ArgEEEv
FN:37,_ZNKSt3__19nullptr_tcvPT_IPKN5Catch20IExceptionTranslatorEEEv
FN:37,_ZNKSt3__19nullptr_tcvPT_IPN5Catch14IGeneratorInfoEEEv
FN:37,_ZNKSt3__19nullptr_tcvPT_IN5Catch3PtrINS4_18IStreamingReporterEEEEEv
FN:37,_ZNKSt3__19nullptr_tcvPT_ImEEv
FN:37,_ZNKSt3__19nullptr_tcvPT_IN5Catch3PtrINS4_16IReporterFactoryEEEEEv
FN:37,_ZNKSt3__19nullptr_tcvPT_IPKN5Catch8Matchers4Impl11MatcherBaseINS_12basic_stringIcNS_11char_traitsIcEENS_9allocatorIcEEEESD_EEEEv
FN:37,_ZNKSt3__19nullptr_tcvPT_IPN5Catch16TestCaseTracking8ITrackerEEEv
FN:37,_ZNKSt3__19nullptr_tcvPT_INS_11__tree_nodeINS_12__value_typeINS_12basic_stringIcNS_11char_traitsIcEENS_9allocatorIcEEEEN5Catch3PtrINSC_16IReporterFactoryEEEEEPvEEEEv
FN:37,_ZNKSt3__19nullptr_tcvPT_IKNS_7codecvtIcc11__mbstate_tEEEEv
FN:37,_ZNKSt3__19nullptr_tcvPT_INS_11__tree_nodeINS_12__value_typeIiN5Catch5Clara11CommandLineINS6_10ConfigDataEE3ArgEEEPvEEEEv
FN:37,_ZNKSt3__19nullptr_tcvPT_IN5Catch3PtrINS4_22CumulativeReporterBase4NodeINS4_12TestRunStatsENS7_INS4_14TestGroupStatsENS7_INS4_13TestCaseStatsENS6_11SectionNodeEEEEEEEEEEEv
FN:37,_ZNKSt3__19nullptr_tcvPT_INS_16__tree_node_baseIPvEEEEv
FN:37,_ZNKSt3__19nullptr_tcvPT_IN5Catch3PtrINS4_22CumulativeReporterBase11SectionNodeEEEEEv
FN:37,_ZNKSt3__19nullptr_tcvPT_IN5Catch15ConsoleReporter13SummaryColumnEEEv
FN:37,_ZNKSt3__19nullptr_tcvPT_IN5Catch8TestSpec6FilterEEEv
FN:37,_ZNKSt3__19nullptr_tcvPT_INS_15__tree_end_nodeIPNS_16__tree_node_baseIPvEEEEEEv
FN:37,_ZNKSt3__19nullptr_tcvPT_INS_11__tree_nodeINS_12__value_typeINS_12basic_stringIcNS_11char_traitsIcEENS_9allocatorIcEEEEPN5Catch18IGeneratorsForTestEEEPvEEEEv
FN:37,_ZNKSt3__19nullptr_tcvPT_INS_11__tree_nodeINS_12__value_typeINS_12basic_stringIcNS_11char_traitsIcEENS_9allocatorIcEEEEPN5Catch14IGeneratorInfoEEEPvEEEEv
FN:37,_ZNKSt3__19nullptr_tcvPT_IN5Catch3PtrINS4_22CumulativeReporterBase4NodeINS4_13TestCaseStatsENS6_11SectionNodeEEEEEEEv
FN:37,_ZNKSt3__19nullptr_tcvPT_INS_12basic_stringIcNS_11char_traitsIcEENS_9allocatorIcEEEEEEv
FN:37,_ZNKSt3__19nullptr_tcvPT_IN5Catch8TestCaseEEEv
FN:37,_ZNKSt3__19nullptr_tcvPT_IN5Catch3PtrINS4_8TestSpec7PatternEEEEEv
FN:37,_ZNKSt3__19nullptr_tcvPT_INS_11__tree_nodeINS_12__value_typeINS_12basic_stringIcNS_11char_traitsIcEENS_9allocatorIcEEEEN5Catch7TagInfoEEEPvEEEEv
FN:41,_ZNKSt3__19nullptr_tcvMT0_T_IFvvENS_12__cxx03_boolEEEv
FN:47,_ZNSt3__115__get_nullptr_tEv
FNDA:898,_ZNSt3__19nullptr_tC1EMNS0_5__natEi
FNDA:898,_ZNSt3__19nullptr_tC2EMNS0_5__natEi
FNDA:527,_ZNKSt3__19nullptr_tcvPT_INS_12basic_stringIcNS_11char_traitsIcEENS_9allocatorIcEEEEEEv
FNDA:8,_ZNKSt3__19nullptr_tcvPT_IN5Catch3PtrINS4_16IReporterFactoryEEEEEv
FNDA:4,_ZNKSt3__19nullptr_tcvPT_IN5Catch11MessageInfoEEEv
FNDA:4,_ZNKSt3__19nullptr_tcvPT_IN5Catch14SectionEndInfoEEEv
FNDA:7,_ZNKSt3__19nullptr_tcvPT_IPN5Catch16TestCaseTracking8ITrackerEEEv
FNDA:125,_ZNKSt3__19nullptr_tcvPT_IN5Catch3PtrINS4_16TestCaseTracking8ITrackerEEEEEv
FNDA:18,_ZNKSt3__19nullptr_tcvPT_IN5Catch8TestSpec6FilterEEEv
FNDA:21,_ZNKSt3__19nullptr_tcvPT_IN5Catch3PtrINS4_8TestSpec7PatternEEEEEv
FNDA:4,_ZNKSt3__19nullptr_tcvPT_ImEEv
FNDA:21,_ZNKSt3__19nullptr_tcvPT_INS_11__tree_nodeINS_12basic_stringIcNS_11char_traitsIcEENS_9allocatorIcEEEEPvEEEEv
FNDA:4,_ZNKSt3__19nullptr_tcvPT_INS_11__tree_nodeIN5Catch8TestCaseEPvEEEEv
FNDA:14,_ZNKSt3__19nullptr_tcvPT_IN5Catch8TestCaseEEEv
FNDA:17,_ZNKSt3__19nullptr_tcvPT_INS_11__tree_nodeINS_12__value_typeINS_12basic_stringIcNS_11char_traitsIcEENS_9allocatorIcEEEEN5Catch3PtrINSC_16IReporterFactoryEEEEEPvEEEEv
FNDA:4,_ZNKSt3__19nullptr_tcvPT_IPKN5Catch20IExceptionTranslatorEEEv
FNDA:29,_ZNKSt3__19nullptr_tcvPT_INS_16__tree_node_baseIPvEEEEv
FNDA:2,_ZNKSt3__19nullptr_tcvPT_INS_11__tree_nodeINS_12__value_typeINS_12basic_stringIcNS_11char_traitsIcEENS_9allocatorIcEEEEPN5Catch18IGeneratorsForTestEEEPvEEEEv
FNDA:0,_ZNKSt3__19nullptr_tcvPT_IPN5Catch14IGeneratorInfoEEEv
FNDA:0,_ZNKSt3__19nullptr_tcvPT_INS_11__tree_nodeINS_12__value_typeINS_12basic_stringIcNS_11char_traitsIcEENS_9allocatorIcEEEEPN5Catch14IGeneratorInfoEEEPvEEEEv
FNDA:0,_ZNKSt3__19nullptr_tcvPT_IPKN5Catch8Matchers4Impl11MatcherBaseINS_12basic_stringIcNS_11char_traitsIcEENS_9allocatorIcEEEESD_EEEEv
FNDA:1,_ZNKSt3__19nullptr_tcvPT_INS_11__tree_nodeINS_12__value_typeINS_12basic_stringIcNS_11char_traitsIcEENS_9allocatorIcEEEEN5Catch8TagAliasEEEPvEEEEv
FNDA:0,_ZNKSt3__19nullptr_tcvPT_IN5Catch3PtrINS4_18IStreamingReporterEEEEEv
FNDA:0,_ZNKSt3__19nullptr_tcvPT_IN5Catch14AssertionStatsEEEv
FNDA:0,_ZNKSt3__19nullptr_tcvPT_IN5Catch3PtrINS4_22CumulativeReporterBase11SectionNodeEEEEEv
FNDA:0,_ZNKSt3__19nullptr_tcvPT_IN5Catch3PtrINS4_22CumulativeReporterBase4NodeINS4_12TestRunStatsENS7_INS4_14TestGroupStatsENS7_INS4_13TestCaseStatsENS6_11SectionNodeEEEEEEEEEEEv
FNDA:0,_ZNKSt3__19nullptr_tcvPT_IN5Catch3PtrINS4_22CumulativeReporterBase4NodeINS4_14TestGroupStatsENS7_INS4_13TestCaseStatsENS6_11SectionNodeEEEEEEEEEv
FNDA:0,_ZNKSt3__19nullptr_tcvPT_IN5Catch3PtrINS4_22CumulativeReporterBase4NodeINS4_13TestCaseStatsENS6_11SectionNodeEEEEEEEv
FNDA:0,_ZNKSt3__19nullptr_tcvPT_INS_6vectorIN5Catch3PtrINS5_22CumulativeReporterBase11SectionNodeEEENS_9allocatorIS9_EEEEEEv
FNDA:7,_ZNKSt3__19nullptr_tcvPT_IN5Catch11SectionInfoEEEv
FNDA:10,_ZNKSt3__19nullptr_tcvPT_IN5Catch5Clara11CommandLineINS4_10ConfigDataEE3ArgEEEv
FNDA:16,_ZNKSt3__19nullptr_tcvPT_IKNS_7codecvtIcc11__mbstate_tEEEEv
FNDA:24,_ZNKSt3__19nullptr_tcvPT_IN5Catch5Clara6Parser5TokenEEEv
FNDA:1,_ZNKSt3__19nullptr_tcvPT_INS_11__tree_nodeINS_12__value_typeIiN5Catch5Clara11CommandLineINS6_10ConfigDataEE3ArgEEEPvEEEEv
FNDA:0,_ZNKSt3__19nullptr_tcvPT_INS_11__tree_nodeINS_12__value_typeINS_12basic_stringIcNS_11char_traitsIcEENS_9allocatorIcEEEEN5Catch7TagInfoEEEPvEEEEv
FNDA:0,_ZNKSt3__19nullptr_tcvPT_IN5Catch15ConsoleReporter13SummaryColumnEEEv
FNDA:30,_ZNKSt3__19nullptr_tcvPT_INS_15basic_streambufIcNS_11char_traitsIcEEEEEEv
FNDA:0,_ZNKSt3__19nullptr_tcvPT_INS_15__tree_end_nodeIPNS_16__tree_node_baseIPvEEEEEEv
FNDA:0,_ZNKSt3__19nullptr_tcvMT0_T_IFvvENS_12__cxx03_boolEEEv
FNDA:898,_ZNSt3__115__get_nullptr_tEv
FNF:40
FNH:26
DA:31,1796
DA:37,898
DA:41,0
DA:47,1796
LF:4
LH:3
end_of_record
SF:/Library/Developer/CommandLineTools/usr/include/c++/v1/__split_buffer
FN:54,_ZNSt3__114__split_bufferIN5Catch3PtrINS1_8TestSpec7PatternEEERNS_9allocatorIS5_EEE7__allocEv
FN:54,_ZNSt3__114__split_bufferIN5Catch5Clara6Parser5TokenERNS_9allocatorIS4_EEE7__allocEv
FN:54,_ZNSt3__114__split_bufferIN5Catch3PtrINS1_18IStreamingReporterEEERNS_9allocatorIS4_EEE7__allocEv
FN:54,_ZNSt3__114__split_bufferIN5Catch3PtrINS1_22CumulativeReporterBase11SectionNodeEEERNS_9allocatorIS5_EEE7__allocEv
FN:54,_ZNSt3__114__split_bufferIPN5Catch16TestCaseTracking8ITrackerERNS_9allocatorIS4_EEE7__allocEv
FN:54,_ZNSt3__114__split_bufferIN5Catch3PtrINS1_16TestCaseTracking8ITrackerEEERNS_9allocatorIS5_EEE7__allocEv
FN:54,_ZNSt3__114__split_bufferIPKN5Catch20IExceptionTranslatorERNS_9allocatorIS4_EEE7__allocEv
FN:54,_ZNSt3__114__split_bufferIN5Catch8TestSpec6FilterERNS_9allocatorIS3_EEE7__allocEv
FN:54,_ZNSt3__114__split_bufferIN5Catch8TestCaseERNS_9allocatorIS2_EEE7__allocEv
FN:54,_ZNSt3__114__split_bufferIN5Catch14SectionEndInfoERNS_9allocatorIS2_EEE7__allocEv
FN:54,_ZNSt3__114__split_bufferImRNS_9allocatorImEEE7__allocEv
FN:54,_ZNSt3__114__split_bufferIPN5Catch14IGeneratorInfoERNS_9allocatorIS3_EEE7__allocEv
FN:54,_ZNSt3__114__split_bufferIN5Catch14AssertionStatsERNS_9allocatorIS2_EEE7__allocEv
FN:54,_ZNSt3__114__split_bufferIN5Catch3PtrINS1_22CumulativeReporterBase4NodeINS1_14TestGroupStatsENS4_INS1_13TestCaseStatsENS3_11SectionNodeEEEEEEERNS_9allocatorISA_EEE7__allocEv
FN:54,_ZNSt3__114__split_bufferIN5Catch15ConsoleReporter13SummaryColumnERNS_9allocatorIS3_EEE7__allocEv
FN:54,_ZNSt3__114__split_bufferINS_12basic_stringIcNS_11char_traitsIcEENS_9allocatorIcEEEERNS4_IS6_EEE7__allocEv
FN:54,_ZNSt3__114__split_bufferIN5Catch5Clara11CommandLineINS1_10ConfigDataEE3ArgERNS_9allocatorIS6_EEE7__allocEv
FN:54,_ZNSt3__114__split_bufferIN5Catch11SectionInfoERNS_9allocatorIS2_EEE7__allocEv
FN:54,_ZNSt3__114__split_bufferIN5Catch3PtrINS1_22CumulativeReporterBase4NodeINS1_12TestRunStatsENS4_INS1_14TestGroupStatsENS4_INS1_13TestCaseStatsENS3_11SectionNodeEEEEEEEEERNS_9allocatorISC_EEE7__allocEv
FN:54,_ZNSt3__114__split_bufferIN5Catch3PtrINS1_22CumulativeReporterBase4NodeINS1_13TestCaseStatsENS3_11SectionNodeEEEEERNS_9allocatorIS8_EEE7__allocEv
FN:54,_ZNSt3__114__split_bufferIN5Catch3PtrINS1_16IReporterFactoryEEERNS_9allocatorIS4_EEE7__allocEv
FN:54,_ZNSt3__114__split_bufferIN5Catch11MessageInfoERNS_9allocatorIS2_EEE7__allocEv
FN:56,_ZNSt3__114__split_bufferIN5Catch3PtrINS1_22CumulativeReporterBase4NodeINS1_12TestRunStatsENS4_INS1_14TestGroupStatsENS4_INS1_13TestCaseStatsENS3_11SectionNodeEEEEEEEEERNS_9allocatorISC_EEE9__end_capEv
FN:56,_ZNSt3__114__split_bufferIN5Catch15ConsoleReporter13SummaryColumnERNS_9allocatorIS3_EEE9__end_capEv
FN:56,_ZNSt3__114__split_bufferIN5Catch3PtrINS1_16TestCaseTracking8ITrackerEEERNS_9allocatorIS5_EEE9__end_capEv
FN:56,_ZNSt3__114__split_bufferIN5Catch5Clara11CommandLineINS1_10ConfigDataEE3ArgERNS_9allocatorIS6_EEE9__end_capEv
FN:56,_ZNSt3__114__split_bufferIN5Catch3PtrINS1_8TestSpec7PatternEEERNS_9allocatorIS5_EEE9__end_capEv
FN:56,_ZNSt3__114__split_bufferIN5Catch5Clara6Parser5TokenERNS_9allocatorIS4_EEE9__end_capEv
FN:56,_ZNSt3__114__split_bufferIN5Catch14AssertionStatsERNS_9allocatorIS2_EEE9__end_capEv
FN:56,_ZNSt3__114__split_bufferIN5Catch8TestCaseERNS_9allocatorIS2_EEE9__end_capEv
FN:56,_ZNSt3__114__split_bufferINS_12basic_stringIcNS_11char_traitsIcEENS_9allocatorIcEEEERNS4_IS6_EEE9__end_capEv
FN:56,_ZNSt3__114__split_bufferIPN5Catch16TestCaseTracking8ITrackerERNS_9allocatorIS4_EEE9__end_capEv
FN:56,_ZNSt3__114__split_bufferIN5Catch3PtrINS1_18IStreamingReporterEEERNS_9allocatorIS4_EEE9__end_capEv
FN:56,_ZNSt3__114__split_bufferImRNS_9allocatorImEEE9__end_capEv
FN:56,_ZNSt3__114__split_bufferIN5Catch8TestSpec6FilterERNS_9allocatorIS3_EEE9__end_capEv
FN:56,_ZNSt3__114__split_bufferIN5Catch3PtrINS1_16IReporterFactoryEEERNS_9allocatorIS4_EEE9__end_capEv
FN:56,_ZNSt3__114__split_bufferIN5Catch14SectionEndInfoERNS_9allocatorIS2_EEE9__end_capEv
FN:56,_ZNSt3__114__split_bufferIPKN5Catch20IExceptionTranslatorERNS_9allocatorIS4_EEE9__end_capEv
FN:56,_ZNSt3__114__split_bufferIN5Catch3PtrINS1_22CumulativeReporterBase4NodeINS1_13TestCaseStatsENS3_11SectionNodeEEEEERNS_9allocatorIS8_EEE9__end_capEv
FN:56,_ZNSt3__114__split_bufferIPN5Catch14IGeneratorInfoERNS_9allocatorIS3_EEE9__end_capEv
FN:56,_ZNSt3__114__split_bufferIN5Catch3PtrINS1_22CumulativeReporterBase4NodeINS1_14TestGroupStatsENS4_INS1_13TestCaseStatsENS3_11SectionNodeEEEEEEERNS_9allocatorISA_EEE9__end_capEv
FN:56,_ZNSt3__114__split_bufferIN5Catch11SectionInfoERNS_9allocatorIS2_EEE9__end_capEv
FN:56,_ZNSt3__114__split_bufferIN5Catch3PtrINS1_22CumulativeReporterBase11SectionNodeEEERNS_9allocatorIS5_EEE9__end_capEv
FN:56,_ZNSt3__114__split_bufferIN5Catch11MessageInfoERNS_9allocatorIS2_EEE9__end_capEv
FN:57,_ZNKSt3__114__split_bufferIN5Catch5Clara6Parser5TokenERNS_9allocatorIS4_EEE9__end_capEv
FN:57,_ZNKSt3__114__split_bufferIPKN5Catch20IExceptionTranslatorERNS_9allocatorIS4_EEE9__end_capEv
FN:57,_ZNKSt3__114__split_bufferIN5Catch3PtrINS1_22CumulativeReporterBase4NodeINS1_12TestRunStatsENS4_INS1_14TestGroupStatsENS4_INS1_13TestCaseStatsENS3_11SectionNodeEEEEEEEEERNS_9allocatorISC_EEE9__end_capEv
FN:57,_ZNKSt3__114__split_bufferIN5Catch3PtrINS1_22CumulativeReporterBase11SectionNodeEEERNS_9allocatorIS5_EEE9__end_capEv
FN:57,_ZNKSt3__114__split_bufferIN5Catch3PtrINS1_16IReporterFactoryEEERNS_9allocatorIS4_EEE9__end_capEv
FN:57,_ZNKSt3__114__split_bufferIN5Catch3PtrINS1_22CumulativeReporterBase4NodeINS1_14TestGroupStatsENS4_INS1_13TestCaseStatsENS3_11SectionNodeEEEEEEERNS_9allocatorISA_EEE9__end_capEv
FN:57,_ZNKSt3__114__split_bufferIN5Catch14AssertionStatsERNS_9allocatorIS2_EEE9__end_capEv
FN:57,_ZNKSt3__114__split_bufferIN5Catch11SectionInfoERNS_9allocatorIS2_EEE9__end_capEv
FN:57,_ZNKSt3__114__split_bufferIPN5Catch16TestCaseTracking8ITrackerERNS_9allocatorIS4_EEE9__end_capEv
FN:57,_ZNKSt3__114__split_bufferIN5Catch3PtrINS1_18IStreamingReporterEEERNS_9allocatorIS4_EEE9__end_capEv
FN:57,_ZNKSt3__114__split_bufferIN5Catch3PtrINS1_22CumulativeReporterBase4NodeINS1_13TestCaseStatsENS3_11SectionNodeEEEEERNS_9allocatorIS8_EEE9__end_capEv
FN:57,_ZNKSt3__114__split_bufferIN5Catch8TestSpec6FilterERNS_9allocatorIS3_EEE9__end_capEv
FN:57,_ZNKSt3__114__split_bufferIN5Catch8TestCaseERNS_9allocatorIS2_EEE9__end_capEv
FN:57,_ZNKSt3__114__split_bufferIN5Catch3PtrINS1_16TestCaseTracking8ITrackerEEERNS_9allocatorIS5_EEE9__end_capEv
FN:57,_ZNKSt3__114__split_bufferImRNS_9allocatorImEEE9__end_capEv
FN:57,_ZNKSt3__114__split_bufferIN5Catch3PtrINS1_8TestSpec7PatternEEERNS_9allocatorIS5_EEE9__end_capEv
FN:57,_ZNKSt3__114__split_bufferIN5Catch15ConsoleReporter13SummaryColumnERNS_9allocatorIS3_EEE9__end_capEv
FN:57,_ZNKSt3__114__split_bufferIN5Catch14SectionEndInfoERNS_9allocatorIS2_EEE9__end_capEv
FN:57,_ZNKSt3__114__split_bufferIN5Catch11MessageInfoERNS_9allocatorIS2_EEE9__end_capEv
FN:57,_ZNKSt3__114__split_bufferIPN5Catch14IGeneratorInfoERNS_9allocatorIS3_EEE9__end_capEv
FN:57,_ZNKSt3__114__split_bufferIN5Catch5Clara11CommandLineINS1_10ConfigDataEE3ArgERNS_9allocatorIS6_EEE9__end_capEv
FN:57,_ZNKSt3__114__split_bufferINS_12basic_stringIcNS_11char_traitsIcEENS_9allocatorIcEEEERNS4_IS6_EEE9__end_capEv
FN:85,_ZNSt3__114__split_bufferIN5Catch15ConsoleReporter13SummaryColumnERNS_9allocatorIS3_EEE5clearEv
FN:85,_ZNSt3__114__split_bufferIN5Catch8TestSpec6FilterERNS_9allocatorIS3_EEE5clearEv
FN:85,_ZNSt3__114__split_bufferINS_12basic_stringIcNS_11char_traitsIcEENS_9allocatorIcEEEERNS4_IS6_EEE5clearEv
FN:85,_ZNSt3__114__split_bufferIN5Catch3PtrINS1_22CumulativeReporterBase11SectionNodeEEERNS_9allocatorIS5_EEE5clearEv
FN:85,_ZNSt3__114__split_bufferIPN5Catch14IGeneratorInfoERNS_9allocatorIS3_EEE5clearEv
FN:85,_ZNSt3__114__split_bufferIN5Catch5Clara11CommandLineINS1_10ConfigDataEE3ArgERNS_9allocatorIS6_EEE5clearEv
FN:85,_ZNSt3__114__split_bufferIN5Catch11SectionInfoERNS_9allocatorIS2_EEE5clearEv
FN:85,_ZNSt3__114__split_bufferIN5Catch11MessageInfoERNS_9allocatorIS2_EEE5clearEv
FN:85,_ZNSt3__114__split_bufferIN5Catch3PtrINS1_22CumulativeReporterBase4NodeINS1_14TestGroupStatsENS4_INS1_13TestCaseStatsENS3_11SectionNodeEEEEEEERNS_9allocatorISA_EEE5clearEv
FN:85,_ZNSt3__114__split_bufferIN5Catch8TestCaseERNS_9allocatorIS2_EEE5clearEv
FN:85,_ZNSt3__114__split_bufferImRNS_9allocatorImEEE5clearEv
FN:85,_ZNSt3__114__split_bufferIN5Catch14SectionEndInfoERNS_9allocatorIS2_EEE5clearEv
FN:85,_ZNSt3__114__split_bufferIN5Catch3PtrINS1_18IStreamingReporterEEERNS_9allocatorIS4_EEE5clearEv
FN:85,_ZNSt3__114__split_bufferIN5Catch3PtrINS1_22CumulativeReporterBase4NodeINS1_12TestRunStatsENS4_INS1_14TestGroupStatsENS4_INS1_13TestCaseStatsENS3_11SectionNodeEEEEEEEEERNS_9allocatorISC_EEE5clearEv
FN:85,_ZNSt3__114__split_bufferIN5Catch3PtrINS1_22CumulativeReporterBase4NodeINS1_13TestCaseStatsENS3_11SectionNodeEEEEERNS_9allocatorIS8_EEE5clearEv
FN:85,_ZNSt3__114__split_bufferIN5Catch3PtrINS1_16TestCaseTracking8ITrackerEEERNS_9allocatorIS5_EEE5clearEv
FN:85,_ZNSt3__114__split_bufferIPKN5Catch20IExceptionTranslatorERNS_9allocatorIS4_EEE5clearEv
FN:85,_ZNSt3__114__split_bufferIPN5Catch16TestCaseTracking8ITrackerERNS_9allocatorIS4_EEE5clearEv
FN:85,_ZNSt3__114__split_bufferIN5Catch3PtrINS1_16IReporterFactoryEEERNS_9allocatorIS4_EEE5clearEv
FN:85,_ZNSt3__114__split_bufferIN5Catch14AssertionStatsERNS_9allocatorIS2_EEE5clearEv
FN:85,_ZNSt3__114__split_bufferIN5Catch3PtrINS1_8TestSpec7PatternEEERNS_9allocatorIS5_EEE5clearEv
FN:85,_ZNSt3__114__split_bufferIN5Catch5Clara6Parser5TokenERNS_9allocatorIS4_EEE5clearEv
FN:89,_ZNKSt3__114__split_bufferIN5Catch11MessageInfoERNS_9allocatorIS2_EEE8capacityEv
FN:89,_ZNKSt3__114__split_bufferIN5Catch3PtrINS1_22CumulativeReporterBase11SectionNodeEEERNS_9allocatorIS5_EEE8capacityEv
FN:89,_ZNKSt3__114__split_bufferIN5Catch14SectionEndInfoERNS_9allocatorIS2_EEE8capacityEv
FN:89,_ZNKSt3__114__split_bufferINS_12basic_stringIcNS_11char_traitsIcEENS_9allocatorIcEEEERNS4_IS6_EEE8capacityEv
FN:89,_ZNKSt3__114__split_bufferIN5Catch8TestCaseERNS_9allocatorIS2_EEE8capacityEv
FN:89,_ZNKSt3__114__split_bufferIN5Catch8TestSpec6FilterERNS_9allocatorIS3_EEE8capacityEv
FN:89,_ZNKSt3__114__split_bufferIN5Catch3PtrINS1_16TestCaseTracking8ITrackerEEERNS_9allocatorIS5_EEE8capacityEv
FN:89,_ZNKSt3__114__split_bufferIN5Catch14AssertionStatsERNS_9allocatorIS2_EEE8capacityEv
FN:89,_ZNKSt3__114__split_bufferIPN5Catch16TestCaseTracking8ITrackerERNS_9allocatorIS4_EEE8capacityEv
FN:89,_ZNKSt3__114__split_bufferIN5Catch5Clara11CommandLineINS1_10ConfigDataEE3ArgERNS_9allocatorIS6_EEE8capacityEv
FN:89,_ZNKSt3__114__split_bufferIN5Catch3PtrINS1_22CumulativeReporterBase4NodeINS1_12TestRunStatsENS4_INS1_14TestGroupStatsENS4_INS1_13TestCaseStatsENS3_11SectionNodeEEEEEEEEERNS_9allocatorISC_EEE8capacityEv
FN:89,_ZNKSt3__114__split_bufferIN5Catch3PtrINS1_22CumulativeReporterBase4NodeINS1_14TestGroupStatsENS4_INS1_13TestCaseStatsENS3_11SectionNodeEEEEEEERNS_9allocatorISA_EEE8capacityEv
FN:89,_ZNKSt3__114__split_bufferIPKN5Catch20IExceptionTranslatorERNS_9allocatorIS4_EEE8capacityEv
FN:89,_ZNKSt3__114__split_bufferIN5Catch15ConsoleReporter13SummaryColumnERNS_9allocatorIS3_EEE8capacityEv
FN:89,_ZNKSt3__114__split_bufferIN5Catch3PtrINS1_8TestSpec7PatternEEERNS_9allocatorIS5_EEE8capacityEv
FN:89,_ZNKSt3__114__split_bufferIN5Catch3PtrINS1_18IStreamingReporterEEERNS_9allocatorIS4_EEE8capacityEv
FN:89,_ZNKSt3__114__split_bufferIN5Catch5Clara6Parser5TokenERNS_9allocatorIS4_EEE8capacityEv
FN:89,_ZNKSt3__114__split_bufferIN5Catch11SectionInfoERNS_9allocatorIS2_EEE8capacityEv
FN:89,_ZNKSt3__114__split_bufferIPN5Catch14IGeneratorInfoERNS_9allocatorIS3_EEE8capacityEv
FN:89,_ZNKSt3__114__split_bufferImRNS_9allocatorImEEE8capacityEv
FN:89,_ZNKSt3__114__split_bufferIN5Catch3PtrINS1_16IReporterFactoryEEERNS_9allocatorIS4_EEE8capacityEv
FN:89,_ZNKSt3__114__split_bufferIN5Catch3PtrINS1_22CumulativeReporterBase4NodeINS1_13TestCaseStatsENS3_11SectionNodeEEEEERNS_9allocatorIS8_EEE8capacityEv
FN:140,_ZNSt3__114__split_bufferIN5Catch3PtrINS1_8TestSpec7PatternEEERNS_9allocatorIS5_EEE17__destruct_at_endEPS5_
FN:140,_ZNSt3__114__split_bufferIN5Catch5Clara6Parser5TokenERNS_9allocatorIS4_EEE17__destruct_at_endEPS4_
FN:140,_ZNSt3__114__split_bufferIN5Catch8TestCaseERNS_9allocatorIS2_EEE17__destruct_at_endEPS2_
FN:140,_ZNSt3__114__split_bufferIN5Catch14SectionEndInfoERNS_9allocatorIS2_EEE17__destruct_at_endEPS2_
FN:140,_ZNSt3__114__split_bufferIN5Catch3PtrINS1_22CumulativeReporterBase4NodeINS1_14TestGroupStatsENS4_INS1_13TestCaseStatsENS3_11SectionNodeEEEEEEERNS_9allocatorISA_EEE17__destruct_at_endEPSA_
FN:140,_ZNSt3__114__split_bufferIN5Catch11SectionInfoERNS_9allocatorIS2_EEE17__destruct_at_endEPS2_
FN:140,_ZNSt3__114__split_bufferIN5Catch14AssertionStatsERNS_9allocatorIS2_EEE17__destruct_at_endEPS2_
FN:140,_ZNSt3__114__split_bufferIPN5Catch16TestCaseTracking8ITrackerERNS_9allocatorIS4_EEE17__destruct_at_endEPS4_
FN:140,_ZNSt3__114__split_bufferIPKN5Catch20IExceptionTranslatorERNS_9allocatorIS4_EEE17__destruct_at_endEPS4_
FN:140,_ZNSt3__114__split_bufferIN5Catch3PtrINS1_18IStreamingReporterEEERNS_9allocatorIS4_EEE17__destruct_at_endEPS4_
FN:140,_ZNSt3__114__split_bufferIN5Catch11MessageInfoERNS_9allocatorIS2_EEE17__destruct_at_endEPS2_
FN:140,_ZNSt3__114__split_bufferIN5Catch3PtrINS1_16IReporterFactoryEEERNS_9allocatorIS4_EEE17__destruct_at_endEPS4_
FN:140,_ZNSt3__114__split_bufferImRNS_9allocatorImEEE17__destruct_at_endEPm
FN:140,_ZNSt3__114__split_bufferIN5Catch3PtrINS1_22CumulativeReporterBase4NodeINS1_13TestCaseStatsENS3_11SectionNodeEEEEERNS_9allocatorIS8_EEE17__destruct_at_endEPS8_
FN:140,_ZNSt3__114__split_bufferINS_12basic_stringIcNS_11char_traitsIcEENS_9allocatorIcEEEERNS4_IS6_EEE17__destruct_at_endEPS6_
FN:140,_ZNSt3__114__split_bufferIN5Catch15ConsoleReporter13SummaryColumnERNS_9allocatorIS3_EEE17__destruct_at_endEPS3_
FN:140,_ZNSt3__114__split_bufferIPN5Catch14IGeneratorInfoERNS_9allocatorIS3_EEE17__destruct_at_endEPS3_
FN:140,_ZNSt3__114__split_bufferIN5Catch3PtrINS1_16TestCaseTracking8ITrackerEEERNS_9allocatorIS5_EEE17__destruct_at_endEPS5_
FN:140,_ZNSt3__114__split_bufferIN5Catch3PtrINS1_22CumulativeReporterBase4NodeINS1_12TestRunStatsENS4_INS1_14TestGroupStatsENS4_INS1_13TestCaseStatsENS3_11SectionNodeEEEEEEEEERNS_9allocatorISC_EEE17__destruct_at_endEPSC_
FN:140,_ZNSt3__114__split_bufferIN5Catch3PtrINS1_22CumulativeReporterBase11SectionNodeEEERNS_9allocatorIS5_EEE17__destruct_at_endEPS5_
FN:140,_ZNSt3__114__split_bufferIN5Catch8TestSpec6FilterERNS_9allocatorIS3_EEE17__destruct_at_endEPS3_
FN:140,_ZNSt3__114__split_bufferIN5Catch5Clara11CommandLineINS1_10ConfigDataEE3ArgERNS_9allocatorIS6_EEE17__destruct_at_endEPS6_
FN:263,_ZNSt3__114__split_bufferINS_12basic_stringIcNS_11char_traitsIcEENS_9allocatorIcEEEERNS4_IS6_EEE18__construct_at_endINS_11__wrap_iterIPKS6_EEEENS_9enable_ifIXsr21__is_forward_iteratorIT_EE5valueEvE4typeESG_SG_
FN:293,_ZNSt3__114__split_bufferIN5Catch3PtrINS1_22CumulativeReporterBase4NodeINS1_12TestRunStatsENS4_INS1_14TestGroupStatsENS4_INS1_13TestCaseStatsENS3_11SectionNodeEEEEEEEEERNS_9allocatorISC_EEE17__destruct_at_endEPSC_NS_17integral_constantIbLb0EEE
FN:293,_ZNSt3__114__split_bufferIN5Catch5Clara6Parser5TokenERNS_9allocatorIS4_EEE17__destruct_at_endEPS4_NS_17integral_constantIbLb0EEE
FN:293,_ZNSt3__114__split_bufferIN5Catch3PtrINS1_16IReporterFactoryEEERNS_9allocatorIS4_EEE17__destruct_at_endEPS4_NS_17integral_constantIbLb0EEE
FN:293,_ZNSt3__114__split_bufferIN5Catch14AssertionStatsERNS_9allocatorIS2_EEE17__destruct_at_endEPS2_NS_17integral_constantIbLb0EEE
FN:293,_ZNSt3__114__split_bufferIN5Catch14SectionEndInfoERNS_9allocatorIS2_EEE17__destruct_at_endEPS2_NS_17integral_constantIbLb0EEE
FN:293,_ZNSt3__114__split_bufferIN5Catch3PtrINS1_22CumulativeReporterBase4NodeINS1_13TestCaseStatsENS3_11SectionNodeEEEEERNS_9allocatorIS8_EEE17__destruct_at_endEPS8_NS_17integral_constantIbLb0EEE
FN:293,_ZNSt3__114__split_bufferIPN5Catch16TestCaseTracking8ITrackerERNS_9allocatorIS4_EEE17__destruct_at_endEPS4_NS_17integral_constantIbLb0EEE
FN:293,_ZNSt3__114__split_bufferIN5Catch3PtrINS1_22CumulativeReporterBase4NodeINS1_14TestGroupStatsENS4_INS1_13TestCaseStatsENS3_11SectionNodeEEEEEEERNS_9allocatorISA_EEE17__destruct_at_endEPSA_NS_17integral_constantIbLb0EEE
FN:293,_ZNSt3__114__split_bufferIN5Catch11MessageInfoERNS_9allocatorIS2_EEE17__destruct_at_endEPS2_NS_17integral_constantIbLb0EEE
FN:293,_ZNSt3__114__split_bufferIN5Catch3PtrINS1_22CumulativeReporterBase11SectionNodeEEERNS_9allocatorIS5_EEE17__destruct_at_endEPS5_NS_17integral_constantIbLb0EEE
FN:293,_ZNSt3__114__split_bufferIN5Catch8TestCaseERNS_9allocatorIS2_EEE17__destruct_at_endEPS2_NS_17integral_constantIbLb0EEE
FN:293,_ZNSt3__114__split_bufferImRNS_9allocatorImEEE17__destruct_at_endEPmNS_17integral_constantIbLb0EEE
FN:293,_ZNSt3__114__split_bufferIN5Catch3PtrINS1_16TestCaseTracking8ITrackerEEERNS_9allocatorIS5_EEE17__destruct_at_endEPS5_NS_17integral_constantIbLb0EEE
FN:293,_ZNSt3__114__split_bufferIN5Catch8TestSpec6FilterERNS_9allocatorIS3_EEE17__destruct_at_endEPS3_NS_17integral_constantIbLb0EEE
FN:293,_ZNSt3__114__split_bufferIN5Catch3PtrINS1_18IStreamingReporterEEERNS_9allocatorIS4_EEE17__destruct_at_endEPS4_NS_17integral_constantIbLb0EEE
FN:293,_ZNSt3__114__split_bufferIN5Catch5Clara11CommandLineINS1_10ConfigDataEE3ArgERNS_9allocatorIS6_EEE17__destruct_at_endEPS6_NS_17integral_constantIbLb0EEE
FN:293,_ZNSt3__114__split_bufferIN5Catch15ConsoleReporter13SummaryColumnERNS_9allocatorIS3_EEE17__destruct_at_endEPS3_NS_17integral_constantIbLb0EEE
FN:293,_ZNSt3__114__split_bufferIPN5Catch14IGeneratorInfoERNS_9allocatorIS3_EEE17__destruct_at_endEPS3_NS_17integral_constantIbLb0EEE
FN:293,_ZNSt3__114__split_bufferINS_12basic_stringIcNS_11char_traitsIcEENS_9allocatorIcEEEERNS4_IS6_EEE17__destruct_at_endEPS6_NS_17integral_constantIbLb0EEE
FN:293,_ZNSt3__114__split_bufferIN5Catch11SectionInfoERNS_9allocatorIS2_EEE17__destruct_at_endEPS2_NS_17integral_constantIbLb0EEE
FN:293,_ZNSt3__114__split_bufferIN5Catch3PtrINS1_8TestSpec7PatternEEERNS_9allocatorIS5_EEE17__destruct_at_endEPS5_NS_17integral_constantIbLb0EEE
FN:293,_ZNSt3__114__split_bufferIPKN5Catch20IExceptionTranslatorERNS_9allocatorIS4_EEE17__destruct_at_endEPS4_NS_17integral_constantIbLb0EEE
FN:308,_ZNSt3__114__split_bufferImRNS_9allocatorImEEEC1EmmS3_
FN:308,_ZNSt3__114__split_bufferIN5Catch3PtrINS1_16TestCaseTracking8ITrackerEEERNS_9allocatorIS5_EEEC2EmmS8_
FN:308,_ZNSt3__114__split_bufferIPKN5Catch20IExceptionTranslatorERNS_9allocatorIS4_EEEC2EmmS7_
FN:308,_ZNSt3__114__split_bufferIN5Catch8TestSpec6FilterERNS_9allocatorIS3_EEEC1EmmS6_
FN:308,_ZNSt3__114__split_bufferIN5Catch3PtrINS1_22CumulativeReporterBase4NodeINS1_12TestRunStatsENS4_INS1_14TestGroupStatsENS4_INS1_13TestCaseStatsENS3_11SectionNodeEEEEEEEEERNS_9allocatorISC_EEEC1EmmSF_
FN:308,_ZNSt3__114__split_bufferIN5Catch3PtrINS1_18IStreamingReporterEEERNS_9allocatorIS4_EEEC1EmmS7_
FN:308,_ZNSt3__114__split_bufferIN5Catch3PtrINS1_22CumulativeReporterBase4NodeINS1_13TestCaseStatsENS3_11SectionNodeEEEEERNS_9allocatorIS8_EEEC2EmmSB_
FN:308,_ZNSt3__114__split_bufferIN5Catch14AssertionStatsERNS_9allocatorIS2_EEEC1EmmS5_
FN:308,_ZNSt3__114__split_bufferIN5Catch8TestCaseERNS_9allocatorIS2_EEEC2EmmS5_
FN:308,_ZNSt3__114__split_bufferINS_12basic_stringIcNS_11char_traitsIcEENS_9allocatorIcEEEERNS4_IS6_EEEC1EmmS8_
FN:308,_ZNSt3__114__split_bufferIN5Catch3PtrINS1_16IReporterFactoryEEERNS_9allocatorIS4_EEEC2EmmS7_
FN:308,_ZNSt3__114__split_bufferIN5Catch11SectionInfoERNS_9allocatorIS2_EEEC2EmmS5_
FN:308,_ZNSt3__114__split_bufferIN5Catch11MessageInfoERNS_9allocatorIS2_EEEC1EmmS5_
FN:308,_ZNSt3__114__split_bufferIPKN5Catch20IExceptionTranslatorERNS_9allocatorIS4_EEEC1EmmS7_
FN:308,_ZNSt3__114__split_bufferImRNS_9allocatorImEEEC2EmmS3_
FN:308,_ZNSt3__114__split_bufferIPN5Catch16TestCaseTracking8ITrackerERNS_9allocatorIS4_EEEC2EmmS7_
FN:308,_ZNSt3__114__split_bufferIN5Catch15ConsoleReporter13SummaryColumnERNS_9allocatorIS3_EEEC1EmmS6_
FN:308,_ZNSt3__114__split_bufferIPN5Catch16TestCaseTracking8ITrackerERNS_9allocatorIS4_EEEC1EmmS7_
FN:308,_ZNSt3__114__split_bufferIPN5Catch14IGeneratorInfoERNS_9allocatorIS3_EEEC1EmmS6_
FN:308,_ZNSt3__114__split_bufferIN5Catch5Clara11CommandLineINS1_10ConfigDataEE3ArgERNS_9allocatorIS6_EEEC1EmmS9_
FN:308,_ZNSt3__114__split_bufferIN5Catch3PtrINS1_8TestSpec7PatternEEERNS_9allocatorIS5_EEEC2EmmS8_
FN:308,_ZNSt3__114__split_bufferIN5Catch3PtrINS1_16IReporterFactoryEEERNS_9allocatorIS4_EEEC1EmmS7_
FN:308,_ZNSt3__114__split_bufferIN5Catch8TestCaseERNS_9allocatorIS2_EEEC1EmmS5_
FN:308,_ZNSt3__114__split_bufferIN5Catch5Clara6Parser5TokenERNS_9allocatorIS4_EEEC1EmmS7_
FN:308,_ZNSt3__114__split_bufferIN5Catch5Clara11CommandLineINS1_10ConfigDataEE3ArgERNS_9allocatorIS6_EEEC2EmmS9_
FN:308,_ZNSt3__114__split_bufferIN5Catch3PtrINS1_22CumulativeReporterBase11SectionNodeEEERNS_9allocatorIS5_EEEC2EmmS8_
FN:308,_ZNSt3__114__split_bufferIN5Catch14SectionEndInfoERNS_9allocatorIS2_EEEC1EmmS5_
FN:308,_ZNSt3__114__split_bufferIPN5Catch14IGeneratorInfoERNS_9allocatorIS3_EEEC2EmmS6_
FN:308,_ZNSt3__114__split_bufferIN5Catch3PtrINS1_16TestCaseTracking8ITrackerEEERNS_9allocatorIS5_EEEC1EmmS8_
FN:308,_ZNSt3__114__split_bufferIN5Catch3PtrINS1_22CumulativeReporterBase11SectionNodeEEERNS_9allocatorIS5_EEEC1EmmS8_
FN:308,_ZNSt3__114__split_bufferIN5Catch5Clara6Parser5TokenERNS_9allocatorIS4_EEEC2EmmS7_
FN:308,_ZNSt3__114__split_bufferIN5Catch3PtrINS1_22CumulativeReporterBase4NodeINS1_14TestGroupStatsENS4_INS1_13TestCaseStatsENS3_11SectionNodeEEEEEEERNS_9allocatorISA_EEEC1EmmSD_
FN:308,_ZNSt3__114__split_bufferIN5Catch3PtrINS1_18IStreamingReporterEEERNS_9allocatorIS4_EEEC2EmmS7_
FN:308,_ZNSt3__114__split_bufferIN5Catch3PtrINS1_8TestSpec7PatternEEERNS_9allocatorIS5_EEEC1EmmS8_
FN:308,_ZNSt3__114__split_bufferIN5Catch14AssertionStatsERNS_9allocatorIS2_EEEC2EmmS5_
FN:308,_ZNSt3__114__split_bufferIN5Catch15ConsoleReporter13SummaryColumnERNS_9allocatorIS3_EEEC2EmmS6_
FN:308,_ZNSt3__114__split_bufferIN5Catch14SectionEndInfoERNS_9allocatorIS2_EEEC2EmmS5_
FN:308,_ZNSt3__114__split_bufferINS_12basic_stringIcNS_11char_traitsIcEENS_9allocatorIcEEEERNS4_IS6_EEEC2EmmS8_
FN:308,_ZNSt3__114__split_bufferIN5Catch8TestSpec6FilterERNS_9allocatorIS3_EEEC2EmmS6_
FN:308,_ZNSt3__114__split_bufferIN5Catch11SectionInfoERNS_9allocatorIS2_EEEC1EmmS5_
FN:308,_ZNSt3__114__split_bufferIN5Catch3PtrINS1_22CumulativeReporterBase4NodeINS1_12TestRunStatsENS4_INS1_14TestGroupStatsENS4_INS1_13TestCaseStatsENS3_11SectionNodeEEEEEEEEERNS_9allocatorISC_EEEC2EmmSF_
FN:308,_ZNSt3__114__split_bufferIN5Catch11MessageInfoERNS_9allocatorIS2_EEEC2EmmS5_
FN:308,_ZNSt3__114__split_bufferIN5Catch3PtrINS1_22CumulativeReporterBase4NodeINS1_13TestCaseStatsENS3_11SectionNodeEEEEERNS_9allocatorIS8_EEEC1EmmSB_
FN:308,_ZNSt3__114__split_bufferIN5Catch3PtrINS1_22CumulativeReporterBase4NodeINS1_14TestGroupStatsENS4_INS1_13TestCaseStatsENS3_11SectionNodeEEEEEEERNS_9allocatorISA_EEEC2EmmSD_
FN:339,_ZNSt3__114__split_bufferIN5Catch11MessageInfoERNS_9allocatorIS2_EEED2Ev
FN:339,_ZNSt3__114__split_bufferIN5Catch11SectionInfoERNS_9allocatorIS2_EEED1Ev
FN:339,_ZNSt3__114__split_bufferIN5Catch3PtrINS1_16TestCaseTracking8ITrackerEEERNS_9allocatorIS5_EEED2Ev
FN:339,_ZNSt3__114__split_bufferINS_12basic_stringIcNS_11char_traitsIcEENS_9allocatorIcEEEERNS4_IS6_EEED2Ev
FN:339,_ZNSt3__114__split_bufferIN5Catch3PtrINS1_16IReporterFactoryEEERNS_9allocatorIS4_EEED1Ev
FN:339,_ZNSt3__114__split_bufferIPN5Catch14IGeneratorInfoERNS_9allocatorIS3_EEED1Ev
FN:339,_ZNSt3__114__split_bufferIN5Catch3PtrINS1_22CumulativeReporterBase4NodeINS1_13TestCaseStatsENS3_11SectionNodeEEEEERNS_9allocatorIS8_EEED1Ev
FN:339,_ZNSt3__114__split_bufferIPN5Catch16TestCaseTracking8ITrackerERNS_9allocatorIS4_EEED1Ev
FN:339,_ZNSt3__114__split_bufferIPKN5Catch20IExceptionTranslatorERNS_9allocatorIS4_EEED1Ev
FN:339,_ZNSt3__114__split_bufferIN5Catch14AssertionStatsERNS_9allocatorIS2_EEED1Ev
FN:339,_ZNSt3__114__split_bufferIN5Catch11MessageInfoERNS_9allocatorIS2_EEED1Ev
FN:339,_ZNSt3__114__split_bufferIN5Catch3PtrINS1_16TestCaseTracking8ITrackerEEERNS_9allocatorIS5_EEED1Ev
FN:339,_ZNSt3__114__split_bufferIN5Catch8TestSpec6FilterERNS_9allocatorIS3_EEED1Ev
FN:339,_ZNSt3__114__split_bufferIN5Catch3PtrINS1_22CumulativeReporterBase11SectionNodeEEERNS_9allocatorIS5_EEED2Ev
FN:339,_ZNSt3__114__split_bufferIN5Catch5Clara11CommandLineINS1_10ConfigDataEE3ArgERNS_9allocatorIS6_EEED2Ev
FN:339,_ZNSt3__114__split_bufferIN5Catch3PtrINS1_22CumulativeReporterBase11SectionNodeEEERNS_9allocatorIS5_EEED1Ev
FN:339,_ZNSt3__114__split_bufferIN5Catch3PtrINS1_22CumulativeReporterBase4NodeINS1_13TestCaseStatsENS3_11SectionNodeEEEEERNS_9allocatorIS8_EEED2Ev
FN:339,_ZNSt3__114__split_bufferIN5Catch3PtrINS1_18IStreamingReporterEEERNS_9allocatorIS4_EEED2Ev
FN:339,_ZNSt3__114__split_bufferIN5Catch15ConsoleReporter13SummaryColumnERNS_9allocatorIS3_EEED2Ev
FN:339,_ZNSt3__114__split_bufferIPKN5Catch20IExceptionTranslatorERNS_9allocatorIS4_EEED2Ev
FN:339,_ZNSt3__114__split_bufferINS_12basic_stringIcNS_11char_traitsIcEENS_9allocatorIcEEEERNS4_IS6_EEED1Ev
FN:339,_ZNSt3__114__split_bufferIN5Catch3PtrINS1_16IReporterFactoryEEERNS_9allocatorIS4_EEED2Ev
FN:339,_ZNSt3__114__split_bufferIN5Catch5Clara6Parser5TokenERNS_9allocatorIS4_EEED2Ev
FN:339,_ZNSt3__114__split_bufferIN5Catch14SectionEndInfoERNS_9allocatorIS2_EEED1Ev
FN:339,_ZNSt3__114__split_bufferIN5Catch8TestCaseERNS_9allocatorIS2_EEED1Ev
FN:339,_ZNSt3__114__split_bufferIN5Catch3PtrINS1_22CumulativeReporterBase4NodeINS1_14TestGroupStatsENS4_INS1_13TestCaseStatsENS3_11SectionNodeEEEEEEERNS_9allocatorISA_EEED2Ev
FN:339,_ZNSt3__114__split_bufferIN5Catch5Clara6Parser5TokenERNS_9allocatorIS4_EEED1Ev
FN:339,_ZNSt3__114__split_bufferIPN5Catch14IGeneratorInfoERNS_9allocatorIS3_EEED2Ev
FN:339,_ZNSt3__114__split_bufferIN5Catch8TestCaseERNS_9allocatorIS2_EEED2Ev
FN:339,_ZNSt3__114__split_bufferIN5Catch5Clara11CommandLineINS1_10ConfigDataEE3ArgERNS_9allocatorIS6_EEED1Ev
FN:339,_ZNSt3__114__split_bufferIN5Catch14SectionEndInfoERNS_9allocatorIS2_EEED2Ev
FN:339,_ZNSt3__114__split_bufferIN5Catch3PtrINS1_22CumulativeReporterBase4NodeINS1_12TestRunStatsENS4_INS1_14TestGroupStatsENS4_INS1_13TestCaseStatsENS3_11SectionNodeEEEEEEEEERNS_9allocatorISC_EEED1Ev
FN:339,_ZNSt3__114__split_bufferIN5Catch14AssertionStatsERNS_9allocatorIS2_EEED2Ev
FN:339,_ZNSt3__114__split_bufferImRNS_9allocatorImEEED2Ev
FN:339,_ZNSt3__114__split_bufferIN5Catch3PtrINS1_22CumulativeReporterBase4NodeINS1_12TestRunStatsENS4_INS1_14TestGroupStatsENS4_INS1_13TestCaseStatsENS3_11SectionNodeEEEEEEEEERNS_9allocatorISC_EEED2Ev
FN:339,_ZNSt3__114__split_bufferIPN5Catch16TestCaseTracking8ITrackerERNS_9allocatorIS4_EEED2Ev
FN:339,_ZNSt3__114__split_bufferImRNS_9allocatorImEEED1Ev
FN:339,_ZNSt3__114__split_bufferIN5Catch3PtrINS1_22CumulativeReporterBase4NodeINS1_14TestGroupStatsENS4_INS1_13TestCaseStatsENS3_11SectionNodeEEEEEEERNS_9allocatorISA_EEED1Ev
FN:339,_ZNSt3__114__split_bufferIN5Catch11SectionInfoERNS_9allocatorIS2_EEED2Ev
FN:339,_ZNSt3__114__split_bufferIN5Catch15ConsoleReporter13SummaryColumnERNS_9allocatorIS3_EEED1Ev
FN:339,_ZNSt3__114__split_bufferIN5Catch3PtrINS1_8TestSpec7PatternEEERNS_9allocatorIS5_EEED1Ev
FN:339,_ZNSt3__114__split_bufferIN5Catch3PtrINS1_18IStreamingReporterEEERNS_9allocatorIS4_EEED1Ev
FN:339,_ZNSt3__114__split_bufferIN5Catch3PtrINS1_8TestSpec7PatternEEERNS_9allocatorIS5_EEED2Ev
FN:339,_ZNSt3__114__split_bufferIN5Catch8TestSpec6FilterERNS_9allocatorIS3_EEED2Ev
FNDA:0,_ZNSt3__114__split_bufferIN5Catch11MessageInfoERNS_9allocatorIS2_EEE7__allocEv
FNDA:65,_ZNSt3__114__split_bufferINS_12basic_stringIcNS_11char_traitsIcEENS_9allocatorIcEEEERNS4_IS6_EEE7__allocEv
FNDA:8,_ZNSt3__114__split_bufferIPN5Catch16TestCaseTracking8ITrackerERNS_9allocatorIS4_EEE7__allocEv
FNDA:0,_ZNSt3__114__split_bufferIN5Catch14SectionEndInfoERNS_9allocatorIS2_EEE7__allocEv
FNDA:0,_ZNSt3__114__split_bufferImRNS_9allocatorImEEE7__allocEv
FNDA:1,_ZNSt3__114__split_bufferIN5Catch8TestSpec6FilterERNS_9allocatorIS3_EEE7__allocEv
FNDA:1,_ZNSt3__114__split_bufferIN5Catch3PtrINS1_8TestSpec7PatternEEERNS_9allocatorIS5_EEE7__allocEv
FNDA:0,_ZNSt3__114__split_bufferIPKN5Catch20IExceptionTranslatorERNS_9allocatorIS4_EEE7__allocEv
FNDA:0,_ZNSt3__114__split_bufferIN5Catch3PtrINS1_16IReporterFactoryEEERNS_9allocatorIS4_EEE7__allocEv
FNDA:0,_ZNSt3__114__split_bufferIPN5Catch14IGeneratorInfoERNS_9allocatorIS3_EEE7__allocEv
FNDA:0,_ZNSt3__114__split_bufferIN5Catch3PtrINS1_18IStreamingReporterEEERNS_9allocatorIS4_EEE7__allocEv
FNDA:42,_ZNSt3__114__split_bufferIN5Catch5Clara11CommandLineINS1_10ConfigDataEE3ArgERNS_9allocatorIS6_EEE7__allocEv
FNDA:0,_ZNSt3__114__split_bufferIN5Catch5Clara6Parser5TokenERNS_9allocatorIS4_EEE7__allocEv
FNDA:53,_ZNSt3__114__split_bufferIN5Catch3PtrINS1_16TestCaseTracking8ITrackerEEERNS_9allocatorIS5_EEE7__allocEv
FNDA:8,_ZNSt3__114__split_bufferIN5Catch11SectionInfoERNS_9allocatorIS2_EEE7__allocEv
FNDA:0,_ZNSt3__114__split_bufferIN5Catch3PtrINS1_22CumulativeReporterBase11SectionNodeEEERNS_9allocatorIS5_EEE7__allocEv
FNDA:0,_ZNSt3__114__split_bufferIN5Catch14AssertionStatsERNS_9allocatorIS2_EEE7__allocEv
FNDA:0,_ZNSt3__114__split_bufferIN5Catch3PtrINS1_22CumulativeReporterBase4NodeINS1_13TestCaseStatsENS3_11SectionNodeEEEEERNS_9allocatorIS8_EEE7__allocEv
FNDA:0,_ZNSt3__114__split_bufferIN5Catch3PtrINS1_22CumulativeReporterBase4NodeINS1_14TestGroupStatsENS4_INS1_13TestCaseStatsENS3_11SectionNodeEEEEEEERNS_9allocatorISA_EEE7__allocEv
FNDA:0,_ZNSt3__114__split_bufferIN5Catch3PtrINS1_22CumulativeReporterBase4NodeINS1_12TestRunStatsENS4_INS1_14TestGroupStatsENS4_INS1_13TestCaseStatsENS3_11SectionNodeEEEEEEEEERNS_9allocatorISC_EEE7__allocEv
FNDA:0,_ZNSt3__114__split_bufferIN5Catch15ConsoleReporter13SummaryColumnERNS_9allocatorIS3_EEE7__allocEv
FNDA:1,_ZNSt3__114__split_bufferIN5Catch8TestCaseERNS_9allocatorIS2_EEE7__allocEv
FNDA:0,_ZNSt3__114__split_bufferIN5Catch11MessageInfoERNS_9allocatorIS2_EEE9__end_capEv
FNDA:86,_ZNSt3__114__split_bufferINS_12basic_stringIcNS_11char_traitsIcEENS_9allocatorIcEEEERNS4_IS6_EEE9__end_capEv
FNDA:6,_ZNSt3__114__split_bufferIPN5Catch16TestCaseTracking8ITrackerERNS_9allocatorIS4_EEE9__end_capEv
FNDA:0,_ZNSt3__114__split_bufferIN5Catch14SectionEndInfoERNS_9allocatorIS2_EEE9__end_capEv
FNDA:0,_ZNSt3__114__split_bufferImRNS_9allocatorImEEE9__end_capEv
FNDA:2,_ZNSt3__114__split_bufferIN5Catch8TestSpec6FilterERNS_9allocatorIS3_EEE9__end_capEv
FNDA:2,_ZNSt3__114__split_bufferIN5Catch3PtrINS1_8TestSpec7PatternEEERNS_9allocatorIS5_EEE9__end_capEv
FNDA:0,_ZNSt3__114__split_bufferIPKN5Catch20IExceptionTranslatorERNS_9allocatorIS4_EEE9__end_capEv
FNDA:0,_ZNSt3__114__split_bufferIN5Catch3PtrINS1_16IReporterFactoryEEERNS_9allocatorIS4_EEE9__end_capEv
FNDA:0,_ZNSt3__114__split_bufferIPN5Catch14IGeneratorInfoERNS_9allocatorIS3_EEE9__end_capEv
FNDA:0,_ZNSt3__114__split_bufferIN5Catch3PtrINS1_18IStreamingReporterEEERNS_9allocatorIS4_EEE9__end_capEv
FNDA:12,_ZNSt3__114__split_bufferIN5Catch5Clara11CommandLineINS1_10ConfigDataEE3ArgERNS_9allocatorIS6_EEE9__end_capEv
FNDA:0,_ZNSt3__114__split_bufferIN5Catch5Clara6Parser5TokenERNS_9allocatorIS4_EEE9__end_capEv
FNDA:42,_ZNSt3__114__split_bufferIN5Catch3PtrINS1_16TestCaseTracking8ITrackerEEERNS_9allocatorIS5_EEE9__end_capEv
FNDA:6,_ZNSt3__114__split_bufferIN5Catch11SectionInfoERNS_9allocatorIS2_EEE9__end_capEv
FNDA:0,_ZNSt3__114__split_bufferIN5Catch3PtrINS1_22CumulativeReporterBase11SectionNodeEEERNS_9allocatorIS5_EEE9__end_capEv
FNDA:0,_ZNSt3__114__split_bufferIN5Catch14AssertionStatsERNS_9allocatorIS2_EEE9__end_capEv
FNDA:0,_ZNSt3__114__split_bufferIN5Catch3PtrINS1_22CumulativeReporterBase4NodeINS1_13TestCaseStatsENS3_11SectionNodeEEEEERNS_9allocatorIS8_EEE9__end_capEv
FNDA:0,_ZNSt3__114__split_bufferIN5Catch3PtrINS1_22CumulativeReporterBase4NodeINS1_14TestGroupStatsENS4_INS1_13TestCaseStatsENS3_11SectionNodeEEEEEEERNS_9allocatorISA_EEE9__end_capEv
FNDA:0,_ZNSt3__114__split_bufferIN5Catch3PtrINS1_22CumulativeReporterBase4NodeINS1_12TestRunStatsENS4_INS1_14TestGroupStatsENS4_INS1_13TestCaseStatsENS3_11SectionNodeEEEEEEEEERNS_9allocatorISC_EEE9__end_capEv
FNDA:0,_ZNSt3__114__split_bufferIN5Catch15ConsoleReporter13SummaryColumnERNS_9allocatorIS3_EEE9__end_capEv
FNDA:2,_ZNSt3__114__split_bufferIN5Catch8TestCaseERNS_9allocatorIS2_EEE9__end_capEv
FNDA:0,_ZNKSt3__114__split_bufferIN5Catch11MessageInfoERNS_9allocatorIS2_EEE9__end_capEv
FNDA:9,_ZNKSt3__114__split_bufferINS_12basic_stringIcNS_11char_traitsIcEENS_9allocatorIcEEEERNS4_IS6_EEE9__end_capEv
FNDA:2,_ZNKSt3__114__split_bufferIPN5Catch16TestCaseTracking8ITrackerERNS_9allocatorIS4_EEE9__end_capEv
FNDA:0,_ZNKSt3__114__split_bufferIN5Catch14SectionEndInfoERNS_9allocatorIS2_EEE9__end_capEv
FNDA:0,_ZNKSt3__114__split_bufferImRNS_9allocatorImEEE9__end_capEv
FNDA:0,_ZNKSt3__114__split_bufferIN5Catch8TestSpec6FilterERNS_9allocatorIS3_EEE9__end_capEv
FNDA:0,_ZNKSt3__114__split_bufferIN5Catch3PtrINS1_8TestSpec7PatternEEERNS_9allocatorIS5_EEE9__end_capEv
FNDA:0,_ZNKSt3__114__split_bufferIPKN5Catch20IExceptionTranslatorERNS_9allocatorIS4_EEE9__end_capEv
FNDA:0,_ZNKSt3__114__split_bufferIN5Catch3PtrINS1_16IReporterFactoryEEERNS_9allocatorIS4_EEE9__end_capEv
FNDA:0,_ZNKSt3__114__split_bufferIPN5Catch14IGeneratorInfoERNS_9allocatorIS3_EEE9__end_capEv
FNDA:0,_ZNKSt3__114__split_bufferIN5Catch3PtrINS1_18IStreamingReporterEEERNS_9allocatorIS4_EEE9__end_capEv
FNDA:5,_ZNKSt3__114__split_bufferIN5Catch5Clara11CommandLineINS1_10ConfigDataEE3ArgERNS_9allocatorIS6_EEE9__end_capEv
FNDA:0,_ZNKSt3__114__split_bufferIN5Catch5Clara6Parser5TokenERNS_9allocatorIS4_EEE9__end_capEv
FNDA:13,_ZNKSt3__114__split_bufferIN5Catch3PtrINS1_16TestCaseTracking8ITrackerEEERNS_9allocatorIS5_EEE9__end_capEv
FNDA:2,_ZNKSt3__114__split_bufferIN5Catch11SectionInfoERNS_9allocatorIS2_EEE9__end_capEv
FNDA:0,_ZNKSt3__114__split_bufferIN5Catch3PtrINS1_22CumulativeReporterBase11SectionNodeEEERNS_9allocatorIS5_EEE9__end_capEv
FNDA:0,_ZNKSt3__114__split_bufferIN5Catch14AssertionStatsERNS_9allocatorIS2_EEE9__end_capEv
FNDA:0,_ZNKSt3__114__split_bufferIN5Catch3PtrINS1_22CumulativeReporterBase4NodeINS1_13TestCaseStatsENS3_11SectionNodeEEEEERNS_9allocatorIS8_EEE9__end_capEv
FNDA:0,_ZNKSt3__114__split_bufferIN5Catch3PtrINS1_22CumulativeReporterBase4NodeINS1_14TestGroupStatsENS4_INS1_13TestCaseStatsENS3_11SectionNodeEEEEEEERNS_9allocatorISA_EEE9__end_capEv
FNDA:0,_ZNKSt3__114__split_bufferIN5Catch3PtrINS1_22CumulativeReporterBase4NodeINS1_12TestRunStatsENS4_INS1_14TestGroupStatsENS4_INS1_13TestCaseStatsENS3_11SectionNodeEEEEEEEEERNS_9allocatorISC_EEE9__end_capEv
FNDA:0,_ZNKSt3__114__split_bufferIN5Catch15ConsoleReporter13SummaryColumnERNS_9allocatorIS3_EEE9__end_capEv
FNDA:0,_ZNKSt3__114__split_bufferIN5Catch8TestCaseERNS_9allocatorIS2_EEE9__end_capEv
FNDA:0,_ZNSt3__114__split_bufferIN5Catch11MessageInfoERNS_9allocatorIS2_EEE5clearEv
FNDA:43,_ZNSt3__114__split_bufferINS_12basic_stringIcNS_11char_traitsIcEENS_9allocatorIcEEEERNS4_IS6_EEE5clearEv
FNDA:3,_ZNSt3__114__split_bufferIPN5Catch16TestCaseTracking8ITrackerERNS_9allocatorIS4_EEE5clearEv
FNDA:0,_ZNSt3__114__split_bufferIN5Catch14SectionEndInfoERNS_9allocatorIS2_EEE5clearEv
FNDA:0,_ZNSt3__114__split_bufferImRNS_9allocatorImEEE5clearEv
FNDA:1,_ZNSt3__114__split_bufferIN5Catch8TestSpec6FilterERNS_9allocatorIS3_EEE5clearEv
FNDA:1,_ZNSt3__114__split_bufferIN5Catch3PtrINS1_8TestSpec7PatternEEERNS_9allocatorIS5_EEE5clearEv
FNDA:0,_ZNSt3__114__split_bufferIPKN5Catch20IExceptionTranslatorERNS_9allocatorIS4_EEE5clearEv
FNDA:0,_ZNSt3__114__split_bufferIN5Catch3PtrINS1_16IReporterFactoryEEERNS_9allocatorIS4_EEE5clearEv
FNDA:0,_ZNSt3__114__split_bufferIPN5Catch14IGeneratorInfoERNS_9allocatorIS3_EEE5clearEv
FNDA:0,_ZNSt3__114__split_bufferIN5Catch3PtrINS1_18IStreamingReporterEEERNS_9allocatorIS4_EEE5clearEv
FNDA:6,_ZNSt3__114__split_bufferIN5Catch5Clara11CommandLineINS1_10ConfigDataEE3ArgERNS_9allocatorIS6_EEE5clearEv
FNDA:0,_ZNSt3__114__split_bufferIN5Catch5Clara6Parser5TokenERNS_9allocatorIS4_EEE5clearEv
FNDA:21,_ZNSt3__114__split_bufferIN5Catch3PtrINS1_16TestCaseTracking8ITrackerEEERNS_9allocatorIS5_EEE5clearEv
FNDA:3,_ZNSt3__114__split_bufferIN5Catch11SectionInfoERNS_9allocatorIS2_EEE5clearEv
FNDA:0,_ZNSt3__114__split_bufferIN5Catch3PtrINS1_22CumulativeReporterBase11SectionNodeEEERNS_9allocatorIS5_EEE5clearEv
FNDA:0,_ZNSt3__114__split_bufferIN5Catch14AssertionStatsERNS_9allocatorIS2_EEE5clearEv
FNDA:0,_ZNSt3__114__split_bufferIN5Catch3PtrINS1_22CumulativeReporterBase4NodeINS1_13TestCaseStatsENS3_11SectionNodeEEEEERNS_9allocatorIS8_EEE5clearEv
FNDA:0,_ZNSt3__114__split_bufferIN5Catch3PtrINS1_22CumulativeReporterBase4NodeINS1_14TestGroupStatsENS4_INS1_13TestCaseStatsENS3_11SectionNodeEEEEEEERNS_9allocatorISA_EEE5clearEv
FNDA:0,_ZNSt3__114__split_bufferIN5Catch3PtrINS1_22CumulativeReporterBase4NodeINS1_12TestRunStatsENS4_INS1_14TestGroupStatsENS4_INS1_13TestCaseStatsENS3_11SectionNodeEEEEEEEEERNS_9allocatorISC_EEE5clearEv
FNDA:0,_ZNSt3__114__split_bufferIN5Catch15ConsoleReporter13SummaryColumnERNS_9allocatorIS3_EEE5clearEv
FNDA:1,_ZNSt3__114__split_bufferIN5Catch8TestCaseERNS_9allocatorIS2_EEE5clearEv
FNDA:0,_ZNKSt3__114__split_bufferIN5Catch11MessageInfoERNS_9allocatorIS2_EEE8capacityEv
FNDA:9,_ZNKSt3__114__split_bufferINS_12basic_stringIcNS_11char_traitsIcEENS_9allocatorIcEEEERNS4_IS6_EEE8capacityEv
FNDA:2,_ZNKSt3__114__split_bufferIPN5Catch16TestCaseTracking8ITrackerERNS_9allocatorIS4_EEE8capacityEv
FNDA:0,_ZNKSt3__114__split_bufferIN5Catch14SectionEndInfoERNS_9allocatorIS2_EEE8capacityEv
FNDA:0,_ZNKSt3__114__split_bufferImRNS_9allocatorImEEE8capacityEv
FNDA:0,_ZNKSt3__114__split_bufferIN5Catch8TestSpec6FilterERNS_9allocatorIS3_EEE8capacityEv
FNDA:0,_ZNKSt3__114__split_bufferIN5Catch3PtrINS1_8TestSpec7PatternEEERNS_9allocatorIS5_EEE8capacityEv
FNDA:0,_ZNKSt3__114__split_bufferIPKN5Catch20IExceptionTranslatorERNS_9allocatorIS4_EEE8capacityEv
FNDA:0,_ZNKSt3__114__split_bufferIN5Catch3PtrINS1_16IReporterFactoryEEERNS_9allocatorIS4_EEE8capacityEv
FNDA:0,_ZNKSt3__114__split_bufferIPN5Catch14IGeneratorInfoERNS_9allocatorIS3_EEE8capacityEv
FNDA:0,_ZNKSt3__114__split_bufferIN5Catch3PtrINS1_18IStreamingReporterEEERNS_9allocatorIS4_EEE8capacityEv
FNDA:5,_ZNKSt3__114__split_bufferIN5Catch5Clara11CommandLineINS1_10ConfigDataEE3ArgERNS_9allocatorIS6_EEE8capacityEv
FNDA:0,_ZNKSt3__114__split_bufferIN5Catch5Clara6Parser5TokenERNS_9allocatorIS4_EEE8capacityEv
FNDA:13,_ZNKSt3__114__split_bufferIN5Catch3PtrINS1_16TestCaseTracking8ITrackerEEERNS_9allocatorIS5_EEE8capacityEv
FNDA:2,_ZNKSt3__114__split_bufferIN5Catch11SectionInfoERNS_9allocatorIS2_EEE8capacityEv
FNDA:0,_ZNKSt3__114__split_bufferIN5Catch3PtrINS1_22CumulativeReporterBase11SectionNodeEEERNS_9allocatorIS5_EEE8capacityEv
FNDA:0,_ZNKSt3__114__split_bufferIN5Catch14AssertionStatsERNS_9allocatorIS2_EEE8capacityEv
FNDA:0,_ZNKSt3__114__split_bufferIN5Catch3PtrINS1_22CumulativeReporterBase4NodeINS1_13TestCaseStatsENS3_11SectionNodeEEEEERNS_9allocatorIS8_EEE8capacityEv
FNDA:0,_ZNKSt3__114__split_bufferIN5Catch3PtrINS1_22CumulativeReporterBase4NodeINS1_14TestGroupStatsENS4_INS1_13TestCaseStatsENS3_11SectionNodeEEEEEEERNS_9allocatorISA_EEE8capacityEv
FNDA:0,_ZNKSt3__114__split_bufferIN5Catch3PtrINS1_22CumulativeReporterBase4NodeINS1_12TestRunStatsENS4_INS1_14TestGroupStatsENS4_INS1_13TestCaseStatsENS3_11SectionNodeEEEEEEEEERNS_9allocatorISC_EEE8capacityEv
FNDA:0,_ZNKSt3__114__split_bufferIN5Catch15ConsoleReporter13SummaryColumnERNS_9allocatorIS3_EEE8capacityEv
FNDA:0,_ZNKSt3__114__split_bufferIN5Catch8TestCaseERNS_9allocatorIS2_EEE8capacityEv
FNDA:0,_ZNSt3__114__split_bufferIN5Catch11MessageInfoERNS_9allocatorIS2_EEE17__destruct_at_endEPS2_
FNDA:43,_ZNSt3__114__split_bufferINS_12basic_stringIcNS_11char_traitsIcEENS_9allocatorIcEEEERNS4_IS6_EEE17__destruct_at_endEPS6_
FNDA:3,_ZNSt3__114__split_bufferIPN5Catch16TestCaseTracking8ITrackerERNS_9allocatorIS4_EEE17__destruct_at_endEPS4_
FNDA:0,_ZNSt3__114__split_bufferIN5Catch14SectionEndInfoERNS_9allocatorIS2_EEE17__destruct_at_endEPS2_
FNDA:0,_ZNSt3__114__split_bufferImRNS_9allocatorImEEE17__destruct_at_endEPm
FNDA:1,_ZNSt3__114__split_bufferIN5Catch8TestSpec6FilterERNS_9allocatorIS3_EEE17__destruct_at_endEPS3_
FNDA:1,_ZNSt3__114__split_bufferIN5Catch3PtrINS1_8TestSpec7PatternEEERNS_9allocatorIS5_EEE17__destruct_at_endEPS5_
FNDA:0,_ZNSt3__114__split_bufferIPKN5Catch20IExceptionTranslatorERNS_9allocatorIS4_EEE17__destruct_at_endEPS4_
FNDA:0,_ZNSt3__114__split_bufferIN5Catch3PtrINS1_16IReporterFactoryEEERNS_9allocatorIS4_EEE17__destruct_at_endEPS4_
FNDA:0,_ZNSt3__114__split_bufferIPN5Catch14IGeneratorInfoERNS_9allocatorIS3_EEE17__destruct_at_endEPS3_
FNDA:0,_ZNSt3__114__split_bufferIN5Catch3PtrINS1_18IStreamingReporterEEERNS_9allocatorIS4_EEE17__destruct_at_endEPS4_
FNDA:6,_ZNSt3__114__split_bufferIN5Catch5Clara11CommandLineINS1_10ConfigDataEE3ArgERNS_9allocatorIS6_EEE17__destruct_at_endEPS6_
FNDA:0,_ZNSt3__114__split_bufferIN5Catch5Clara6Parser5TokenERNS_9allocatorIS4_EEE17__destruct_at_endEPS4_
FNDA:21,_ZNSt3__114__split_bufferIN5Catch3PtrINS1_16TestCaseTracking8ITrackerEEERNS_9allocatorIS5_EEE17__destruct_at_endEPS5_
FNDA:3,_ZNSt3__114__split_bufferIN5Catch11SectionInfoERNS_9allocatorIS2_EEE17__destruct_at_endEPS2_
FNDA:0,_ZNSt3__114__split_bufferIN5Catch3PtrINS1_22CumulativeReporterBase11SectionNodeEEERNS_9allocatorIS5_EEE17__destruct_at_endEPS5_
FNDA:0,_ZNSt3__114__split_bufferIN5Catch14AssertionStatsERNS_9allocatorIS2_EEE17__destruct_at_endEPS2_
FNDA:0,_ZNSt3__114__split_bufferIN5Catch3PtrINS1_22CumulativeReporterBase4NodeINS1_13TestCaseStatsENS3_11SectionNodeEEEEERNS_9allocatorIS8_EEE17__destruct_at_endEPS8_
FNDA:0,_ZNSt3__114__split_bufferIN5Catch3PtrINS1_22CumulativeReporterBase4NodeINS1_14TestGroupStatsENS4_INS1_13TestCaseStatsENS3_11SectionNodeEEEEEEERNS_9allocatorISA_EEE17__destruct_at_endEPSA_
FNDA:0,_ZNSt3__114__split_bufferIN5Catch3PtrINS1_22CumulativeReporterBase4NodeINS1_12TestRunStatsENS4_INS1_14TestGroupStatsENS4_INS1_13TestCaseStatsENS3_11SectionNodeEEEEEEEEERNS_9allocatorISC_EEE17__destruct_at_endEPSC_
FNDA:0,_ZNSt3__114__split_bufferIN5Catch15ConsoleReporter13SummaryColumnERNS_9allocatorIS3_EEE17__destruct_at_endEPS3_
FNDA:1,_ZNSt3__114__split_bufferIN5Catch8TestCaseERNS_9allocatorIS2_EEE17__destruct_at_endEPS2_
FNDA:0,_ZNSt3__114__split_bufferINS_12basic_stringIcNS_11char_traitsIcEENS_9allocatorIcEEEERNS4_IS6_EEE18__construct_at_endINS_11__wrap_iterIPKS6_EEEENS_9enable_ifIXsr21__is_forward_iteratorIT_EE5valueEvE4typeESG_SG_
FNDA:0,_ZNSt3__114__split_bufferIN5Catch11MessageInfoERNS_9allocatorIS2_EEE17__destruct_at_endEPS2_NS_17integral_constantIbLb0EEE
FNDA:43,_ZNSt3__114__split_bufferINS_12basic_stringIcNS_11char_traitsIcEENS_9allocatorIcEEEERNS4_IS6_EEE17__destruct_at_endEPS6_NS_17integral_constantIbLb0EEE
FNDA:3,_ZNSt3__114__split_bufferIPN5Catch16TestCaseTracking8ITrackerERNS_9allocatorIS4_EEE17__destruct_at_endEPS4_NS_17integral_constantIbLb0EEE
FNDA:0,_ZNSt3__114__split_bufferIN5Catch14SectionEndInfoERNS_9allocatorIS2_EEE17__destruct_at_endEPS2_NS_17integral_constantIbLb0EEE
FNDA:0,_ZNSt3__114__split_bufferImRNS_9allocatorImEEE17__destruct_at_endEPmNS_17integral_constantIbLb0EEE
FNDA:1,_ZNSt3__114__split_bufferIN5Catch8TestSpec6FilterERNS_9allocatorIS3_EEE17__destruct_at_endEPS3_NS_17integral_constantIbLb0EEE
FNDA:1,_ZNSt3__114__split_bufferIN5Catch3PtrINS1_8TestSpec7PatternEEERNS_9allocatorIS5_EEE17__destruct_at_endEPS5_NS_17integral_constantIbLb0EEE
FNDA:0,_ZNSt3__114__split_bufferIPKN5Catch20IExceptionTranslatorERNS_9allocatorIS4_EEE17__destruct_at_endEPS4_NS_17integral_constantIbLb0EEE
FNDA:0,_ZNSt3__114__split_bufferIN5Catch3PtrINS1_16IReporterFactoryEEERNS_9allocatorIS4_EEE17__destruct_at_endEPS4_NS_17integral_constantIbLb0EEE
FNDA:0,_ZNSt3__114__split_bufferIPN5Catch14IGeneratorInfoERNS_9allocatorIS3_EEE17__destruct_at_endEPS3_NS_17integral_constantIbLb0EEE
FNDA:0,_ZNSt3__114__split_bufferIN5Catch3PtrINS1_18IStreamingReporterEEERNS_9allocatorIS4_EEE17__destruct_at_endEPS4_NS_17integral_constantIbLb0EEE
FNDA:6,_ZNSt3__114__split_bufferIN5Catch5Clara11CommandLineINS1_10ConfigDataEE3ArgERNS_9allocatorIS6_EEE17__destruct_at_endEPS6_NS_17integral_constantIbLb0EEE
FNDA:0,_ZNSt3__114__split_bufferIN5Catch5Clara6Parser5TokenERNS_9allocatorIS4_EEE17__destruct_at_endEPS4_NS_17integral_constantIbLb0EEE
FNDA:21,_ZNSt3__114__split_bufferIN5Catch3PtrINS1_16TestCaseTracking8ITrackerEEERNS_9allocatorIS5_EEE17__destruct_at_endEPS5_NS_17integral_constantIbLb0EEE
FNDA:3,_ZNSt3__114__split_bufferIN5Catch11SectionInfoERNS_9allocatorIS2_EEE17__destruct_at_endEPS2_NS_17integral_constantIbLb0EEE
FNDA:0,_ZNSt3__114__split_bufferIN5Catch3PtrINS1_22CumulativeReporterBase11SectionNodeEEERNS_9allocatorIS5_EEE17__destruct_at_endEPS5_NS_17integral_constantIbLb0EEE
FNDA:0,_ZNSt3__114__split_bufferIN5Catch14AssertionStatsERNS_9allocatorIS2_EEE17__destruct_at_endEPS2_NS_17integral_constantIbLb0EEE
FNDA:0,_ZNSt3__114__split_bufferIN5Catch3PtrINS1_22CumulativeReporterBase4NodeINS1_13TestCaseStatsENS3_11SectionNodeEEEEERNS_9allocatorIS8_EEE17__destruct_at_endEPS8_NS_17integral_constantIbLb0EEE
FNDA:0,_ZNSt3__114__split_bufferIN5Catch3PtrINS1_22CumulativeReporterBase4NodeINS1_14TestGroupStatsENS4_INS1_13TestCaseStatsENS3_11SectionNodeEEEEEEERNS_9allocatorISA_EEE17__destruct_at_endEPSA_NS_17integral_constantIbLb0EEE
FNDA:0,_ZNSt3__114__split_bufferIN5Catch3PtrINS1_22CumulativeReporterBase4NodeINS1_12TestRunStatsENS4_INS1_14TestGroupStatsENS4_INS1_13TestCaseStatsENS3_11SectionNodeEEEEEEEEERNS_9allocatorISC_EEE17__destruct_at_endEPSC_NS_17integral_constantIbLb0EEE
FNDA:0,_ZNSt3__114__split_bufferIN5Catch15ConsoleReporter13SummaryColumnERNS_9allocatorIS3_EEE17__destruct_at_endEPS3_NS_17integral_constantIbLb0EEE
FNDA:1,_ZNSt3__114__split_bufferIN5Catch8TestCaseERNS_9allocatorIS2_EEE17__destruct_at_endEPS2_NS_17integral_constantIbLb0EEE
FNDA:0,_ZNSt3__114__split_bufferIN5Catch11MessageInfoERNS_9allocatorIS2_EEEC1EmmS5_
FNDA:0,_ZNSt3__114__split_bufferIN5Catch11MessageInfoERNS_9allocatorIS2_EEEC2EmmS5_
FNDA:43,_ZNSt3__114__split_bufferINS_12basic_stringIcNS_11char_traitsIcEENS_9allocatorIcEEEERNS4_IS6_EEEC1EmmS8_
FNDA:43,_ZNSt3__114__split_bufferINS_12basic_stringIcNS_11char_traitsIcEENS_9allocatorIcEEEERNS4_IS6_EEEC2EmmS8_
FNDA:3,_ZNSt3__114__split_bufferIPN5Catch16TestCaseTracking8ITrackerERNS_9allocatorIS4_EEEC1EmmS7_
FNDA:3,_ZNSt3__114__split_bufferIPN5Catch16TestCaseTracking8ITrackerERNS_9allocatorIS4_EEEC2EmmS7_
FNDA:0,_ZNSt3__114__split_bufferIN5Catch14SectionEndInfoERNS_9allocatorIS2_EEEC1EmmS5_
FNDA:0,_ZNSt3__114__split_bufferIN5Catch14SectionEndInfoERNS_9allocatorIS2_EEEC2EmmS5_
FNDA:0,_ZNSt3__114__split_bufferImRNS_9allocatorImEEEC1EmmS3_
FNDA:0,_ZNSt3__114__split_bufferImRNS_9allocatorImEEEC2EmmS3_
FNDA:1,_ZNSt3__114__split_bufferIN5Catch8TestSpec6FilterERNS_9allocatorIS3_EEEC1EmmS6_
FNDA:1,_ZNSt3__114__split_bufferIN5Catch8TestSpec6FilterERNS_9allocatorIS3_EEEC2EmmS6_
FNDA:1,_ZNSt3__114__split_bufferIN5Catch3PtrINS1_8TestSpec7PatternEEERNS_9allocatorIS5_EEEC1EmmS8_
FNDA:1,_ZNSt3__114__split_bufferIN5Catch3PtrINS1_8TestSpec7PatternEEERNS_9allocatorIS5_EEEC2EmmS8_
FNDA:0,_ZNSt3__114__split_bufferIPKN5Catch20IExceptionTranslatorERNS_9allocatorIS4_EEEC1EmmS7_
FNDA:0,_ZNSt3__114__split_bufferIPKN5Catch20IExceptionTranslatorERNS_9allocatorIS4_EEEC2EmmS7_
FNDA:0,_ZNSt3__114__split_bufferIN5Catch3PtrINS1_16IReporterFactoryEEERNS_9allocatorIS4_EEEC1EmmS7_
FNDA:0,_ZNSt3__114__split_bufferIN5Catch3PtrINS1_16IReporterFactoryEEERNS_9allocatorIS4_EEEC2EmmS7_
FNDA:0,_ZNSt3__114__split_bufferIPN5Catch14IGeneratorInfoERNS_9allocatorIS3_EEEC1EmmS6_
FNDA:0,_ZNSt3__114__split_bufferIPN5Catch14IGeneratorInfoERNS_9allocatorIS3_EEEC2EmmS6_
FNDA:0,_ZNSt3__114__split_bufferIN5Catch3PtrINS1_18IStreamingReporterEEERNS_9allocatorIS4_EEEC1EmmS7_
FNDA:0,_ZNSt3__114__split_bufferIN5Catch3PtrINS1_18IStreamingReporterEEERNS_9allocatorIS4_EEEC2EmmS7_
FNDA:6,_ZNSt3__114__split_bufferIN5Catch5Clara11CommandLineINS1_10ConfigDataEE3ArgERNS_9allocatorIS6_EEEC1EmmS9_
FNDA:6,_ZNSt3__114__split_bufferIN5Catch5Clara11CommandLineINS1_10ConfigDataEE3ArgERNS_9allocatorIS6_EEEC2EmmS9_
FNDA:0,_ZNSt3__114__split_bufferIN5Catch5Clara6Parser5TokenERNS_9allocatorIS4_EEEC1EmmS7_
FNDA:0,_ZNSt3__114__split_bufferIN5Catch5Clara6Parser5TokenERNS_9allocatorIS4_EEEC2EmmS7_
FNDA:21,_ZNSt3__114__split_bufferIN5Catch3PtrINS1_16TestCaseTracking8ITrackerEEERNS_9allocatorIS5_EEEC1EmmS8_
FNDA:21,_ZNSt3__114__split_bufferIN5Catch3PtrINS1_16TestCaseTracking8ITrackerEEERNS_9allocatorIS5_EEEC2EmmS8_
FNDA:3,_ZNSt3__114__split_bufferIN5Catch11SectionInfoERNS_9allocatorIS2_EEEC1EmmS5_
FNDA:3,_ZNSt3__114__split_bufferIN5Catch11SectionInfoERNS_9allocatorIS2_EEEC2EmmS5_
FNDA:0,_ZNSt3__114__split_bufferIN5Catch3PtrINS1_22CumulativeReporterBase11SectionNodeEEERNS_9allocatorIS5_EEEC1EmmS8_
FNDA:0,_ZNSt3__114__split_bufferIN5Catch3PtrINS1_22CumulativeReporterBase11SectionNodeEEERNS_9allocatorIS5_EEEC2EmmS8_
FNDA:0,_ZNSt3__114__split_bufferIN5Catch14AssertionStatsERNS_9allocatorIS2_EEEC1EmmS5_
FNDA:0,_ZNSt3__114__split_bufferIN5Catch14AssertionStatsERNS_9allocatorIS2_EEEC2EmmS5_
FNDA:0,_ZNSt3__114__split_bufferIN5Catch3PtrINS1_22CumulativeReporterBase4NodeINS1_13TestCaseStatsENS3_11SectionNodeEEEEERNS_9allocatorIS8_EEEC1EmmSB_
FNDA:0,_ZNSt3__114__split_bufferIN5Catch3PtrINS1_22CumulativeReporterBase4NodeINS1_13TestCaseStatsENS3_11SectionNodeEEEEERNS_9allocatorIS8_EEEC2EmmSB_
FNDA:0,_ZNSt3__114__split_bufferIN5Catch3PtrINS1_22CumulativeReporterBase4NodeINS1_14TestGroupStatsENS4_INS1_13TestCaseStatsENS3_11SectionNodeEEEEEEERNS_9allocatorISA_EEEC1EmmSD_
FNDA:0,_ZNSt3__114__split_bufferIN5Catch3PtrINS1_22CumulativeReporterBase4NodeINS1_14TestGroupStatsENS4_INS1_13TestCaseStatsENS3_11SectionNodeEEEEEEERNS_9allocatorISA_EEEC2EmmSD_
FNDA:0,_ZNSt3__114__split_bufferIN5Catch3PtrINS1_22CumulativeReporterBase4NodeINS1_12TestRunStatsENS4_INS1_14TestGroupStatsENS4_INS1_13TestCaseStatsENS3_11SectionNodeEEEEEEEEERNS_9allocatorISC_EEEC1EmmSF_
FNDA:0,_ZNSt3__114__split_bufferIN5Catch3PtrINS1_22CumulativeReporterBase4NodeINS1_12TestRunStatsENS4_INS1_14TestGroupStatsENS4_INS1_13TestCaseStatsENS3_11SectionNodeEEEEEEEEERNS_9allocatorISC_EEEC2EmmSF_
FNDA:0,_ZNSt3__114__split_bufferIN5Catch15ConsoleReporter13SummaryColumnERNS_9allocatorIS3_EEEC1EmmS6_
FNDA:0,_ZNSt3__114__split_bufferIN5Catch15ConsoleReporter13SummaryColumnERNS_9allocatorIS3_EEEC2EmmS6_
FNDA:1,_ZNSt3__114__split_bufferIN5Catch8TestCaseERNS_9allocatorIS2_EEEC1EmmS5_
FNDA:1,_ZNSt3__114__split_bufferIN5Catch8TestCaseERNS_9allocatorIS2_EEEC2EmmS5_
FNDA:0,_ZNSt3__114__split_bufferIN5Catch11MessageInfoERNS_9allocatorIS2_EEED1Ev
FNDA:0,_ZNSt3__114__split_bufferIN5Catch11MessageInfoERNS_9allocatorIS2_EEED2Ev
FNDA:43,_ZNSt3__114__split_bufferINS_12basic_stringIcNS_11char_traitsIcEENS_9allocatorIcEEEERNS4_IS6_EEED1Ev
FNDA:43,_ZNSt3__114__split_bufferINS_12basic_stringIcNS_11char_traitsIcEENS_9allocatorIcEEEERNS4_IS6_EEED2Ev
FNDA:3,_ZNSt3__114__split_bufferIPN5Catch16TestCaseTracking8ITrackerERNS_9allocatorIS4_EEED1Ev
FNDA:3,_ZNSt3__114__split_bufferIPN5Catch16TestCaseTracking8ITrackerERNS_9allocatorIS4_EEED2Ev
FNDA:0,_ZNSt3__114__split_bufferIN5Catch14SectionEndInfoERNS_9allocatorIS2_EEED1Ev
FNDA:0,_ZNSt3__114__split_bufferIN5Catch14SectionEndInfoERNS_9allocatorIS2_EEED2Ev
FNDA:0,_ZNSt3__114__split_bufferImRNS_9allocatorImEEED1Ev
FNDA:0,_ZNSt3__114__split_bufferImRNS_9allocatorImEEED2Ev
FNDA:1,_ZNSt3__114__split_bufferIN5Catch8TestSpec6FilterERNS_9allocatorIS3_EEED1Ev
FNDA:1,_ZNSt3__114__split_bufferIN5Catch8TestSpec6FilterERNS_9allocatorIS3_EEED2Ev
FNDA:1,_ZNSt3__114__split_bufferIN5Catch3PtrINS1_8TestSpec7PatternEEERNS_9allocatorIS5_EEED1Ev
FNDA:1,_ZNSt3__114__split_bufferIN5Catch3PtrINS1_8TestSpec7PatternEEERNS_9allocatorIS5_EEED2Ev
FNDA:0,_ZNSt3__114__split_bufferIPKN5Catch20IExceptionTranslatorERNS_9allocatorIS4_EEED1Ev
FNDA:0,_ZNSt3__114__split_bufferIPKN5Catch20IExceptionTranslatorERNS_9allocatorIS4_EEED2Ev
FNDA:0,_ZNSt3__114__split_bufferIN5Catch3PtrINS1_16IReporterFactoryEEERNS_9allocatorIS4_EEED1Ev
FNDA:0,_ZNSt3__114__split_bufferIN5Catch3PtrINS1_16IReporterFactoryEEERNS_9allocatorIS4_EEED2Ev
FNDA:0,_ZNSt3__114__split_bufferIPN5Catch14IGeneratorInfoERNS_9allocatorIS3_EEED1Ev
FNDA:0,_ZNSt3__114__split_bufferIPN5Catch14IGeneratorInfoERNS_9allocatorIS3_EEED2Ev
FNDA:0,_ZNSt3__114__split_bufferIN5Catch3PtrINS1_18IStreamingReporterEEERNS_9allocatorIS4_EEED1Ev
FNDA:0,_ZNSt3__114__split_bufferIN5Catch3PtrINS1_18IStreamingReporterEEERNS_9allocatorIS4_EEED2Ev
FNDA:6,_ZNSt3__114__split_bufferIN5Catch5Clara11CommandLineINS1_10ConfigDataEE3ArgERNS_9allocatorIS6_EEED1Ev
FNDA:6,_ZNSt3__114__split_bufferIN5Catch5Clara11CommandLineINS1_10ConfigDataEE3ArgERNS_9allocatorIS6_EEED2Ev
FNDA:0,_ZNSt3__114__split_bufferIN5Catch5Clara6Parser5TokenERNS_9allocatorIS4_EEED1Ev
FNDA:0,_ZNSt3__114__split_bufferIN5Catch5Clara6Parser5TokenERNS_9allocatorIS4_EEED2Ev
FNDA:21,_ZNSt3__114__split_bufferIN5Catch3PtrINS1_16TestCaseTracking8ITrackerEEERNS_9allocatorIS5_EEED1Ev
FNDA:21,_ZNSt3__114__split_bufferIN5Catch3PtrINS1_16TestCaseTracking8ITrackerEEERNS_9allocatorIS5_EEED2Ev
FNDA:3,_ZNSt3__114__split_bufferIN5Catch11SectionInfoERNS_9allocatorIS2_EEED1Ev
FNDA:3,_ZNSt3__114__split_bufferIN5Catch11SectionInfoERNS_9allocatorIS2_EEED2Ev
FNDA:0,_ZNSt3__114__split_bufferIN5Catch3PtrINS1_22CumulativeReporterBase11SectionNodeEEERNS_9allocatorIS5_EEED1Ev
FNDA:0,_ZNSt3__114__split_bufferIN5Catch3PtrINS1_22CumulativeReporterBase11SectionNodeEEERNS_9allocatorIS5_EEED2Ev
FNDA:0,_ZNSt3__114__split_bufferIN5Catch14AssertionStatsERNS_9allocatorIS2_EEED1Ev
FNDA:0,_ZNSt3__114__split_bufferIN5Catch14AssertionStatsERNS_9allocatorIS2_EEED2Ev
FNDA:0,_ZNSt3__114__split_bufferIN5Catch3PtrINS1_22CumulativeReporterBase4NodeINS1_13TestCaseStatsENS3_11SectionNodeEEEEERNS_9allocatorIS8_EEED1Ev
FNDA:0,_ZNSt3__114__split_bufferIN5Catch3PtrINS1_22CumulativeReporterBase4NodeINS1_13TestCaseStatsENS3_11SectionNodeEEEEERNS_9allocatorIS8_EEED2Ev
FNDA:0,_ZNSt3__114__split_bufferIN5Catch3PtrINS1_22CumulativeReporterBase4NodeINS1_14TestGroupStatsENS4_INS1_13TestCaseStatsENS3_11SectionNodeEEEEEEERNS_9allocatorISA_EEED1Ev
FNDA:0,_ZNSt3__114__split_bufferIN5Catch3PtrINS1_22CumulativeReporterBase4NodeINS1_14TestGroupStatsENS4_INS1_13TestCaseStatsENS3_11SectionNodeEEEEEEERNS_9allocatorISA_EEED2Ev
FNDA:0,_ZNSt3__114__split_bufferIN5Catch3PtrINS1_22CumulativeReporterBase4NodeINS1_12TestRunStatsENS4_INS1_14TestGroupStatsENS4_INS1_13TestCaseStatsENS3_11SectionNodeEEEEEEEEERNS_9allocatorISC_EEED1Ev
FNDA:0,_ZNSt3__114__split_bufferIN5Catch3PtrINS1_22CumulativeReporterBase4NodeINS1_12TestRunStatsENS4_INS1_14TestGroupStatsENS4_INS1_13TestCaseStatsENS3_11SectionNodeEEEEEEEEERNS_9allocatorISC_EEED2Ev
FNDA:0,_ZNSt3__114__split_bufferIN5Catch15ConsoleReporter13SummaryColumnERNS_9allocatorIS3_EEED1Ev
FNDA:0,_ZNSt3__114__split_bufferIN5Catch15ConsoleReporter13SummaryColumnERNS_9allocatorIS3_EEED2Ev
FNDA:1,_ZNSt3__114__split_bufferIN5Catch8TestCaseERNS_9allocatorIS2_EEED1Ev
FNDA:1,_ZNSt3__114__split_bufferIN5Catch8TestCaseERNS_9allocatorIS2_EEED2Ev
FNF:243
FNH:82
DA:54,179
DA:56,158
DA:57,31
DA:86,79
DA:89,31
DA:141,79
DA:265,0
DA:266,0
DA:268,0
DA:269,0
DA:270,0
DA:271,0
DA:295,296
DA:296,69
DA:297,79
DA:309,79
DA:310,158
DA:311,237
DA:312,79
DA:313,79
DA:314,158
DA:340,79
DA:341,79
DA:342,79
DA:343,31
DA:344,158
LF:26
LH:20
end_of_record
SF:/Library/Developer/CommandLineTools/usr/include/c++/v1/__string
FN:206,_ZNSt3__111char_traitsIcE6assignERcRKc
FN:207,_ZNSt3__111char_traitsIcE2eqEcc
FN:215,_ZNSt3__111char_traitsIcE6lengthEPKc
FN:228,_ZNSt3__111char_traitsIcE7not_eofEi
FN:230,_ZNSt3__111char_traitsIcE12to_char_typeEi
FN:232,_ZNSt3__111char_traitsIcE11to_int_typeEc
FN:234,_ZNSt3__111char_traitsIcE11eq_int_typeEii
FN:236,_ZNSt3__111char_traitsIcE3eofEv
FN:242,_ZNSt3__111char_traitsIcE7compareEPKcS3_m
FN:264,_ZNSt3__111char_traitsIcE4findEPKcmRS2_
FN:354,_ZNSt3__111char_traitsIwE6lengthEPKw
FN:650,_ZNSt3__118__search_substringIcNS_11char_traitsIcEEEEPKT_S5_S5_S5_S5_
FN:689,_ZNSt3__110__str_findIcmNS_11char_traitsIcEELm18446744073709551615EEET0_PKT_S3_S6_S3_S3_
FN:730,_ZNSt3__111__str_rfindIcmNS_11char_traitsIcEELm18446744073709551615EEET0_PKT_S3_S6_S3_S3_
FN:765,_ZNSt3__118__str_find_last_ofIcmNS_11char_traitsIcEELm18446744073709551615EEET0_PKT_S3_S6_S3_S3_
FN:788,_ZNSt3__123__str_find_first_not_ofIcmNS_11char_traitsIcEELm18446744073709551615EEET0_PKT_S3_S6_S3_S3_
FN:821,_ZNSt3__122__str_find_last_not_ofIcmNS_11char_traitsIcEELm18446744073709551615EEET0_PKT_S3_S6_S3_S3_
FN:837,_ZNSt3__122__str_find_last_not_ofIcmNS_11char_traitsIcEELm18446744073709551615EEET0_PKT_S3_S4_S3_
FNDA:186,_ZNSt3__111char_traitsIcE6assignERcRKc
FNDA:592,_ZNSt3__111char_traitsIcE2eqEcc
FNDA:348,_ZNSt3__111char_traitsIcE6lengthEPKc
FNDA:0,_ZNSt3__111char_traitsIcE7not_eofEi
FNDA:1077,_ZNSt3__111char_traitsIcE12to_char_typeEi
FNDA:1509,_ZNSt3__111char_traitsIcE11to_int_typeEc
FNDA:1107,_ZNSt3__111char_traitsIcE11eq_int_typeEii
FNDA:1141,_ZNSt3__111char_traitsIcE3eofEv
FNDA:39,_ZNSt3__111char_traitsIcE7compareEPKcS3_m
FNDA:6,_ZNSt3__111char_traitsIcE4findEPKcmRS2_
FNDA:0,_ZNSt3__111char_traitsIwE6lengthEPKw
FNDA:0,_ZNSt3__118__search_substringIcNS_11char_traitsIcEEEEPKT_S5_S5_S5_S5_
FNDA:0,_ZNSt3__110__str_findIcmNS_11char_traitsIcEELm18446744073709551615EEET0_PKT_S3_S6_S3_S3_
FNDA:0,_ZNSt3__111__str_rfindIcmNS_11char_traitsIcEELm18446744073709551615EEET0_PKT_S3_S6_S3_S3_
FNDA:1,_ZNSt3__118__str_find_last_ofIcmNS_11char_traitsIcEELm18446744073709551615EEET0_PKT_S3_S6_S3_S3_
FNDA:0,_ZNSt3__123__str_find_first_not_ofIcmNS_11char_traitsIcEELm18446744073709551615EEET0_PKT_S3_S6_S3_S3_
FNDA:0,_ZNSt3__122__str_find_last_not_ofIcmNS_11char_traitsIcEELm18446744073709551615EEET0_PKT_S3_S6_S3_S3_
FNDA:0,_ZNSt3__122__str_find_last_not_ofIcmNS_11char_traitsIcEELm18446744073709551615EEET0_PKT_S3_S4_S3_
FNF:18
FNH:10
DA:206,186
DA:208,592
DA:215,348
DA:229,0
DA:231,1077
DA:233,1509
DA:235,1107
DA:237,2282
DA:244,39
DA:245,0
DA:249,78
DA:260,39
DA:266,6
DA:267,0
DA:271,12
DA:281,6
DA:359,0
DA:366,0
DA:654,0
DA:655,0
DA:656,0
DA:658,0
DA:659,0
DA:660,0
DA:663,0
DA:664,0
DA:665,0
DA:667,0
DA:668,0
DA:671,0
DA:672,0
DA:673,0
DA:680,0
DA:681,0
DA:683,0
DA:685,0
DA:692,0
DA:693,0
DA:695,0
DA:696,0
DA:698,0
DA:699,0
DA:701,0
DA:702,0
DA:703,0
DA:704,0
DA:733,0
DA:734,0
DA:735,0
DA:737,0
DA:738,0
DA:739,0
DA:741,0
DA:742,0
DA:743,0
DA:744,0
DA:768,1
DA:770,1
DA:771,0
DA:773,1
DA:774,12
DA:776,6
DA:777,6
DA:778,1
DA:780,0
DA:781,0
DA:782,1
DA:791,0
DA:793,0
DA:794,0
DA:795,0
DA:796,0
DA:797,0
DA:798,0
DA:799,0
DA:824,0
DA:825,0
DA:827,0
DA:828,0
DA:829,0
DA:830,0
DA:831,0
DA:832,0
DA:840,0
DA:841,0
DA:843,0
DA:844,0
DA:845,0
DA:846,0
DA:847,0
DA:848,0
LF:91
LH:21
end_of_record
SF:/Library/Developer/CommandLineTools/usr/include/c++/v1/__tree
FN:76,_ZNSt3__120__tree_is_left_childIPNS_16__tree_node_baseIPvEEEEbT_
FN:142,_ZNSt3__110__tree_minIPNS_16__tree_node_baseIPvEEEET_S5_
FN:154,_ZNSt3__110__tree_maxIPNS_16__tree_node_baseIPvEEEET_S5_
FN:177,_ZNSt3__116__tree_next_iterIPNS_15__tree_end_nodeIPNS_16__tree_node_baseIPvEEEES5_EET_T0_
FN:192,_ZNSt3__116__tree_prev_iterIPNS_16__tree_node_baseIPvEEPNS_15__tree_end_nodeIS4_EEEET_T0_
FN:206,_ZNSt3__111__tree_leafIPNS_16__tree_node_baseIPvEEEET_S5_
FN:230,_ZNSt3__118__tree_left_rotateIPNS_16__tree_node_baseIPvEEEEvT_
FN:250,_ZNSt3__119__tree_right_rotateIPNS_16__tree_node_baseIPvEEEEvT_
FN:275,_ZNSt3__127__tree_balance_after_insertIPNS_16__tree_node_baseIPvEEEEvT_S5_
FN:555,_ZNSt3__122__tree_key_value_typesINS_12basic_stringIcNS_11char_traitsIcEENS_9allocatorIcEEEEE9__get_keyERKS6_
FN:555,_ZNSt3__122__tree_key_value_typesIN5Catch8TestCaseEE9__get_keyERKS2_
FN:559,_ZNSt3__122__tree_key_value_typesINS_12basic_stringIcNS_11char_traitsIcEENS_9allocatorIcEEEEE11__get_valueERKS6_
FN:563,_ZNSt3__122__tree_key_value_typesIN5Catch8TestCaseEE9__get_ptrERS2_
FN:563,_ZNSt3__122__tree_key_value_typesINS_12basic_stringIcNS_11char_traitsIcEENS_9allocatorIcEEEEE9__get_ptrERS6_
FN:595,_ZNSt3__122__tree_key_value_typesINS_12__value_typeINS_12basic_stringIcNS_11char_traitsIcEENS_9allocatorIcEEEEN5Catch8TagAliasEEEE9__get_keyIKNS_4pairIKS7_S9_EEEENS_9enable_ifIXsr17__is_same_uncvrefIT_SF_EE5valueERSE_E4typeERSI_
FN:595,_ZNSt3__122__tree_key_value_typesINS_12__value_typeINS_12basic_stringIcNS_11char_traitsIcEENS_9allocatorIcEEEEPN5Catch18IGeneratorsForTestEEEE9__get_keyIKNS_4pairIKS7_SA_EEEENS_9enable_ifIXsr17__is_same_uncvrefIT_SG_EE5valueERSF_E4typeERSJ_
FN:595,_ZNSt3__122__tree_key_value_typesINS_12__value_typeINS_12basic_stringIcNS_11char_traitsIcEENS_9allocatorIcEEEEN5Catch7TagInfoEEEE9__get_keyIKNS_4pairIKS7_S9_EEEENS_9enable_ifIXsr17__is_same_uncvrefIT_SF_EE5valueERSE_E4typeERSI_
FN:595,_ZNSt3__122__tree_key_value_typesINS_12__value_typeINS_12basic_stringIcNS_11char_traitsIcEENS_9allocatorIcEEEEPN5Catch14IGeneratorInfoEEEE9__get_keyIKNS_4pairIKS7_SA_EEEENS_9enable_ifIXsr17__is_same_uncvrefIT_SG_EE5valueERSF_E4typeERSJ_
FN:595,_ZNSt3__122__tree_key_value_typesINS_12__value_typeINS_12basic_stringIcNS_11char_traitsIcEENS_9allocatorIcEEEEN5Catch3PtrINS8_16IReporterFactoryEEEEEE9__get_keyIKNS_4pairIKS7_SB_EEEENS_9enable_ifIXsr17__is_same_uncvrefIT_SH_EE5valueERSG_E4typeERSK_
FN:614,_ZNSt3__122__tree_key_value_typesINS_12__value_typeINS_12basic_stringIcNS_11char_traitsIcEENS_9allocatorIcEEEEN5Catch8TagAliasEEEE9__get_ptrERSA_
FN:614,_ZNSt3__122__tree_key_value_typesINS_12__value_typeINS_12basic_stringIcNS_11char_traitsIcEENS_9allocatorIcEEEEN5Catch7TagInfoEEEE9__get_ptrERSA_
FN:614,_ZNSt3__122__tree_key_value_typesINS_12__value_typeIiN5Catch5Clara11CommandLineINS2_10ConfigDataEE3ArgEEEE9__get_ptrERS8_
FN:614,_ZNSt3__122__tree_key_value_typesINS_12__value_typeINS_12basic_stringIcNS_11char_traitsIcEENS_9allocatorIcEEEEN5Catch3PtrINS8_16IReporterFactoryEEEEEE9__get_ptrERSC_
FN:614,_ZNSt3__122__tree_key_value_typesINS_12__value_typeINS_12basic_stringIcNS_11char_traitsIcEENS_9allocatorIcEEEEPN5Catch18IGeneratorsForTestEEEE9__get_ptrERSB_
FN:614,_ZNSt3__122__tree_key_value_typesINS_12__value_typeINS_12basic_stringIcNS_11char_traitsIcEENS_9allocatorIcEEEEPN5Catch14IGeneratorInfoEEEE9__get_ptrERSB_
FN:718,_ZNSt3__115__tree_end_nodeIPNS_16__tree_node_baseIPvEEEC1Ev
FN:718,_ZNSt3__115__tree_end_nodeIPNS_16__tree_node_baseIPvEEEC2Ev
FN:736,_ZNKSt3__116__tree_node_baseIPvE15__parent_unsafeEv
FN:739,_ZNSt3__116__tree_node_baseIPvE12__set_parentEPS2_
FN:783,_ZNSt3__122__tree_node_destructorINS_9allocatorINS_11__tree_nodeINS_12__value_typeINS_12basic_stringIcNS_11char_traitsIcEENS1_IcEEEEPN5Catch14IGeneratorInfoEEEPvEEEEEC2ERSF_b
FN:783,_ZNSt3__122__tree_node_destructorINS_9allocatorINS_11__tree_nodeINS_12__value_typeINS_12basic_stringIcNS_11char_traitsIcEENS1_IcEEEEPN5Catch14IGeneratorInfoEEEPvEEEEEC1ERSF_b
FN:783,_ZNSt3__122__tree_node_destructorINS_9allocatorINS_11__tree_nodeINS_12__value_typeINS_12basic_stringIcNS_11char_traitsIcEENS1_IcEEEEN5Catch8TagAliasEEEPvEEEEEC2ERSE_b
FN:783,_ZNSt3__122__tree_node_destructorINS_9allocatorINS_11__tree_nodeINS_12__value_typeINS_12basic_stringIcNS_11char_traitsIcEENS1_IcEEEEN5Catch8TagAliasEEEPvEEEEEC1ERSE_b
FN:783,_ZNSt3__122__tree_node_destructorINS_9allocatorINS_11__tree_nodeINS_12__value_typeINS_12basic_stringIcNS_11char_traitsIcEENS1_IcEEEEN5Catch7TagInfoEEEPvEEEEEC1ERSE_b
FN:783,_ZNSt3__122__tree_node_destructorINS_9allocatorINS_11__tree_nodeINS_12basic_stringIcNS_11char_traitsIcEENS1_IcEEEEPvEEEEEC1ERSA_b
FN:783,_ZNSt3__122__tree_node_destructorINS_9allocatorINS_11__tree_nodeINS_12__value_typeINS_12basic_stringIcNS_11char_traitsIcEENS1_IcEEEEN5Catch7TagInfoEEEPvEEEEEC2ERSE_b
FN:783,_ZNSt3__122__tree_node_destructorINS_9allocatorINS_11__tree_nodeINS_12basic_stringIcNS_11char_traitsIcEENS1_IcEEEEPvEEEEEC2ERSA_b
FN:783,_ZNSt3__122__tree_node_destructorINS_9allocatorINS_11__tree_nodeINS_12__value_typeINS_12basic_stringIcNS_11char_traitsIcEENS1_IcEEEEN5Catch3PtrINS9_16IReporterFactoryEEEEEPvEEEEEC1ERSG_b
FN:783,_ZNSt3__122__tree_node_destructorINS_9allocatorINS_11__tree_nodeINS_12__value_typeINS_12basic_stringIcNS_11char_traitsIcEENS1_IcEEEEPN5Catch18IGeneratorsForTestEEEPvEEEEEC2ERSF_b
FN:783,_ZNSt3__122__tree_node_destructorINS_9allocatorINS_11__tree_nodeIN5Catch8TestCaseEPvEEEEEC2ERS7_b
FN:783,_ZNSt3__122__tree_node_destructorINS_9allocatorINS_11__tree_nodeINS_12__value_typeINS_12basic_stringIcNS_11char_traitsIcEENS1_IcEEEEPN5Catch18IGeneratorsForTestEEEPvEEEEEC1ERSF_b
FN:783,_ZNSt3__122__tree_node_destructorINS_9allocatorINS_11__tree_nodeIN5Catch8TestCaseEPvEEEEEC1ERS7_b
FN:783,_ZNSt3__122__tree_node_destructorINS_9allocatorINS_11__tree_nodeINS_12__value_typeINS_12basic_stringIcNS_11char_traitsIcEENS1_IcEEEEN5Catch3PtrINS9_16IReporterFactoryEEEEEPvEEEEEC2ERSG_b
FN:789,_ZNSt3__122__tree_node_destructorINS_9allocatorINS_11__tree_nodeIN5Catch8TestCaseEPvEEEEEclEPS6_
FN:789,_ZNSt3__122__tree_node_destructorINS_9allocatorINS_11__tree_nodeINS_12basic_stringIcNS_11char_traitsIcEENS1_IcEEEEPvEEEEEclEPS9_
FN:789,_ZNSt3__122__tree_node_destructorINS_9allocatorINS_11__tree_nodeINS_12__value_typeINS_12basic_stringIcNS_11char_traitsIcEENS1_IcEEEEN5Catch8TagAliasEEEPvEEEEEclEPSD_
FN:789,_ZNSt3__122__tree_node_destructorINS_9allocatorINS_11__tree_nodeINS_12__value_typeINS_12basic_stringIcNS_11char_traitsIcEENS1_IcEEEEN5Catch3PtrINS9_16IReporterFactoryEEEEEPvEEEEEclEPSF_
FN:789,_ZNSt3__122__tree_node_destructorINS_9allocatorINS_11__tree_nodeINS_12__value_typeINS_12basic_stringIcNS_11char_traitsIcEENS1_IcEEEEPN5Catch14IGeneratorInfoEEEPvEEEEEclEPSE_
FN:789,_ZNSt3__122__tree_node_destructorINS_9allocatorINS_11__tree_nodeINS_12__value_typeINS_12basic_stringIcNS_11char_traitsIcEENS1_IcEEEEN5Catch7TagInfoEEEPvEEEEEclEPSD_
FN:789,_ZNSt3__122__tree_node_destructorINS_9allocatorINS_11__tree_nodeINS_12__value_typeINS_12basic_stringIcNS_11char_traitsIcEENS1_IcEEEEPN5Catch18IGeneratorsForTestEEEPvEEEEEclEPSE_
FN:826,_ZNKSt3__115__tree_iteratorINS_12__value_typeINS_12basic_stringIcNS_11char_traitsIcEENS_9allocatorIcEEEEPN5Catch18IGeneratorsForTestEEEPNS_11__tree_nodeISB_PvEElEdeEv
FN:826,_ZNKSt3__115__tree_iteratorINS_12__value_typeINS_12basic_stringIcNS_11char_traitsIcEENS_9allocatorIcEEEEPN5Catch14IGeneratorInfoEEEPNS_11__tree_nodeISB_PvEElEdeEv
FN:826,_ZNKSt3__115__tree_iteratorINS_12__value_typeINS_12basic_stringIcNS_11char_traitsIcEENS_9allocatorIcEEEEN5Catch7TagInfoEEEPNS_11__tree_nodeISA_PvEElEdeEv
FN:828,_ZNKSt3__115__tree_iteratorINS_12__value_typeINS_12basic_stringIcNS_11char_traitsIcEENS_9allocatorIcEEEEN5Catch7TagInfoEEEPNS_11__tree_nodeISA_PvEElEptEv
FN:852,_ZNSt3__1eqERKNS_15__tree_iteratorINS_12__value_typeINS_12basic_stringIcNS_11char_traitsIcEENS_9allocatorIcEEEEPN5Catch18IGeneratorsForTestEEEPNS_11__tree_nodeISB_PvEElEESI_
FN:852,_ZNSt3__1eqERKNS_15__tree_iteratorINS_12__value_typeINS_12basic_stringIcNS_11char_traitsIcEENS_9allocatorIcEEEEPN5Catch14IGeneratorInfoEEEPNS_11__tree_nodeISB_PvEElEESI_
FN:852,_ZNSt3__1eqERKNS_15__tree_iteratorINS_12__value_typeINS_12basic_stringIcNS_11char_traitsIcEENS_9allocatorIcEEEEN5Catch7TagInfoEEEPNS_11__tree_nodeISA_PvEElEESH_
FN:855,_ZNSt3__1neERKNS_15__tree_iteratorINS_12__value_typeINS_12basic_stringIcNS_11char_traitsIcEENS_9allocatorIcEEEEPN5Catch14IGeneratorInfoEEEPNS_11__tree_nodeISB_PvEElEESI_
FN:855,_ZNSt3__1neERKNS_15__tree_iteratorINS_12__value_typeINS_12basic_stringIcNS_11char_traitsIcEENS_9allocatorIcEEEEPN5Catch18IGeneratorsForTestEEEPNS_11__tree_nodeISB_PvEElEESI_
FN:855,_ZNSt3__1neERKNS_15__tree_iteratorINS_12__value_typeINS_12basic_stringIcNS_11char_traitsIcEENS_9allocatorIcEEEEN5Catch7TagInfoEEEPNS_11__tree_nodeISA_PvEElEESH_
FN:860,_ZNSt3__115__tree_iteratorIN5Catch8TestCaseEPNS_11__tree_nodeIS2_PvEElEC1ES6_
FN:860,_ZNSt3__115__tree_iteratorINS_12__value_typeINS_12basic_stringIcNS_11char_traitsIcEENS_9allocatorIcEEEEPN5Catch14IGeneratorInfoEEEPNS_11__tree_nodeISB_PvEElEC2ESF_
FN:860,_ZNSt3__115__tree_iteratorINS_12__value_typeINS_12basic_stringIcNS_11char_traitsIcEENS_9allocatorIcEEEEN5Catch7TagInfoEEEPNS_11__tree_nodeISA_PvEElEC2ESE_
FN:860,_ZNSt3__115__tree_iteratorINS_12__value_typeINS_12basic_stringIcNS_11char_traitsIcEENS_9allocatorIcEEEEN5Catch8TagAliasEEEPNS_11__tree_nodeISA_PvEElEC2ESE_
FN:860,_ZNSt3__115__tree_iteratorINS_12__value_typeINS_12basic_stringIcNS_11char_traitsIcEENS_9allocatorIcEEEEN5Catch7TagInfoEEEPNS_11__tree_nodeISA_PvEElEC1ESE_
FN:860,_ZNSt3__115__tree_iteratorINS_12__value_typeINS_12basic_stringIcNS_11char_traitsIcEENS_9allocatorIcEEEEN5Catch3PtrINS8_16IReporterFactoryEEEEEPNS_11__tree_nodeISC_PvEElEC1ESG_
FN:860,_ZNSt3__115__tree_iteratorIN5Catch8TestCaseEPNS_11__tree_nodeIS2_PvEElEC2ES6_
FN:860,_ZNSt3__115__tree_iteratorINS_12__value_typeINS_12basic_stringIcNS_11char_traitsIcEENS_9allocatorIcEEEEPN5Catch18IGeneratorsForTestEEEPNS_11__tree_nodeISB_PvEElEC2ESF_
FN:860,_ZNSt3__115__tree_iteratorINS_12__value_typeINS_12basic_stringIcNS_11char_traitsIcEENS_9allocatorIcEEEEN5Catch3PtrINS8_16IReporterFactoryEEEEEPNS_11__tree_nodeISC_PvEElEC2ESG_
FN:860,_ZNSt3__115__tree_iteratorINS_12__value_typeINS_12basic_stringIcNS_11char_traitsIcEENS_9allocatorIcEEEEPN5Catch14IGeneratorInfoEEEPNS_11__tree_nodeISB_PvEElEC1ESF_
FN:860,_ZNSt3__115__tree_iteratorINS_12basic_stringIcNS_11char_traitsIcEENS_9allocatorIcEEEEPNS_11__tree_nodeIS6_PvEElEC1ESA_
FN:860,_ZNSt3__115__tree_iteratorINS_12__value_typeINS_12basic_stringIcNS_11char_traitsIcEENS_9allocatorIcEEEEPN5Catch18IGeneratorsForTestEEEPNS_11__tree_nodeISB_PvEElEC1ESF_
FN:860,_ZNSt3__115__tree_iteratorINS_12__value_typeINS_12basic_stringIcNS_11char_traitsIcEENS_9allocatorIcEEEEN5Catch8TagAliasEEEPNS_11__tree_nodeISA_PvEElEC1ESE_
FN:860,_ZNSt3__115__tree_iteratorINS_12basic_stringIcNS_11char_traitsIcEENS_9allocatorIcEEEEPNS_11__tree_nodeIS6_PvEElEC2ESA_
FN:862,_ZNSt3__115__tree_iteratorINS_12__value_typeINS_12basic_stringIcNS_11char_traitsIcEENS_9allocatorIcEEEEPN5Catch18IGeneratorsForTestEEEPNS_11__tree_nodeISB_PvEElEC1EPNS_15__tree_end_nodeIPNS_16__tree_node_baseISD_EEEE
FN:862,_ZNSt3__115__tree_iteratorINS_12__value_typeINS_12basic_stringIcNS_11char_traitsIcEENS_9allocatorIcEEEEN5Catch7TagInfoEEEPNS_11__tree_nodeISA_PvEElEC2EPNS_15__tree_end_nodeIPNS_16__tree_node_baseISC_EEEE
FN:862,_ZNSt3__115__tree_iteratorINS_12__value_typeINS_12basic_stringIcNS_11char_traitsIcEENS_9allocatorIcEEEEPN5Catch14IGeneratorInfoEEEPNS_11__tree_nodeISB_PvEElEC1EPNS_15__tree_end_nodeIPNS_16__tree_node_baseISD_EEEE
FN:862,_ZNSt3__115__tree_iteratorINS_12basic_stringIcNS_11char_traitsIcEENS_9allocatorIcEEEEPNS_11__tree_nodeIS6_PvEElEC1EPNS_15__tree_end_nodeIPNS_16__tree_node_baseIS8_EEEE
FN:862,_ZNSt3__115__tree_iteratorINS_12__value_typeINS_12basic_stringIcNS_11char_traitsIcEENS_9allocatorIcEEEEPN5Catch18IGeneratorsForTestEEEPNS_11__tree_nodeISB_PvEElEC2EPNS_15__tree_end_nodeIPNS_16__tree_node_baseISD_EEEE
FN:862,_ZNSt3__115__tree_iteratorINS_12__value_typeINS_12basic_stringIcNS_11char_traitsIcEENS_9allocatorIcEEEEPN5Catch14IGeneratorInfoEEEPNS_11__tree_nodeISB_PvEElEC2EPNS_15__tree_end_nodeIPNS_16__tree_node_baseISD_EEEE
FN:862,_ZNSt3__115__tree_iteratorINS_12basic_stringIcNS_11char_traitsIcEENS_9allocatorIcEEEEPNS_11__tree_nodeIS6_PvEElEC2EPNS_15__tree_end_nodeIPNS_16__tree_node_baseIS8_EEEE
FN:862,_ZNSt3__115__tree_iteratorINS_12__value_typeINS_12basic_stringIcNS_11char_traitsIcEENS_9allocatorIcEEEEN5Catch7TagInfoEEEPNS_11__tree_nodeISA_PvEElEC1EPNS_15__tree_end_nodeIPNS_16__tree_node_baseISC_EEEE
FN:864,_ZNKSt3__115__tree_iteratorINS_12__value_typeINS_12basic_stringIcNS_11char_traitsIcEENS_9allocatorIcEEEEPN5Catch14IGeneratorInfoEEEPNS_11__tree_nodeISB_PvEElE8__get_npEv
FN:864,_ZNKSt3__115__tree_iteratorINS_12__value_typeINS_12basic_stringIcNS_11char_traitsIcEENS_9allocatorIcEEEEN5Catch7TagInfoEEEPNS_11__tree_nodeISA_PvEElE8__get_npEv
FN:864,_ZNKSt3__115__tree_iteratorINS_12__value_typeINS_12basic_stringIcNS_11char_traitsIcEENS_9allocatorIcEEEEPN5Catch18IGeneratorsForTestEEEPNS_11__tree_nodeISB_PvEElE8__get_npEv
FN:868,_ZNSt3__13mapINS_12basic_stringIcNS_11char_traitsIcEENS_9allocatorIcEEEEN5Catch8TagAliasENS_4lessIS6_EENS4_INS_4pairIKS6_S8_EEEEED1Ev
FN:868,_ZNSt3__13mapINS_12basic_stringIcNS_11char_traitsIcEENS_9allocatorIcEEEEN5Catch8TagAliasENS_4lessIS6_EENS4_INS_4pairIKS6_S8_EEEEED2Ev
FN:868,_ZNSt3__13mapINS_12basic_stringIcNS_11char_traitsIcEENS_9allocatorIcEEEEN5Catch7TagInfoENS_4lessIS6_EENS4_INS_4pairIKS6_S8_EEEEED1Ev
FN:868,_ZNSt3__13mapINS_12basic_stringIcNS_11char_traitsIcEENS_9allocatorIcEEEEN5Catch7TagInfoENS_4lessIS6_EENS4_INS_4pairIKS6_S8_EEEEED2Ev
FN:870,_ZNSt3__13setIN5Catch8TestCaseENS_4lessIS2_EENS_9allocatorIS2_EEED2Ev
FN:870,_ZNSt3__13setIN5Catch8TestCaseENS_4lessIS2_EENS_9allocatorIS2_EEED1Ev
FN:893,_ZNSt3__121__tree_const_iteratorINS_12__value_typeINS_12basic_stringIcNS_11char_traitsIcEENS_9allocatorIcEEEEN5Catch3PtrINS8_16IReporterFactoryEEEEEPNS_11__tree_nodeISC_PvEElEC1Ev
FN:893,_ZNSt3__121__tree_const_iteratorINS_12__value_typeINS_12basic_stringIcNS_11char_traitsIcEENS_9allocatorIcEEEEN5Catch3PtrINS8_16IReporterFactoryEEEEEPNS_11__tree_nodeISC_PvEElEC2Ev
FN:904,_ZNSt3__121__tree_const_iteratorIN5Catch8TestCaseEPNS_11__tree_nodeIS2_PvEElEC1ENS_15__tree_iteratorIS2_S6_lEE
FN:904,_ZNSt3__121__tree_const_iteratorINS_12basic_stringIcNS_11char_traitsIcEENS_9allocatorIcEEEEPNS_11__tree_nodeIS6_PvEElEC2ENS_15__tree_iteratorIS6_SA_lEE
FN:904,_ZNSt3__121__tree_const_iteratorINS_12__value_typeINS_12basic_stringIcNS_11char_traitsIcEENS_9allocatorIcEEEEN5Catch7TagInfoEEEPNS_11__tree_nodeISA_PvEElEC1ENS_15__tree_iteratorISA_SE_lEE
FN:904,_ZNSt3__121__tree_const_iteratorINS_12__value_typeINS_12basic_stringIcNS_11char_traitsIcEENS_9allocatorIcEEEEPN5Catch14IGeneratorInfoEEEPNS_11__tree_nodeISB_PvEElEC2ENS_15__tree_iteratorISB_SF_lEE
FN:904,_ZNSt3__121__tree_const_iteratorIN5Catch8TestCaseEPNS_11__tree_nodeIS2_PvEElEC2ENS_15__tree_iteratorIS2_S6_lEE
FN:904,_ZNSt3__121__tree_const_iteratorINS_12__value_typeINS_12basic_stringIcNS_11char_traitsIcEENS_9allocatorIcEEEEN5Catch7TagInfoEEEPNS_11__tree_nodeISA_PvEElEC2ENS_15__tree_iteratorISA_SE_lEE
FN:904,_ZNSt3__121__tree_const_iteratorINS_12__value_typeINS_12basic_stringIcNS_11char_traitsIcEENS_9allocatorIcEEEEPN5Catch18IGeneratorsForTestEEEPNS_11__tree_nodeISB_PvEElEC1ENS_15__tree_iteratorISB_SF_lEE
FN:904,_ZNSt3__121__tree_const_iteratorINS_12__value_typeINS_12basic_stringIcNS_11char_traitsIcEENS_9allocatorIcEEEEPN5Catch18IGeneratorsForTestEEEPNS_11__tree_nodeISB_PvEElEC2ENS_15__tree_iteratorISB_SF_lEE
FN:904,_ZNSt3__121__tree_const_iteratorINS_12basic_stringIcNS_11char_traitsIcEENS_9allocatorIcEEEEPNS_11__tree_nodeIS6_PvEElEC1ENS_15__tree_iteratorIS6_SA_lEE
FN:904,_ZNSt3__121__tree_const_iteratorINS_12__value_typeINS_12basic_stringIcNS_11char_traitsIcEENS_9allocatorIcEEEEPN5Catch14IGeneratorInfoEEEPNS_11__tree_nodeISB_PvEElEC1ENS_15__tree_iteratorISB_SF_lEE
FN:907,_ZNKSt3__121__tree_const_iteratorINS_12__value_typeIiN5Catch5Clara11CommandLineINS2_10ConfigDataEE3ArgEEEPNS_11__tree_nodeIS8_PvEElEdeEv
FN:907,_ZNKSt3__121__tree_const_iteratorINS_12__value_typeINS_12basic_stringIcNS_11char_traitsIcEENS_9allocatorIcEEEEN5Catch8TagAliasEEEPNS_11__tree_nodeISA_PvEElEdeEv
FN:907,_ZNKSt3__121__tree_const_iteratorINS_12__value_typeINS_12basic_stringIcNS_11char_traitsIcEENS_9allocatorIcEEEEN5Catch3PtrINS8_16IReporterFactoryEEEEEPNS_11__tree_nodeISC_PvEElEdeEv
FN:907,_ZNKSt3__121__tree_const_iteratorINS_12basic_stringIcNS_11char_traitsIcEENS_9allocatorIcEEEEPNS_11__tree_nodeIS6_PvEElEdeEv
FN:909,_ZNKSt3__121__tree_const_iteratorINS_12__value_typeINS_12basic_stringIcNS_11char_traitsIcEENS_9allocatorIcEEEEPN5Catch14IGeneratorInfoEEEPNS_11__tree_nodeISB_PvEElEptEv
FN:909,_ZNKSt3__121__tree_const_iteratorINS_12__value_typeINS_12basic_stringIcNS_11char_traitsIcEENS_9allocatorIcEEEEN5Catch7TagInfoEEEPNS_11__tree_nodeISA_PvEElEptEv
FN:909,_ZNKSt3__121__tree_const_iteratorINS_12__value_typeIiN5Catch5Clara11CommandLineINS2_10ConfigDataEE3ArgEEEPNS_11__tree_nodeIS8_PvEElEptEv
FN:909,_ZNKSt3__121__tree_const_iteratorINS_12__value_typeINS_12basic_stringIcNS_11char_traitsIcEENS_9allocatorIcEEEEPN5Catch18IGeneratorsForTestEEEPNS_11__tree_nodeISB_PvEElEptEv
FN:909,_ZNKSt3__121__tree_const_iteratorINS_12__value_typeINS_12basic_stringIcNS_11char_traitsIcEENS_9allocatorIcEEEEN5Catch3PtrINS8_16IReporterFactoryEEEEEPNS_11__tree_nodeISC_PvEElEptEv
FN:909,_ZNKSt3__121__tree_const_iteratorINS_12__value_typeINS_12basic_stringIcNS_11char_traitsIcEENS_9allocatorIcEEEEN5Catch8TagAliasEEEPNS_11__tree_nodeISA_PvEElEptEv
FN:909,_ZNKSt3__121__tree_const_iteratorIN5Catch8TestCaseEPNS_11__tree_nodeIS2_PvEElEptEv
FN:913,_ZNSt3__121__tree_const_iteratorINS_12__value_typeINS_12basic_stringIcNS_11char_traitsIcEENS_9allocatorIcEEEEN5Catch8TagAliasEEEPNS_11__tree_nodeISA_PvEElEppEv
FN:913,_ZNSt3__121__tree_const_iteratorINS_12__value_typeINS_12basic_stringIcNS_11char_traitsIcEENS_9allocatorIcEEEEN5Catch7TagInfoEEEPNS_11__tree_nodeISA_PvEElEppEv
FN:913,_ZNSt3__121__tree_const_iteratorINS_12__value_typeINS_12basic_stringIcNS_11char_traitsIcEENS_9allocatorIcEEEEPN5Catch18IGeneratorsForTestEEEPNS_11__tree_nodeISB_PvEElEppEv
FN:913,_ZNSt3__121__tree_const_iteratorINS_12basic_stringIcNS_11char_traitsIcEENS_9allocatorIcEEEEPNS_11__tree_nodeIS6_PvEElEppEv
FN:913,_ZNSt3__121__tree_const_iteratorINS_12__value_typeINS_12basic_stringIcNS_11char_traitsIcEENS_9allocatorIcEEEEN5Catch3PtrINS8_16IReporterFactoryEEEEEPNS_11__tree_nodeISC_PvEElEppEv
FN:924,_ZNSt3__121__tree_const_iteratorINS_12basic_stringIcNS_11char_traitsIcEENS_9allocatorIcEEEEPNS_11__tree_nodeIS6_PvEElEmmEv
FN:935,_ZNSt3__1eqERKNS_21__tree_const_iteratorINS_12__value_typeINS_12basic_stringIcNS_11char_traitsIcEENS_9allocatorIcEEEEPN5Catch18IGeneratorsForTestEEEPNS_11__tree_nodeISB_PvEElEESI_
FN:935,_ZNSt3__1eqERKNS_21__tree_const_iteratorINS_12__value_typeIiN5Catch5Clara11CommandLineINS2_10ConfigDataEE3ArgEEEPNS_11__tree_nodeIS8_PvEElEESF_
FN:935,_ZNSt3__1eqERKNS_21__tree_const_iteratorINS_12__value_typeINS_12basic_stringIcNS_11char_traitsIcEENS_9allocatorIcEEEEPN5Catch14IGeneratorInfoEEEPNS_11__tree_nodeISB_PvEElEESI_
FN:935,_ZNSt3__1eqERKNS_21__tree_const_iteratorINS_12__value_typeINS_12basic_stringIcNS_11char_traitsIcEENS_9allocatorIcEEEEN5Catch8TagAliasEEEPNS_11__tree_nodeISA_PvEElEESH_
FN:935,_ZNSt3__1eqERKNS_21__tree_const_iteratorINS_12__value_typeINS_12basic_stringIcNS_11char_traitsIcEENS_9allocatorIcEEEEN5Catch3PtrINS8_16IReporterFactoryEEEEEPNS_11__tree_nodeISC_PvEElEESJ_
FN:935,_ZNSt3__1eqERKNS_21__tree_const_iteratorINS_12__value_typeINS_12basic_stringIcNS_11char_traitsIcEENS_9allocatorIcEEEEN5Catch7TagInfoEEEPNS_11__tree_nodeISA_PvEElEESH_
FN:935,_ZNSt3__1eqERKNS_21__tree_const_iteratorINS_12basic_stringIcNS_11char_traitsIcEENS_9allocatorIcEEEEPNS_11__tree_nodeIS6_PvEElEESD_
FN:938,_ZNSt3__1neERKNS_21__tree_const_iteratorINS_12__value_typeINS_12basic_stringIcNS_11char_traitsIcEENS_9allocatorIcEEEEN5Catch3PtrINS8_16IReporterFactoryEEEEEPNS_11__tree_nodeISC_PvEElEESJ_
FN:938,_ZNSt3__1neERKNS_21__tree_const_iteratorINS_12__value_typeINS_12basic_stringIcNS_11char_traitsIcEENS_9allocatorIcEEEEPN5Catch18IGeneratorsForTestEEEPNS_11__tree_nodeISB_PvEElEESI_
FN:938,_ZNSt3__1neERKNS_21__tree_const_iteratorINS_12__value_typeINS_12basic_stringIcNS_11char_traitsIcEENS_9allocatorIcEEEEN5Catch7TagInfoEEEPNS_11__tree_nodeISA_PvEElEESH_
FN:938,_ZNSt3__1neERKNS_21__tree_const_iteratorINS_12basic_stringIcNS_11char_traitsIcEENS_9allocatorIcEEEEPNS_11__tree_nodeIS6_PvEElEESD_
FN:938,_ZNSt3__1neERKNS_21__tree_const_iteratorINS_12__value_typeIiN5Catch5Clara11CommandLineINS2_10ConfigDataEE3ArgEEEPNS_11__tree_nodeIS8_PvEElEESF_
FN:938,_ZNSt3__1neERKNS_21__tree_const_iteratorINS_12__value_typeINS_12basic_stringIcNS_11char_traitsIcEENS_9allocatorIcEEEEN5Catch8TagAliasEEEPNS_11__tree_nodeISA_PvEElEESH_
FN:946,_ZNSt3__121__tree_const_iteratorINS_12__value_typeINS_12basic_stringIcNS_11char_traitsIcEENS_9allocatorIcEEEEN5Catch3PtrINS8_16IReporterFactoryEEEEEPNS_11__tree_nodeISC_PvEElEC1EPNS_15__tree_end_nodeIPNS_16__tree_node_baseISE_EEEE
FN:946,_ZNSt3__121__tree_const_iteratorINS_12__value_typeINS_12basic_stringIcNS_11char_traitsIcEENS_9allocatorIcEEEEN5Catch8TagAliasEEEPNS_11__tree_nodeISA_PvEElEC1EPNS_15__tree_end_nodeIPNS_16__tree_node_baseISC_EEEE
FN:946,_ZNSt3__121__tree_const_iteratorINS_12basic_stringIcNS_11char_traitsIcEENS_9allocatorIcEEEEPNS_11__tree_nodeIS6_PvEElEC1EPNS_15__tree_end_nodeIPNS_16__tree_node_baseIS8_EEEE
FN:946,_ZNSt3__121__tree_const_iteratorINS_12__value_typeINS_12basic_stringIcNS_11char_traitsIcEENS_9allocatorIcEEEEN5Catch3PtrINS8_16IReporterFactoryEEEEEPNS_11__tree_nodeISC_PvEElEC2EPNS_15__tree_end_nodeIPNS_16__tree_node_baseISE_EEEE
FN:946,_ZNSt3__121__tree_const_iteratorINS_12__value_typeIiN5Catch5Clara11CommandLineINS2_10ConfigDataEE3ArgEEEPNS_11__tree_nodeIS8_PvEElEC2EPNS_15__tree_end_nodeIPNS_16__tree_node_baseISA_EEEE
FN:946,_ZNSt3__121__tree_const_iteratorINS_12__value_typeIiN5Catch5Clara11CommandLineINS2_10ConfigDataEE3ArgEEEPNS_11__tree_nodeIS8_PvEElEC1EPNS_15__tree_end_nodeIPNS_16__tree_node_baseISA_EEEE
FN:946,_ZNSt3__121__tree_const_iteratorINS_12basic_stringIcNS_11char_traitsIcEENS_9allocatorIcEEEEPNS_11__tree_nodeIS6_PvEElEC2EPNS_15__tree_end_nodeIPNS_16__tree_node_baseIS8_EEEE
FN:946,_ZNSt3__121__tree_const_iteratorINS_12__value_typeINS_12basic_stringIcNS_11char_traitsIcEENS_9allocatorIcEEEEN5Catch8TagAliasEEEPNS_11__tree_nodeISA_PvEElEC2EPNS_15__tree_end_nodeIPNS_16__tree_node_baseISC_EEEE
FN:949,_ZNKSt3__121__tree_const_iteratorINS_12basic_stringIcNS_11char_traitsIcEENS_9allocatorIcEEEEPNS_11__tree_nodeIS6_PvEElE8__get_npEv
FN:949,_ZNKSt3__121__tree_const_iteratorINS_12__value_typeINS_12basic_stringIcNS_11char_traitsIcEENS_9allocatorIcEEEEN5Catch3PtrINS8_16IReporterFactoryEEEEEPNS_11__tree_nodeISC_PvEElE8__get_npEv
FN:949,_ZNKSt3__121__tree_const_iteratorIN5Catch8TestCaseEPNS_11__tree_nodeIS2_PvEElE8__get_npEv
FN:949,_ZNKSt3__121__tree_const_iteratorINS_12__value_typeINS_12basic_stringIcNS_11char_traitsIcEENS_9allocatorIcEEEEPN5Catch14IGeneratorInfoEEEPNS_11__tree_nodeISB_PvEElE8__get_npEv
FN:949,_ZNKSt3__121__tree_const_iteratorINS_12__value_typeIiN5Catch5Clara11CommandLineINS2_10ConfigDataEE3ArgEEEPNS_11__tree_nodeIS8_PvEElE8__get_npEv
FN:949,_ZNKSt3__121__tree_const_iteratorINS_12__value_typeINS_12basic_stringIcNS_11char_traitsIcEENS_9allocatorIcEEEEN5Catch7TagInfoEEEPNS_11__tree_nodeISA_PvEElE8__get_npEv
FN:949,_ZNKSt3__121__tree_const_iteratorINS_12__value_typeINS_12basic_stringIcNS_11char_traitsIcEENS_9allocatorIcEEEEN5Catch8TagAliasEEEPNS_11__tree_nodeISA_PvEElE8__get_npEv
FN:949,_ZNKSt3__121__tree_const_iteratorINS_12__value_typeINS_12basic_stringIcNS_11char_traitsIcEENS_9allocatorIcEEEEPN5Catch18IGeneratorsForTestEEEPNS_11__tree_nodeISB_PvEElE8__get_npEv
FN:1020,_ZNSt3__16__treeINS_12__value_typeINS_12basic_stringIcNS_11char_traitsIcEENS_9allocatorIcEEEEPN5Catch18IGeneratorsForTestEEENS_19__map_value_compareIS7_SB_NS_4lessIS7_EELb1EEENS5_ISB_EEE10__end_nodeEv
FN:1020,_ZNSt3__16__treeINS_12__value_typeINS_12basic_stringIcNS_11char_traitsIcEENS_9allocatorIcEEEEN5Catch3PtrINS8_16IReporterFactoryEEEEENS_19__map_value_compareIS7_SC_NS_4lessIS7_EELb1EEENS5_ISC_EEE10__end_nodeEv
FN:1020,_ZNSt3__16__treeIN5Catch8TestCaseENS_4lessIS2_EENS_9allocatorIS2_EEE10__end_nodeEv
FN:1020,_ZNSt3__16__treeINS_12__value_typeINS_12basic_stringIcNS_11char_traitsIcEENS_9allocatorIcEEEEN5Catch7TagInfoEEENS_19__map_value_compareIS7_SA_NS_4lessIS7_EELb1EEENS5_ISA_EEE10__end_nodeEv
FN:1020,_ZNSt3__16__treeINS_12__value_typeINS_12basic_stringIcNS_11char_traitsIcEENS_9allocatorIcEEEEPN5Catch14IGeneratorInfoEEENS_19__map_value_compareIS7_SB_NS_4lessIS7_EELb1EEENS5_ISB_EEE10__end_nodeEv
FN:1020,_ZNSt3__16__treeINS_12__value_typeIiN5Catch5Clara11CommandLineINS2_10ConfigDataEE3ArgEEENS_19__map_value_compareIiS8_NS_4lessIiEELb1EEENS_9allocatorIS8_EEE10__end_nodeEv
FN:1020,_ZNSt3__16__treeINS_12basic_stringIcNS_11char_traitsIcEENS_9allocatorIcEEEENS_4lessIS6_EENS4_IS6_EEE10__end_nodeEv
FN:1020,_ZNSt3__16__treeINS_12__value_typeINS_12basic_stringIcNS_11char_traitsIcEENS_9allocatorIcEEEEN5Catch8TagAliasEEENS_19__map_value_compareIS7_SA_NS_4lessIS7_EELb1EEENS5_ISA_EEE10__end_nodeEv
FN:1027,_ZNKSt3__16__treeINS_12basic_stringIcNS_11char_traitsIcEENS_9allocatorIcEEEENS_4lessIS6_EENS4_IS6_EEE10__end_nodeEv
FN:1027,_ZNKSt3__16__treeINS_12__value_typeINS_12basic_stringIcNS_11char_traitsIcEENS_9allocatorIcEEEEPN5Catch14IGeneratorInfoEEENS_19__map_value_compareIS7_SB_NS_4lessIS7_EELb1EEENS5_ISB_EEE10__end_nodeEv
FN:1027,_ZNKSt3__16__treeINS_12__value_typeINS_12basic_stringIcNS_11char_traitsIcEENS_9allocatorIcEEEEN5Catch8TagAliasEEENS_19__map_value_compareIS7_SA_NS_4lessIS7_EELb1EEENS5_ISA_EEE10__end_nodeEv
FN:1027,_ZNKSt3__16__treeIN5Catch8TestCaseENS_4lessIS2_EENS_9allocatorIS2_EEE10__end_nodeEv
FN:1027,_ZNKSt3__16__treeINS_12__value_typeINS_12basic_stringIcNS_11char_traitsIcEENS_9allocatorIcEEEEN5Catch3PtrINS8_16IReporterFactoryEEEEENS_19__map_value_compareIS7_SC_NS_4lessIS7_EELb1EEENS5_ISC_EEE10__end_nodeEv
FN:1027,_ZNKSt3__16__treeINS_12__value_typeIiN5Catch5Clara11CommandLineINS2_10ConfigDataEE3ArgEEENS_19__map_value_compareIiS8_NS_4lessIiEELb1EEENS_9allocatorIS8_EEE10__end_nodeEv
FN:1027,_ZNKSt3__16__treeINS_12__value_typeINS_12basic_stringIcNS_11char_traitsIcEENS_9allocatorIcEEEEPN5Catch18IGeneratorsForTestEEENS_19__map_value_compareIS7_SB_NS_4lessIS7_EELb1EEENS5_ISB_EEE10__end_nodeEv
FN:1027,_ZNKSt3__16__treeINS_12__value_typeINS_12basic_stringIcNS_11char_traitsIcEENS_9allocatorIcEEEEN5Catch7TagInfoEEENS_19__map_value_compareIS7_SA_NS_4lessIS7_EELb1EEENS5_ISA_EEE10__end_nodeEv
FN:1036,_ZNSt3__16__treeINS_12__value_typeINS_12basic_stringIcNS_11char_traitsIcEENS_9allocatorIcEEEEPN5Catch14IGeneratorInfoEEENS_19__map_value_compareIS7_SB_NS_4lessIS7_EELb1EEENS5_ISB_EEE12__node_allocEv
FN:1036,_ZNSt3__16__treeINS_12__value_typeINS_12basic_stringIcNS_11char_traitsIcEENS_9allocatorIcEEEEPN5Catch18IGeneratorsForTestEEENS_19__map_value_compareIS7_SB_NS_4lessIS7_EELb1EEENS5_ISB_EEE12__node_allocEv
FN:1036,_ZNSt3__16__treeIN5Catch8TestCaseENS_4lessIS2_EENS_9allocatorIS2_EEE12__node_allocEv
FN:1036,_ZNSt3__16__treeINS_12__value_typeINS_12basic_stringIcNS_11char_traitsIcEENS_9allocatorIcEEEEN5Catch8TagAliasEEENS_19__map_value_compareIS7_SA_NS_4lessIS7_EELb1EEENS5_ISA_EEE12__node_allocEv
FN:1036,_ZNSt3__16__treeINS_12__value_typeIiN5Catch5Clara11CommandLineINS2_10ConfigDataEE3ArgEEENS_19__map_value_compareIiS8_NS_4lessIiEELb1EEENS_9allocatorIS8_EEE12__node_allocEv
FN:1036,_ZNSt3__16__treeINS_12__value_typeINS_12basic_stringIcNS_11char_traitsIcEENS_9allocatorIcEEEEN5Catch3PtrINS8_16IReporterFactoryEEEEENS_19__map_value_compareIS7_SC_NS_4lessIS7_EELb1EEENS5_ISC_EEE12__node_allocEv
FN:1036,_ZNSt3__16__treeINS_12__value_typeINS_12basic_stringIcNS_11char_traitsIcEENS_9allocatorIcEEEEN5Catch7TagInfoEEENS_19__map_value_compareIS7_SA_NS_4lessIS7_EELb1EEENS5_ISA_EEE12__node_allocEv
FN:1036,_ZNSt3__16__treeINS_12basic_stringIcNS_11char_traitsIcEENS_9allocatorIcEEEENS_4lessIS6_EENS4_IS6_EEE12__node_allocEv
FN:1039,_ZNKSt3__16__treeINS_12basic_stringIcNS_11char_traitsIcEENS_9allocatorIcEEEENS_4lessIS6_EENS4_IS6_EEE12__node_allocEv
FN:1042,_ZNSt3__16__treeINS_12__value_typeINS_12basic_stringIcNS_11char_traitsIcEENS_9allocatorIcEEEEN5Catch8TagAliasEEENS_19__map_value_compareIS7_SA_NS_4lessIS7_EELb1EEENS5_ISA_EEE12__begin_nodeEv
FN:1042,_ZNSt3__16__treeINS_12__value_typeINS_12basic_stringIcNS_11char_traitsIcEENS_9allocatorIcEEEEPN5Catch14IGeneratorInfoEEENS_19__map_value_compareIS7_SB_NS_4lessIS7_EELb1EEENS5_ISB_EEE12__begin_nodeEv
FN:1042,_ZNSt3__16__treeINS_12__value_typeIiN5Catch5Clara11CommandLineINS2_10ConfigDataEE3ArgEEENS_19__map_value_compareIiS8_NS_4lessIiEELb1EEENS_9allocatorIS8_EEE12__begin_nodeEv
FN:1042,_ZNSt3__16__treeINS_12__value_typeINS_12basic_stringIcNS_11char_traitsIcEENS_9allocatorIcEEEEPN5Catch18IGeneratorsForTestEEENS_19__map_value_compareIS7_SB_NS_4lessIS7_EELb1EEENS5_ISB_EEE12__begin_nodeEv
FN:1042,_ZNSt3__16__treeINS_12basic_stringIcNS_11char_traitsIcEENS_9allocatorIcEEEENS_4lessIS6_EENS4_IS6_EEE12__begin_nodeEv
FN:1042,_ZNSt3__16__treeIN5Catch8TestCaseENS_4lessIS2_EENS_9allocatorIS2_EEE12__begin_nodeEv
FN:1042,_ZNSt3__16__treeINS_12__value_typeINS_12basic_stringIcNS_11char_traitsIcEENS_9allocatorIcEEEEN5Catch3PtrINS8_16IReporterFactoryEEEEENS_19__map_value_compareIS7_SC_NS_4lessIS7_EELb1EEENS5_ISC_EEE12__begin_nodeEv
FN:1042,_ZNSt3__16__treeINS_12__value_typeINS_12basic_stringIcNS_11char_traitsIcEENS_9allocatorIcEEEEN5Catch7TagInfoEEENS_19__map_value_compareIS7_SA_NS_4lessIS7_EELb1EEENS5_ISA_EEE12__begin_nodeEv
FN:1044,_ZNKSt3__16__treeINS_12__value_typeINS_12basic_stringIcNS_11char_traitsIcEENS_9allocatorIcEEEEN5Catch3PtrINS8_16IReporterFactoryEEEEENS_19__map_value_compareIS7_SC_NS_4lessIS7_EELb1EEENS5_ISC_EEE12__begin_nodeEv
FN:1044,_ZNKSt3__16__treeINS_12__value_typeINS_12basic_stringIcNS_11char_traitsIcEENS_9allocatorIcEEEEN5Catch8TagAliasEEENS_19__map_value_compareIS7_SA_NS_4lessIS7_EELb1EEENS5_ISA_EEE12__begin_nodeEv
FN:1044,_ZNKSt3__16__treeINS_12basic_stringIcNS_11char_traitsIcEENS_9allocatorIcEEEENS_4lessIS6_EENS4_IS6_EEE12__begin_nodeEv
FN:1051,_ZNSt3__16__treeINS_12__value_typeINS_12basic_stringIcNS_11char_traitsIcEENS_9allocatorIcEEEEN5Catch8TagAliasEEENS_19__map_value_compareIS7_SA_NS_4lessIS7_EELb1EEENS5_ISA_EEE4sizeEv
FN:1051,_ZNSt3__16__treeINS_12basic_stringIcNS_11char_traitsIcEENS_9allocatorIcEEEENS_4lessIS6_EENS4_IS6_EEE4sizeEv
FN:1051,_ZNSt3__16__treeINS_12__value_typeINS_12basic_stringIcNS_11char_traitsIcEENS_9allocatorIcEEEEPN5Catch18IGeneratorsForTestEEENS_19__map_value_compareIS7_SB_NS_4lessIS7_EELb1EEENS5_ISB_EEE4sizeEv
FN:1051,_ZNSt3__16__treeINS_12__value_typeINS_12basic_stringIcNS_11char_traitsIcEENS_9allocatorIcEEEEN5Catch3PtrINS8_16IReporterFactoryEEEEENS_19__map_value_compareIS7_SC_NS_4lessIS7_EELb1EEENS5_ISC_EEE4sizeEv
FN:1051,_ZNSt3__16__treeINS_12__value_typeINS_12basic_stringIcNS_11char_traitsIcEENS_9allocatorIcEEEEPN5Catch14IGeneratorInfoEEENS_19__map_value_compareIS7_SB_NS_4lessIS7_EELb1EEENS5_ISB_EEE4sizeEv
FN:1051,_ZNSt3__16__treeINS_12__value_typeINS_12basic_stringIcNS_11char_traitsIcEENS_9allocatorIcEEEEN5Catch7TagInfoEEENS_19__map_value_compareIS7_SA_NS_4lessIS7_EELb1EEENS5_ISA_EEE4sizeEv
FN:1051,_ZNSt3__16__treeIN5Catch8TestCaseENS_4lessIS2_EENS_9allocatorIS2_EEE4sizeEv
FN:1054,_ZNKSt3__16__treeINS_12__value_typeINS_12basic_stringIcNS_11char_traitsIcEENS_9allocatorIcEEEEN5Catch7TagInfoEEENS_19__map_value_compareIS7_SA_NS_4lessIS7_EELb1EEENS5_ISA_EEE4sizeEv
FN:1054,_ZNKSt3__16__treeINS_12__value_typeINS_12basic_stringIcNS_11char_traitsIcEENS_9allocatorIcEEEEN5Catch3PtrINS8_16IReporterFactoryEEEEENS_19__map_value_compareIS7_SC_NS_4lessIS7_EELb1EEENS5_ISC_EEE4sizeEv
FN:1054,_ZNKSt3__16__treeINS_12basic_stringIcNS_11char_traitsIcEENS_9allocatorIcEEEENS_4lessIS6_EENS4_IS6_EEE4sizeEv
FN:1054,_ZNKSt3__16__treeINS_12__value_typeIiN5Catch5Clara11CommandLineINS2_10ConfigDataEE3ArgEEENS_19__map_value_compareIiS8_NS_4lessIiEELb1EEENS_9allocatorIS8_EEE4sizeEv
FN:1056,_ZNSt3__16__treeINS_12__value_typeINS_12basic_stringIcNS_11char_traitsIcEENS_9allocatorIcEEEEPN5Catch18IGeneratorsForTestEEENS_19__map_value_compareIS7_SB_NS_4lessIS7_EELb1EEENS5_ISB_EEE10value_compEv
FN:1056,_ZNSt3__16__treeINS_12basic_stringIcNS_11char_traitsIcEENS_9allocatorIcEEEENS_4lessIS6_EENS4_IS6_EEE10value_compEv
FN:1056,_ZNSt3__16__treeINS_12__value_typeINS_12basic_stringIcNS_11char_traitsIcEENS_9allocatorIcEEEEN5Catch7TagInfoEEENS_19__map_value_compareIS7_SA_NS_4lessIS7_EELb1EEENS5_ISA_EEE10value_compEv
FN:1056,_ZNSt3__16__treeINS_12__value_typeINS_12basic_stringIcNS_11char_traitsIcEENS_9allocatorIcEEEEPN5Catch14IGeneratorInfoEEENS_19__map_value_compareIS7_SB_NS_4lessIS7_EELb1EEENS5_ISB_EEE10value_compEv
FN:1056,_ZNSt3__16__treeINS_12__value_typeINS_12basic_stringIcNS_11char_traitsIcEENS_9allocatorIcEEEEN5Catch3PtrINS8_16IReporterFactoryEEEEENS_19__map_value_compareIS7_SC_NS_4lessIS7_EELb1EEENS5_ISC_EEE10value_compEv
FN:1056,_ZNSt3__16__treeINS_12__value_typeINS_12basic_stringIcNS_11char_traitsIcEENS_9allocatorIcEEEEN5Catch8TagAliasEEENS_19__map_value_compareIS7_SA_NS_4lessIS7_EELb1EEENS5_ISA_EEE10value_compEv
FN:1056,_ZNSt3__16__treeIN5Catch8TestCaseENS_4lessIS2_EENS_9allocatorIS2_EEE10value_compEv
FN:1058,_ZNKSt3__16__treeINS_12__value_typeINS_12basic_stringIcNS_11char_traitsIcEENS_9allocatorIcEEEEN5Catch8TagAliasEEENS_19__map_value_compareIS7_SA_NS_4lessIS7_EELb1EEENS5_ISA_EEE10value_compEv
FN:1058,_ZNKSt3__16__treeINS_12__value_typeINS_12basic_stringIcNS_11char_traitsIcEENS_9allocatorIcEEEEN5Catch3PtrINS8_16IReporterFactoryEEEEENS_19__map_value_compareIS7_SC_NS_4lessIS7_EELb1EEENS5_ISC_EEE10value_compEv
FN:1058,_ZNKSt3__16__treeINS_12__value_typeIiN5Catch5Clara11CommandLineINS2_10ConfigDataEE3ArgEEENS_19__map_value_compareIiS8_NS_4lessIiEELb1EEENS_9allocatorIS8_EEE10value_compEv
FN:1058,_ZNKSt3__16__treeINS_12basic_stringIcNS_11char_traitsIcEENS_9allocatorIcEEEENS_4lessIS6_EENS4_IS6_EEE10value_compEv
FN:1063,_ZNKSt3__16__treeINS_12__value_typeINS_12basic_stringIcNS_11char_traitsIcEENS_9allocatorIcEEEEN5Catch8TagAliasEEENS_19__map_value_compareIS7_SA_NS_4lessIS7_EELb1EEENS5_ISA_EEE6__rootEv
FN:1063,_ZNKSt3__16__treeINS_12basic_stringIcNS_11char_traitsIcEENS_9allocatorIcEEEENS_4lessIS6_EENS4_IS6_EEE6__rootEv
FN:1063,_ZNKSt3__16__treeINS_12__value_typeINS_12basic_stringIcNS_11char_traitsIcEENS_9allocatorIcEEEEN5Catch3PtrINS8_16IReporterFactoryEEEEENS_19__map_value_compareIS7_SC_NS_4lessIS7_EELb1EEENS5_ISC_EEE6__rootEv
FN:1063,_ZNKSt3__16__treeINS_12__value_typeINS_12basic_stringIcNS_11char_traitsIcEENS_9allocatorIcEEEEPN5Catch18IGeneratorsForTestEEENS_19__map_value_compareIS7_SB_NS_4lessIS7_EELb1EEENS5_ISB_EEE6__rootEv
FN:1063,_ZNKSt3__16__treeIN5Catch8TestCaseENS_4lessIS2_EENS_9allocatorIS2_EEE6__rootEv
FN:1063,_ZNKSt3__16__treeINS_12__value_typeIiN5Catch5Clara11CommandLineINS2_10ConfigDataEE3ArgEEENS_19__map_value_compareIiS8_NS_4lessIiEELb1EEENS_9allocatorIS8_EEE6__rootEv
FN:1063,_ZNKSt3__16__treeINS_12__value_typeINS_12basic_stringIcNS_11char_traitsIcEENS_9allocatorIcEEEEPN5Catch14IGeneratorInfoEEENS_19__map_value_compareIS7_SB_NS_4lessIS7_EELb1EEENS5_ISB_EEE6__rootEv
FN:1063,_ZNKSt3__16__treeINS_12__value_typeINS_12basic_stringIcNS_11char_traitsIcEENS_9allocatorIcEEEEN5Catch7TagInfoEEENS_19__map_value_compareIS7_SA_NS_4lessIS7_EELb1EEENS5_ISA_EEE6__rootEv
FN:1066,_ZNKSt3__16__treeINS_12basic_stringIcNS_11char_traitsIcEENS_9allocatorIcEEEENS_4lessIS6_EENS4_IS6_EEE10__root_ptrEv
FN:1066,_ZNKSt3__16__treeINS_12__value_typeINS_12basic_stringIcNS_11char_traitsIcEENS_9allocatorIcEEEEN5Catch8TagAliasEEENS_19__map_value_compareIS7_SA_NS_4lessIS7_EELb1EEENS5_ISA_EEE10__root_ptrEv
FN:1066,_ZNKSt3__16__treeINS_12__value_typeINS_12basic_stringIcNS_11char_traitsIcEENS_9allocatorIcEEEEPN5Catch18IGeneratorsForTestEEENS_19__map_value_compareIS7_SB_NS_4lessIS7_EELb1EEENS5_ISB_EEE10__root_ptrEv
FN:1066,_ZNKSt3__16__treeINS_12__value_typeINS_12basic_stringIcNS_11char_traitsIcEENS_9allocatorIcEEEEN5Catch3PtrINS8_16IReporterFactoryEEEEENS_19__map_value_compareIS7_SC_NS_4lessIS7_EELb1EEENS5_ISC_EEE10__root_ptrEv
FN:1066,_ZNKSt3__16__treeINS_12__value_typeINS_12basic_stringIcNS_11char_traitsIcEENS_9allocatorIcEEEEN5Catch7TagInfoEEENS_19__map_value_compareIS7_SA_NS_4lessIS7_EELb1EEENS5_ISA_EEE10__root_ptrEv
FN:1066,_ZNKSt3__16__treeINS_12__value_typeINS_12basic_stringIcNS_11char_traitsIcEENS_9allocatorIcEEEEPN5Catch14IGeneratorInfoEEENS_19__map_value_compareIS7_SB_NS_4lessIS7_EELb1EEENS5_ISB_EEE10__root_ptrEv
FN:1066,_ZNKSt3__16__treeIN5Catch8TestCaseENS_4lessIS2_EENS_9allocatorIS2_EEE10__root_ptrEv
FN:1101,_ZNSt3__16__treeINS_12basic_stringIcNS_11char_traitsIcEENS_9allocatorIcEEEENS_4lessIS6_EENS4_IS6_EEE5beginEv
FN:1101,_ZNSt3__16__treeINS_12__value_typeINS_12basic_stringIcNS_11char_traitsIcEENS_9allocatorIcEEEEPN5Catch18IGeneratorsForTestEEENS_19__map_value_compareIS7_SB_NS_4lessIS7_EELb1EEENS5_ISB_EEE5beginEv
FN:1101,_ZNSt3__16__treeINS_12__value_typeINS_12basic_stringIcNS_11char_traitsIcEENS_9allocatorIcEEEEN5Catch7TagInfoEEENS_19__map_value_compareIS7_SA_NS_4lessIS7_EELb1EEENS5_ISA_EEE5beginEv
FN:1103,_ZNKSt3__16__treeINS_12__value_typeINS_12basic_stringIcNS_11char_traitsIcEENS_9allocatorIcEEEEN5Catch3PtrINS8_16IReporterFactoryEEEEENS_19__map_value_compareIS7_SC_NS_4lessIS7_EELb1EEENS5_ISC_EEE5beginEv
FN:1103,_ZNKSt3__16__treeINS_12basic_stringIcNS_11char_traitsIcEENS_9allocatorIcEEEENS_4lessIS6_EENS4_IS6_EEE5beginEv
FN:1103,_ZNKSt3__16__treeINS_12__value_typeINS_12basic_stringIcNS_11char_traitsIcEENS_9allocatorIcEEEEN5Catch8TagAliasEEENS_19__map_value_compareIS7_SA_NS_4lessIS7_EELb1EEENS5_ISA_EEE5beginEv
FN:1105,_ZNSt3__16__treeINS_12__value_typeINS_12basic_stringIcNS_11char_traitsIcEENS_9allocatorIcEEEEPN5Catch18IGeneratorsForTestEEENS_19__map_value_compareIS7_SB_NS_4lessIS7_EELb1EEENS5_ISB_EEE3endEv
FN:1105,_ZNSt3__16__treeINS_12basic_stringIcNS_11char_traitsIcEENS_9allocatorIcEEEENS_4lessIS6_EENS4_IS6_EEE3endEv
FN:1105,_ZNSt3__16__treeINS_12__value_typeINS_12basic_stringIcNS_11char_traitsIcEENS_9allocatorIcEEEEN5Catch7TagInfoEEENS_19__map_value_compareIS7_SA_NS_4lessIS7_EELb1EEENS5_ISA_EEE3endEv
FN:1105,_ZNSt3__16__treeINS_12__value_typeINS_12basic_stringIcNS_11char_traitsIcEENS_9allocatorIcEEEEPN5Catch14IGeneratorInfoEEENS_19__map_value_compareIS7_SB_NS_4lessIS7_EELb1EEENS5_ISB_EEE3endEv
FN:1107,_ZNKSt3__16__treeINS_12basic_stringIcNS_11char_traitsIcEENS_9allocatorIcEEEENS_4lessIS6_EENS4_IS6_EEE3endEv
FN:1107,_ZNKSt3__16__treeINS_12__value_typeINS_12basic_stringIcNS_11char_traitsIcEENS_9allocatorIcEEEEN5Catch3PtrINS8_16IReporterFactoryEEEEENS_19__map_value_compareIS7_SC_NS_4lessIS7_EELb1EEENS5_ISC_EEE3endEv
FN:1107,_ZNKSt3__16__treeINS_12__value_typeINS_12basic_stringIcNS_11char_traitsIcEENS_9allocatorIcEEEEN5Catch8TagAliasEEENS_19__map_value_compareIS7_SA_NS_4lessIS7_EELb1EEENS5_ISA_EEE3endEv
FN:1107,_ZNKSt3__16__treeINS_12__value_typeIiN5Catch5Clara11CommandLineINS2_10ConfigDataEE3ArgEEENS_19__map_value_compareIiS8_NS_4lessIiEELb1EEENS_9allocatorIS8_EEE3endEv
FN:1247,_ZNSt3__16__treeINS_12__value_typeINS_12basic_stringIcNS_11char_traitsIcEENS_9allocatorIcEEEEN5Catch3PtrINS8_16IReporterFactoryEEEEENS_19__map_value_compareIS7_SC_NS_4lessIS7_EELb1EEENS5_ISC_EEE15__insert_uniqueERKNS_4pairIKS7_SB_EE
FN:1247,_ZNSt3__16__treeINS_12__value_typeINS_12basic_stringIcNS_11char_traitsIcEENS_9allocatorIcEEEEN5Catch7TagInfoEEENS_19__map_value_compareIS7_SA_NS_4lessIS7_EELb1EEENS5_ISA_EEE15__insert_uniqueERKNS_4pairIKS7_S9_EE
FN:1247,_ZNSt3__16__treeINS_12__value_typeINS_12basic_stringIcNS_11char_traitsIcEENS_9allocatorIcEEEEN5Catch8TagAliasEEENS_19__map_value_compareIS7_SA_NS_4lessIS7_EELb1EEENS5_ISA_EEE15__insert_uniqueERKNS_4pairIKS7_S9_EE
FN:1247,_ZNSt3__16__treeINS_12__value_typeINS_12basic_stringIcNS_11char_traitsIcEENS_9allocatorIcEEEEPN5Catch14IGeneratorInfoEEENS_19__map_value_compareIS7_SB_NS_4lessIS7_EELb1EEENS5_ISB_EEE15__insert_uniqueERKNS_4pairIKS7_SA_EE
FN:1247,_ZNSt3__16__treeINS_12basic_stringIcNS_11char_traitsIcEENS_9allocatorIcEEEENS_4lessIS6_EENS4_IS6_EEE15__insert_uniqueERKS6_
FN:1247,_ZNSt3__16__treeIN5Catch8TestCaseENS_4lessIS2_EENS_9allocatorIS2_EEE15__insert_uniqueERKS2_
FN:1247,_ZNSt3__16__treeINS_12__value_typeINS_12basic_stringIcNS_11char_traitsIcEENS_9allocatorIcEEEEPN5Catch18IGeneratorsForTestEEENS_19__map_value_compareIS7_SB_NS_4lessIS7_EELb1EEENS5_ISB_EEE15__insert_uniqueERKNS_4pairIKS7_SA_EE
FN:1252,_ZNSt3__16__treeINS_12basic_stringIcNS_11char_traitsIcEENS_9allocatorIcEEEENS_4lessIS6_EENS4_IS6_EEE15__insert_uniqueENS_21__tree_const_iteratorIS6_PNS_11__tree_nodeIS6_PvEElEERKS6_
FN:1428,_ZNSt3__16__treeINS_12basic_stringIcNS_11char_traitsIcEENS_9allocatorIcEEEENS_4lessIS6_EENS4_IS6_EEE19__copy_assign_allocERKSA_
FN:1440,_ZNSt3__16__treeINS_12basic_stringIcNS_11char_traitsIcEENS_9allocatorIcEEEENS_4lessIS6_EENS4_IS6_EEE19__copy_assign_allocERKSA_NS_17integral_constantIbLb0EEE
FN:1465,_ZNSt3__13mapINS_12basic_stringIcNS_11char_traitsIcEENS_9allocatorIcEEEEN5Catch3PtrINS7_16IReporterFactoryEEENS_4lessIS6_EENS4_INS_4pairIKS6_SA_EEEEED2Ev
FN:1465,_ZNSt3__13mapINS_12basic_stringIcNS_11char_traitsIcEENS_9allocatorIcEEEEN5Catch3PtrINS7_16IReporterFactoryEEENS_4lessIS6_EENS4_INS_4pairIKS6_SA_EEEEED1Ev
FN:1465,_ZNSt3__13mapINS_12basic_stringIcNS_11char_traitsIcEENS_9allocatorIcEEEEPN5Catch18IGeneratorsForTestENS_4lessIS6_EENS4_INS_4pairIKS6_S9_EEEEED2Ev
FN:1465,_ZNSt3__13mapINS_12basic_stringIcNS_11char_traitsIcEENS_9allocatorIcEEEEPN5Catch18IGeneratorsForTestENS_4lessIS6_EENS4_INS_4pairIKS6_S9_EEEEED1Ev
FN:1470,_ZNSt3__16__treeINS_12__value_typeINS_12basic_stringIcNS_11char_traitsIcEENS_9allocatorIcEEEEPN5Catch18IGeneratorsForTestEEENS_19__map_value_compareIS7_SB_NS_4lessIS7_EELb1EEENS5_ISB_EEEC2ERKSF_
FN:1470,_ZNSt3__16__treeIN5Catch8TestCaseENS_4lessIS2_EENS_9allocatorIS2_EEEC2ERKS4_
FN:1470,_ZNSt3__16__treeINS_12__value_typeINS_12basic_stringIcNS_11char_traitsIcEENS_9allocatorIcEEEEN5Catch3PtrINS8_16IReporterFactoryEEEEENS_19__map_value_compareIS7_SC_NS_4lessIS7_EELb1EEENS5_ISC_EEEC2ERKSG_
FN:1470,_ZNSt3__16__treeINS_12__value_typeIiN5Catch5Clara11CommandLineINS2_10ConfigDataEE3ArgEEENS_19__map_value_compareIiS8_NS_4lessIiEELb1EEENS_9allocatorIS8_EEEC1ERKSC_
FN:1470,_ZNSt3__16__treeINS_12__value_typeINS_12basic_stringIcNS_11char_traitsIcEENS_9allocatorIcEEEEPN5Catch18IGeneratorsForTestEEENS_19__map_value_compareIS7_SB_NS_4lessIS7_EELb1EEENS5_ISB_EEEC1ERKSF_
FN:1470,_ZNSt3__16__treeINS_12__value_typeINS_12basic_stringIcNS_11char_traitsIcEENS_9allocatorIcEEEEPN5Catch14IGeneratorInfoEEENS_19__map_value_compareIS7_SB_NS_4lessIS7_EELb1EEENS5_ISB_EEEC2ERKSF_
FN:1470,_ZNSt3__16__treeINS_12basic_stringIcNS_11char_traitsIcEENS_9allocatorIcEEEENS_4lessIS6_EENS4_IS6_EEEC2ERKS8_
FN:1470,_ZNSt3__16__treeINS_12basic_stringIcNS_11char_traitsIcEENS_9allocatorIcEEEENS_4lessIS6_EENS4_IS6_EEEC1ERKS8_
FN:1470,_ZNSt3__16__treeINS_12__value_typeINS_12basic_stringIcNS_11char_traitsIcEENS_9allocatorIcEEEEN5Catch7TagInfoEEENS_19__map_value_compareIS7_SA_NS_4lessIS7_EELb1EEENS5_ISA_EEEC1ERKSE_
FN:1470,_ZNSt3__16__treeINS_12__value_typeINS_12basic_stringIcNS_11char_traitsIcEENS_9allocatorIcEEEEN5Catch8TagAliasEEENS_19__map_value_compareIS7_SA_NS_4lessIS7_EELb1EEENS5_ISA_EEEC2ERKSE_
FN:1470,_ZNSt3__16__treeINS_12__value_typeINS_12basic_stringIcNS_11char_traitsIcEENS_9allocatorIcEEEEN5Catch8TagAliasEEENS_19__map_value_compareIS7_SA_NS_4lessIS7_EELb1EEENS5_ISA_EEEC1ERKSE_
FN:1470,_ZNSt3__16__treeIN5Catch8TestCaseENS_4lessIS2_EENS_9allocatorIS2_EEEC1ERKS4_
FN:1470,_ZNSt3__16__treeINS_12__value_typeIiN5Catch5Clara11CommandLineINS2_10ConfigDataEE3ArgEEENS_19__map_value_compareIiS8_NS_4lessIiEELb1EEENS_9allocatorIS8_EEEC2ERKSC_
FN:1470,_ZNSt3__16__treeINS_12__value_typeINS_12basic_stringIcNS_11char_traitsIcEENS_9allocatorIcEEEEN5Catch7TagInfoEEENS_19__map_value_compareIS7_SA_NS_4lessIS7_EELb1EEENS5_ISA_EEEC2ERKSE_
FN:1470,_ZNSt3__16__treeINS_12__value_typeINS_12basic_stringIcNS_11char_traitsIcEENS_9allocatorIcEEEEN5Catch3PtrINS8_16IReporterFactoryEEEEENS_19__map_value_compareIS7_SC_NS_4lessIS7_EELb1EEENS5_ISC_EEEC1ERKSG_
FN:1470,_ZNSt3__16__treeINS_12__value_typeINS_12basic_stringIcNS_11char_traitsIcEENS_9allocatorIcEEEEPN5Catch14IGeneratorInfoEEENS_19__map_value_compareIS7_SB_NS_4lessIS7_EELb1EEENS5_ISB_EEEC1ERKSF_
FN:1501,_ZNSt3__16__treeINS_12basic_stringIcNS_11char_traitsIcEENS_9allocatorIcEEEENS_4lessIS6_EENS4_IS6_EEE8__detachEv
FN:1522,_ZNSt3__16__treeINS_12basic_stringIcNS_11char_traitsIcEENS_9allocatorIcEEEENS_4lessIS6_EENS4_IS6_EEE8__detachEPNS_11__tree_nodeIS6_PvEE
FN:1544,_ZNSt3__16__treeINS_12basic_stringIcNS_11char_traitsIcEENS_9allocatorIcEEEENS_4lessIS6_EENS4_IS6_EEEaSERKSA_
FN:1603,_ZNSt3__16__treeINS_12basic_stringIcNS_11char_traitsIcEENS_9allocatorIcEEEENS_4lessIS6_EENS4_IS6_EEE14__assign_multiINS_21__tree_const_iteratorIS6_PNS_11__tree_nodeIS6_PvEElEEEEvT_SI_
FN:1647,_ZNSt3__16__treeINS_12basic_stringIcNS_11char_traitsIcEENS_9allocatorIcEEEENS_4lessIS6_EENS4_IS6_EEEC1ERKSA_
FN:1647,_ZNSt3__16__treeINS_12basic_stringIcNS_11char_traitsIcEENS_9allocatorIcEEEENS_4lessIS6_EENS4_IS6_EEEC2ERKSA_
FN:1788,_ZNSt3__16__treeINS_12__value_typeINS_12basic_stringIcNS_11char_traitsIcEENS_9allocatorIcEEEEN5Catch3PtrINS8_16IReporterFactoryEEEEENS_19__map_value_compareIS7_SC_NS_4lessIS7_EELb1EEENS5_ISC_EEED1Ev
FN:1788,_ZNSt3__16__treeINS_12basic_stringIcNS_11char_traitsIcEENS_9allocatorIcEEEENS_4lessIS6_EENS4_IS6_EEED1Ev
FN:1788,_ZNSt3__16__treeINS_12__value_typeINS_12basic_stringIcNS_11char_traitsIcEENS_9allocatorIcEEEEN5Catch7TagInfoEEENS_19__map_value_compareIS7_SA_NS_4lessIS7_EELb1EEENS5_ISA_EEED1Ev
FN:1788,_ZNSt3__16__treeINS_12__value_typeINS_12basic_stringIcNS_11char_traitsIcEENS_9allocatorIcEEEEPN5Catch14IGeneratorInfoEEENS_19__map_value_compareIS7_SB_NS_4lessIS7_EELb1EEENS5_ISB_EEED2Ev
FN:1788,_ZNSt3__16__treeIN5Catch8TestCaseENS_4lessIS2_EENS_9allocatorIS2_EEED1Ev
FN:1788,_ZNSt3__16__treeIN5Catch8TestCaseENS_4lessIS2_EENS_9allocatorIS2_EEED2Ev
FN:1788,_ZNSt3__16__treeINS_12__value_typeIiN5Catch5Clara11CommandLineINS2_10ConfigDataEE3ArgEEENS_19__map_value_compareIiS8_NS_4lessIiEELb1EEENS_9allocatorIS8_EEED1Ev
FN:1788,_ZNSt3__16__treeINS_12__value_typeINS_12basic_stringIcNS_11char_traitsIcEENS_9allocatorIcEEEEPN5Catch18IGeneratorsForTestEEENS_19__map_value_compareIS7_SB_NS_4lessIS7_EELb1EEENS5_ISB_EEED2Ev
FN:1788,_ZNSt3__16__treeINS_12__value_typeINS_12basic_stringIcNS_11char_traitsIcEENS_9allocatorIcEEEEN5Catch7TagInfoEEENS_19__map_value_compareIS7_SA_NS_4lessIS7_EELb1EEENS5_ISA_EEED2Ev
FN:1788,_ZNSt3__16__treeINS_12__value_typeINS_12basic_stringIcNS_11char_traitsIcEENS_9allocatorIcEEEEN5Catch8TagAliasEEENS_19__map_value_compareIS7_SA_NS_4lessIS7_EELb1EEENS5_ISA_EEED1Ev
FN:1788,_ZNSt3__16__treeINS_12__value_typeINS_12basic_stringIcNS_11char_traitsIcEENS_9allocatorIcEEEEN5Catch3PtrINS8_16IReporterFactoryEEEEENS_19__map_value_compareIS7_SC_NS_4lessIS7_EELb1EEENS5_ISC_EEED2Ev
FN:1788,_ZNSt3__16__treeINS_12__value_typeIiN5Catch5Clara11CommandLineINS2_10ConfigDataEE3ArgEEENS_19__map_value_compareIiS8_NS_4lessIiEELb1EEENS_9allocatorIS8_EEED2Ev
FN:1788,_ZNSt3__16__treeINS_12__value_typeINS_12basic_stringIcNS_11char_traitsIcEENS_9allocatorIcEEEEN5Catch8TagAliasEEENS_19__map_value_compareIS7_SA_NS_4lessIS7_EELb1EEENS5_ISA_EEED2Ev
FN:1788,_ZNSt3__16__treeINS_12__value_typeINS_12basic_stringIcNS_11char_traitsIcEENS_9allocatorIcEEEEPN5Catch14IGeneratorInfoEEENS_19__map_value_compareIS7_SB_NS_4lessIS7_EELb1EEENS5_ISB_EEED1Ev
FN:1788,_ZNSt3__16__treeINS_12basic_stringIcNS_11char_traitsIcEENS_9allocatorIcEEEENS_4lessIS6_EENS4_IS6_EEED2Ev
FN:1788,_ZNSt3__16__treeINS_12__value_typeINS_12basic_stringIcNS_11char_traitsIcEENS_9allocatorIcEEEEPN5Catch18IGeneratorsForTestEEENS_19__map_value_compareIS7_SB_NS_4lessIS7_EELb1EEENS5_ISB_EEED1Ev
FN:1797,_ZNSt3__16__treeINS_12__value_typeIiN5Catch5Clara11CommandLineINS2_10ConfigDataEE3ArgEEENS_19__map_value_compareIiS8_NS_4lessIiEELb1EEENS_9allocatorIS8_EEE7destroyEPNS_11__tree_nodeIS8_PvEE
FN:1797,_ZNSt3__16__treeINS_12__value_typeINS_12basic_stringIcNS_11char_traitsIcEENS_9allocatorIcEEEEN5Catch7TagInfoEEENS_19__map_value_compareIS7_SA_NS_4lessIS7_EELb1EEENS5_ISA_EEE7destroyEPNS_11__tree_nodeISA_PvEE
FN:1797,_ZNSt3__16__treeINS_12__value_typeINS_12basic_stringIcNS_11char_traitsIcEENS_9allocatorIcEEEEN5Catch3PtrINS8_16IReporterFactoryEEEEENS_19__map_value_compareIS7_SC_NS_4lessIS7_EELb1EEENS5_ISC_EEE7destroyEPNS_11__tree_nodeISC_PvEE
FN:1797,_ZNSt3__16__treeINS_12basic_stringIcNS_11char_traitsIcEENS_9allocatorIcEEEENS_4lessIS6_EENS4_IS6_EEE7destroyEPNS_11__tree_nodeIS6_PvEE
FN:1797,_ZNSt3__16__treeIN5Catch8TestCaseENS_4lessIS2_EENS_9allocatorIS2_EEE7destroyEPNS_11__tree_nodeIS2_PvEE
FN:1797,_ZNSt3__16__treeINS_12__value_typeINS_12basic_stringIcNS_11char_traitsIcEENS_9allocatorIcEEEEPN5Catch14IGeneratorInfoEEENS_19__map_value_compareIS7_SB_NS_4lessIS7_EELb1EEENS5_ISB_EEE7destroyEPNS_11__tree_nodeISB_PvEE
FN:1797,_ZNSt3__16__treeINS_12__value_typeINS_12basic_stringIcNS_11char_traitsIcEENS_9allocatorIcEEEEPN5Catch18IGeneratorsForTestEEENS_19__map_value_compareIS7_SB_NS_4lessIS7_EELb1EEENS5_ISB_EEE7destroyEPNS_11__tree_nodeISB_PvEE
FN:1797,_ZNSt3__16__treeINS_12__value_typeINS_12basic_stringIcNS_11char_traitsIcEENS_9allocatorIcEEEEN5Catch8TagAliasEEENS_19__map_value_compareIS7_SA_NS_4lessIS7_EELb1EEENS5_ISA_EEE7destroyEPNS_11__tree_nodeISA_PvEE
FN:1811,_ZNSt3__16__treeINS_12basic_stringIcNS_11char_traitsIcEENS_9allocatorIcEEEENS_4lessIS6_EENS4_IS6_EEE4swapERSA_
FN:1839,_ZNSt3__16__treeINS_12basic_stringIcNS_11char_traitsIcEENS_9allocatorIcEEEENS_4lessIS6_EENS4_IS6_EEE5clearEv
FN:1891,_ZNSt3__16__treeINS_12basic_stringIcNS_11char_traitsIcEENS_9allocatorIcEEEENS_4lessIS6_EENS4_IS6_EEE16__find_leaf_highERPNS_15__tree_end_nodeIPNS_16__tree_node_baseIPvEEEERKS6_
FN:1969,_ZNSt3__16__treeINS_12__value_typeINS_12basic_stringIcNS_11char_traitsIcEENS_9allocatorIcEEEEN5Catch8TagAliasEEENS_19__map_value_compareIS7_SA_NS_4lessIS7_EELb1EEENS5_ISA_EEE12__find_equalIS7_EERPNS_16__tree_node_baseIPvEERPNS_15__tree_end_nodeISL_EERKT_
FN:1969,_ZNSt3__16__treeIN5Catch8TestCaseENS_4lessIS2_EENS_9allocatorIS2_EEE12__find_equalIS2_EERPNS_16__tree_node_baseIPvEERPNS_15__tree_end_nodeISC_EERKT_
FN:1969,_ZNSt3__16__treeINS_12__value_typeINS_12basic_stringIcNS_11char_traitsIcEENS_9allocatorIcEEEEPN5Catch18IGeneratorsForTestEEENS_19__map_value_compareIS7_SB_NS_4lessIS7_EELb1EEENS5_ISB_EEE12__find_equalIS7_EERPNS_16__tree_node_baseIPvEERPNS_15__tree_end_nodeISM_EERKT_
FN:1969,_ZNSt3__16__treeINS_12__value_typeINS_12basic_stringIcNS_11char_traitsIcEENS_9allocatorIcEEEEPN5Catch14IGeneratorInfoEEENS_19__map_value_compareIS7_SB_NS_4lessIS7_EELb1EEENS5_ISB_EEE12__find_equalIS7_EERPNS_16__tree_node_baseIPvEERPNS_15__tree_end_nodeISM_EERKT_
FN:1969,_ZNSt3__16__treeINS_12__value_typeINS_12basic_stringIcNS_11char_traitsIcEENS_9allocatorIcEEEEN5Catch7TagInfoEEENS_19__map_value_compareIS7_SA_NS_4lessIS7_EELb1EEENS5_ISA_EEE12__find_equalIS7_EERPNS_16__tree_node_baseIPvEERPNS_15__tree_end_nodeISL_EERKT_
FN:1969,_ZNSt3__16__treeINS_12__value_typeINS_12basic_stringIcNS_11char_traitsIcEENS_9allocatorIcEEEEN5Catch3PtrINS8_16IReporterFactoryEEEEENS_19__map_value_compareIS7_SC_NS_4lessIS7_EELb1EEENS5_ISC_EEE12__find_equalIS7_EERPNS_16__tree_node_baseIPvEERPNS_15__tree_end_nodeISN_EERKT_
FN:1969,_ZNSt3__16__treeINS_12basic_stringIcNS_11char_traitsIcEENS_9allocatorIcEEEENS_4lessIS6_EENS4_IS6_EEE12__find_equalIS6_EERPNS_16__tree_node_baseIPvEERPNS_15__tree_end_nodeISF_EERKT_
FN:2019,_ZNSt3__16__treeINS_12basic_stringIcNS_11char_traitsIcEENS_9allocatorIcEEEENS_4lessIS6_EENS4_IS6_EEE12__find_equalIS6_EERPNS_16__tree_node_baseIPvEENS_21__tree_const_iteratorIS6_PNS_11__tree_nodeIS6_SD_EElEERPNS_15__tree_end_nodeISF_EESG_RKT_
FN:2074,_ZNSt3__16__treeINS_12__value_typeINS_12basic_stringIcNS_11char_traitsIcEENS_9allocatorIcEEEEPN5Catch18IGeneratorsForTestEEENS_19__map_value_compareIS7_SB_NS_4lessIS7_EELb1EEENS5_ISB_EEE16__insert_node_atEPNS_15__tree_end_nodeIPNS_16__tree_node_baseIPvEEEERSM_SM_
FN:2074,_ZNSt3__16__treeINS_12__value_typeINS_12basic_stringIcNS_11char_traitsIcEENS_9allocatorIcEEEEN5Catch7TagInfoEEENS_19__map_value_compareIS7_SA_NS_4lessIS7_EELb1EEENS5_ISA_EEE16__insert_node_atEPNS_15__tree_end_nodeIPNS_16__tree_node_baseIPvEEEERSL_SL_
FN:2074,_ZNSt3__16__treeINS_12__value_typeINS_12basic_stringIcNS_11char_traitsIcEENS_9allocatorIcEEEEPN5Catch14IGeneratorInfoEEENS_19__map_value_compareIS7_SB_NS_4lessIS7_EELb1EEENS5_ISB_EEE16__insert_node_atEPNS_15__tree_end_nodeIPNS_16__tree_node_baseIPvEEEERSM_SM_
FN:2074,_ZNSt3__16__treeIN5Catch8TestCaseENS_4lessIS2_EENS_9allocatorIS2_EEE16__insert_node_atEPNS_15__tree_end_nodeIPNS_16__tree_node_baseIPvEEEERSC_SC_
FN:2074,_ZNSt3__16__treeINS_12basic_stringIcNS_11char_traitsIcEENS_9allocatorIcEEEENS_4lessIS6_EENS4_IS6_EEE16__insert_node_atEPNS_15__tree_end_nodeIPNS_16__tree_node_baseIPvEEEERSF_SF_
FN:2074,_ZNSt3__16__treeINS_12__value_typeINS_12basic_stringIcNS_11char_traitsIcEENS_9allocatorIcEEEEN5Catch8TagAliasEEENS_19__map_value_compareIS7_SA_NS_4lessIS7_EELb1EEENS5_ISA_EEE16__insert_node_atEPNS_15__tree_end_nodeIPNS_16__tree_node_baseIPvEEEERSL_SL_
FN:2074,_ZNSt3__16__treeINS_12__value_typeINS_12basic_stringIcNS_11char_traitsIcEENS_9allocatorIcEEEEN5Catch3PtrINS8_16IReporterFactoryEEEEENS_19__map_value_compareIS7_SC_NS_4lessIS7_EELb1EEENS5_ISC_EEE16__insert_node_atEPNS_15__tree_end_nodeIPNS_16__tree_node_baseIPvEEEERSN_SN_
FN:2098,_ZNSt3__16__treeINS_12__value_typeINS_12basic_stringIcNS_11char_traitsIcEENS_9allocatorIcEEEEN5Catch3PtrINS8_16IReporterFactoryEEEEENS_19__map_value_compareIS7_SC_NS_4lessIS7_EELb1EEENS5_ISC_EEE25__emplace_unique_key_argsIS7_KNS_4pairIKS7_SB_EEEENSK_INS_15__tree_iteratorISC_PNS_11__tree_nodeISC_PvEElEEbEERKT_RT0_
FN:2098,_ZNSt3__16__treeINS_12__value_typeINS_12basic_stringIcNS_11char_traitsIcEENS_9allocatorIcEEEEPN5Catch14IGeneratorInfoEEENS_19__map_value_compareIS7_SB_NS_4lessIS7_EELb1EEENS5_ISB_EEE25__emplace_unique_key_argsIS7_KNS_4pairIKS7_SA_EEEENSJ_INS_15__tree_iteratorISB_PNS_11__tree_nodeISB_PvEElEEbEERKT_RT0_
FN:2098,_ZNSt3__16__treeINS_12__value_typeINS_12basic_stringIcNS_11char_traitsIcEENS_9allocatorIcEEEEN5Catch7TagInfoEEENS_19__map_value_compareIS7_SA_NS_4lessIS7_EELb1EEENS5_ISA_EEE25__emplace_unique_key_argsIS7_KNS_4pairIKS7_S9_EEEENSI_INS_15__tree_iteratorISA_PNS_11__tree_nodeISA_PvEElEEbEERKT_RT0_
FN:2098,_ZNSt3__16__treeINS_12__value_typeINS_12basic_stringIcNS_11char_traitsIcEENS_9allocatorIcEEEEPN5Catch18IGeneratorsForTestEEENS_19__map_value_compareIS7_SB_NS_4lessIS7_EELb1EEENS5_ISB_EEE25__emplace_unique_key_argsIS7_KNS_4pairIKS7_SA_EEEENSJ_INS_15__tree_iteratorISB_PNS_11__tree_nodeISB_PvEElEEbEERKT_RT0_
FN:2098,_ZNSt3__16__treeINS_12__value_typeINS_12basic_stringIcNS_11char_traitsIcEENS_9allocatorIcEEEEN5Catch8TagAliasEEENS_19__map_value_compareIS7_SA_NS_4lessIS7_EELb1EEENS5_ISA_EEE25__emplace_unique_key_argsIS7_KNS_4pairIKS7_S9_EEEENSI_INS_15__tree_iteratorISA_PNS_11__tree_nodeISA_PvEElEEbEERKT_RT0_
FN:2098,_ZNSt3__16__treeINS_12basic_stringIcNS_11char_traitsIcEENS_9allocatorIcEEEENS_4lessIS6_EENS4_IS6_EEE25__emplace_unique_key_argsIS6_KS6_EENS_4pairINS_15__tree_iteratorIS6_PNS_11__tree_nodeIS6_PvEElEEbEERKT_RT0_
FN:2098,_ZNSt3__16__treeIN5Catch8TestCaseENS_4lessIS2_EENS_9allocatorIS2_EEE25__emplace_unique_key_argsIS2_KS2_EENS_4pairINS_15__tree_iteratorIS2_PNS_11__tree_nodeIS2_PvEElEEbEERKT_RT0_
FN:2130,_ZNSt3__16__treeINS_12basic_stringIcNS_11char_traitsIcEENS_9allocatorIcEEEENS_4lessIS6_EENS4_IS6_EEE30__emplace_hint_unique_key_argsIS6_KS6_EENS_15__tree_iteratorIS6_PNS_11__tree_nodeIS6_PvEElEENS_21__tree_const_iteratorIS6_SH_lEERKT_RT0_
FN:2236,_ZNSt3__16__treeINS_12__value_typeINS_12basic_stringIcNS_11char_traitsIcEENS_9allocatorIcEEEEN5Catch3PtrINS8_16IReporterFactoryEEEEENS_19__map_value_compareIS7_SC_NS_4lessIS7_EELb1EEENS5_ISC_EEE16__construct_nodeERKNS_4pairIKS7_SB_EE
FN:2236,_ZNSt3__16__treeIN5Catch8TestCaseENS_4lessIS2_EENS_9allocatorIS2_EEE16__construct_nodeERKS2_
FN:2236,_ZNSt3__16__treeINS_12__value_typeINS_12basic_stringIcNS_11char_traitsIcEENS_9allocatorIcEEEEPN5Catch14IGeneratorInfoEEENS_19__map_value_compareIS7_SB_NS_4lessIS7_EELb1EEENS5_ISB_EEE16__construct_nodeERKNS_4pairIKS7_SA_EE
FN:2236,_ZNSt3__16__treeINS_12__value_typeINS_12basic_stringIcNS_11char_traitsIcEENS_9allocatorIcEEEEN5Catch7TagInfoEEENS_19__map_value_compareIS7_SA_NS_4lessIS7_EELb1EEENS5_ISA_EEE16__construct_nodeERKNS_4pairIKS7_S9_EE
FN:2236,_ZNSt3__16__treeINS_12__value_typeINS_12basic_stringIcNS_11char_traitsIcEENS_9allocatorIcEEEEPN5Catch18IGeneratorsForTestEEENS_19__map_value_compareIS7_SB_NS_4lessIS7_EELb1EEENS5_ISB_EEE16__construct_nodeERKNS_4pairIKS7_SA_EE
FN:2236,_ZNSt3__16__treeINS_12basic_stringIcNS_11char_traitsIcEENS_9allocatorIcEEEENS_4lessIS6_EENS4_IS6_EEE16__construct_nodeERKS6_
FN:2236,_ZNSt3__16__treeINS_12__value_typeINS_12basic_stringIcNS_11char_traitsIcEENS_9allocatorIcEEEEN5Catch8TagAliasEEENS_19__map_value_compareIS7_SA_NS_4lessIS7_EELb1EEENS5_ISA_EEE16__construct_nodeERKNS_4pairIKS7_S9_EE
FN:2250,_ZNSt3__16__treeINS_12basic_stringIcNS_11char_traitsIcEENS_9allocatorIcEEEENS_4lessIS6_EENS4_IS6_EEE14__insert_multiERKS6_
FN:2307,_ZNSt3__16__treeINS_12basic_stringIcNS_11char_traitsIcEENS_9allocatorIcEEEENS_4lessIS6_EENS4_IS6_EEE19__node_insert_multiEPNS_11__tree_nodeIS6_PvEE
FN:2381,_ZNSt3__16__treeINS_12__value_typeINS_12basic_stringIcNS_11char_traitsIcEENS_9allocatorIcEEEEN5Catch7TagInfoEEENS_19__map_value_compareIS7_SA_NS_4lessIS7_EELb1EEENS5_ISA_EEE4findIS7_EENS_15__tree_iteratorISA_PNS_11__tree_nodeISA_PvEElEERKT_
FN:2381,_ZNSt3__16__treeINS_12__value_typeINS_12basic_stringIcNS_11char_traitsIcEENS_9allocatorIcEEEEPN5Catch18IGeneratorsForTestEEENS_19__map_value_compareIS7_SB_NS_4lessIS7_EELb1EEENS5_ISB_EEE4findIS7_EENS_15__tree_iteratorISB_PNS_11__tree_nodeISB_PvEElEERKT_
FN:2381,_ZNSt3__16__treeINS_12__value_typeINS_12basic_stringIcNS_11char_traitsIcEENS_9allocatorIcEEEEPN5Catch14IGeneratorInfoEEENS_19__map_value_compareIS7_SB_NS_4lessIS7_EELb1EEENS5_ISB_EEE4findIS7_EENS_15__tree_iteratorISB_PNS_11__tree_nodeISB_PvEElEERKT_
FN:2392,_ZNKSt3__16__treeINS_12__value_typeIiN5Catch5Clara11CommandLineINS2_10ConfigDataEE3ArgEEENS_19__map_value_compareIiS8_NS_4lessIiEELb1EEENS_9allocatorIS8_EEE4findIiEENS_21__tree_const_iteratorIS8_PNS_11__tree_nodeIS8_PvEElEERKT_
FN:2392,_ZNKSt3__16__treeINS_12__value_typeINS_12basic_stringIcNS_11char_traitsIcEENS_9allocatorIcEEEEN5Catch3PtrINS8_16IReporterFactoryEEEEENS_19__map_value_compareIS7_SC_NS_4lessIS7_EELb1EEENS5_ISC_EEE4findIS7_EENS_21__tree_const_iteratorISC_PNS_11__tree_nodeISC_PvEElEERKT_
FN:2392,_ZNKSt3__16__treeINS_12__value_typeINS_12basic_stringIcNS_11char_traitsIcEENS_9allocatorIcEEEEN5Catch8TagAliasEEENS_19__map_value_compareIS7_SA_NS_4lessIS7_EELb1EEENS5_ISA_EEE4findIS7_EENS_21__tree_const_iteratorISA_PNS_11__tree_nodeISA_PvEElEERKT_
FN:2392,_ZNKSt3__16__treeINS_12basic_stringIcNS_11char_traitsIcEENS_9allocatorIcEEEENS_4lessIS6_EENS4_IS6_EEE4findIS6_EENS_21__tree_const_iteratorIS6_PNS_11__tree_nodeIS6_PvEElEERKT_
FN:2448,_ZNSt3__16__treeINS_12__value_typeINS_12basic_stringIcNS_11char_traitsIcEENS_9allocatorIcEEEEN5Catch7TagInfoEEENS_19__map_value_compareIS7_SA_NS_4lessIS7_EELb1EEENS5_ISA_EEE13__lower_boundIS7_EENS_15__tree_iteratorISA_PNS_11__tree_nodeISA_PvEElEERKT_SM_PNS_15__tree_end_nodeIPNS_16__tree_node_baseISK_EEEE
FN:2448,_ZNSt3__16__treeINS_12__value_typeINS_12basic_stringIcNS_11char_traitsIcEENS_9allocatorIcEEEEPN5Catch18IGeneratorsForTestEEENS_19__map_value_compareIS7_SB_NS_4lessIS7_EELb1EEENS5_ISB_EEE13__lower_boundIS7_EENS_15__tree_iteratorISB_PNS_11__tree_nodeISB_PvEElEERKT_SN_PNS_15__tree_end_nodeIPNS_16__tree_node_baseISL_EEEE
FN:2448,_ZNSt3__16__treeINS_12__value_typeINS_12basic_stringIcNS_11char_traitsIcEENS_9allocatorIcEEEEPN5Catch14IGeneratorInfoEEENS_19__map_value_compareIS7_SB_NS_4lessIS7_EELb1EEENS5_ISB_EEE13__lower_boundIS7_EENS_15__tree_iteratorISB_PNS_11__tree_nodeISB_PvEElEERKT_SN_PNS_15__tree_end_nodeIPNS_16__tree_node_baseISL_EEEE
FN:2468,_ZNKSt3__16__treeINS_12__value_typeINS_12basic_stringIcNS_11char_traitsIcEENS_9allocatorIcEEEEN5Catch3PtrINS8_16IReporterFactoryEEEEENS_19__map_value_compareIS7_SC_NS_4lessIS7_EELb1EEENS5_ISC_EEE13__lower_boundIS7_EENS_21__tree_const_iteratorISC_PNS_11__tree_nodeISC_PvEElEERKT_SO_PNS_15__tree_end_nodeIPNS_16__tree_node_baseISM_EEEE
FN:2468,_ZNKSt3__16__treeINS_12__value_typeINS_12basic_stringIcNS_11char_traitsIcEENS_9allocatorIcEEEEN5Catch8TagAliasEEENS_19__map_value_compareIS7_SA_NS_4lessIS7_EELb1EEENS5_ISA_EEE13__lower_boundIS7_EENS_21__tree_const_iteratorISA_PNS_11__tree_nodeISA_PvEElEERKT_SM_PNS_15__tree_end_nodeIPNS_16__tree_node_baseISK_EEEE
FN:2468,_ZNKSt3__16__treeINS_12basic_stringIcNS_11char_traitsIcEENS_9allocatorIcEEEENS_4lessIS6_EENS4_IS6_EEE13__lower_boundIS6_EENS_21__tree_const_iteratorIS6_PNS_11__tree_nodeIS6_PvEElEERKT_SG_PNS_15__tree_end_nodeIPNS_16__tree_node_baseISE_EEEE
FN:2468,_ZNKSt3__16__treeINS_12__value_typeIiN5Catch5Clara11CommandLineINS2_10ConfigDataEE3ArgEEENS_19__map_value_compareIiS8_NS_4lessIiEELb1EEENS_9allocatorIS8_EEE13__lower_boundIiEENS_21__tree_const_iteratorIS8_PNS_11__tree_nodeIS8_PvEElEERKT_SL_PNS_15__tree_end_nodeIPNS_16__tree_node_baseISJ_EEEE
FNDA:4,_ZNSt3__120__tree_is_left_childIPNS_16__tree_node_baseIPvEEEEbT_
FNDA:0,_ZNSt3__110__tree_minIPNS_16__tree_node_baseIPvEEEET_S5_
FNDA:0,_ZNSt3__110__tree_maxIPNS_16__tree_node_baseIPvEEEET_S5_
FNDA:0,_ZNSt3__116__tree_next_iterIPNS_15__tree_end_nodeIPNS_16__tree_node_baseIPvEEEES5_EET_T0_
FNDA:0,_ZNSt3__116__tree_prev_iterIPNS_16__tree_node_baseIPvEEPNS_15__tree_end_nodeIS4_EEEET_T0_
FNDA:0,_ZNSt3__111__tree_leafIPNS_16__tree_node_baseIPvEEEET_S5_
FNDA:0,_ZNSt3__118__tree_left_rotateIPNS_16__tree_node_baseIPvEEEEvT_
FNDA:1,_ZNSt3__119__tree_right_rotateIPNS_16__tree_node_baseIPvEEEEvT_
FNDA:5,_ZNSt3__127__tree_balance_after_insertIPNS_16__tree_node_baseIPvEEEEvT_S5_
FNDA:0,_ZNSt3__122__tree_key_value_typesINS_12basic_stringIcNS_11char_traitsIcEENS_9allocatorIcEEEEE9__get_keyERKS6_
FNDA:1,_ZNSt3__122__tree_key_value_typesIN5Catch8TestCaseEE9__get_keyERKS2_
FNDA:0,_ZNSt3__122__tree_key_value_typesINS_12basic_stringIcNS_11char_traitsIcEENS_9allocatorIcEEEEE11__get_valueERKS6_
FNDA:0,_ZNSt3__122__tree_key_value_typesINS_12basic_stringIcNS_11char_traitsIcEENS_9allocatorIcEEEEE9__get_ptrERS6_
FNDA:2,_ZNSt3__122__tree_key_value_typesIN5Catch8TestCaseEE9__get_ptrERS2_
FNDA:4,_ZNSt3__122__tree_key_value_typesINS_12__value_typeINS_12basic_stringIcNS_11char_traitsIcEENS_9allocatorIcEEEEN5Catch3PtrINS8_16IReporterFactoryEEEEEE9__get_keyIKNS_4pairIKS7_SB_EEEENS_9enable_ifIXsr17__is_same_uncvrefIT_SH_EE5valueERSG_E4typeERSK_
FNDA:0,_ZNSt3__122__tree_key_value_typesINS_12__value_typeINS_12basic_stringIcNS_11char_traitsIcEENS_9allocatorIcEEEEPN5Catch18IGeneratorsForTestEEEE9__get_keyIKNS_4pairIKS7_SA_EEEENS_9enable_ifIXsr17__is_same_uncvrefIT_SG_EE5valueERSF_E4typeERSJ_
FNDA:0,_ZNSt3__122__tree_key_value_typesINS_12__value_typeINS_12basic_stringIcNS_11char_traitsIcEENS_9allocatorIcEEEEPN5Catch14IGeneratorInfoEEEE9__get_keyIKNS_4pairIKS7_SA_EEEENS_9enable_ifIXsr17__is_same_uncvrefIT_SG_EE5valueERSF_E4typeERSJ_
FNDA:0,_ZNSt3__122__tree_key_value_typesINS_12__value_typeINS_12basic_stringIcNS_11char_traitsIcEENS_9allocatorIcEEEEN5Catch7TagInfoEEEE9__get_keyIKNS_4pairIKS7_S9_EEEENS_9enable_ifIXsr17__is_same_uncvrefIT_SF_EE5valueERSE_E4typeERSI_
FNDA:0,_ZNSt3__122__tree_key_value_typesINS_12__value_typeINS_12basic_stringIcNS_11char_traitsIcEENS_9allocatorIcEEEEN5Catch8TagAliasEEEE9__get_keyIKNS_4pairIKS7_S9_EEEENS_9enable_ifIXsr17__is_same_uncvrefIT_SF_EE5valueERSE_E4typeERSI_
FNDA:8,_ZNSt3__122__tree_key_value_typesINS_12__value_typeINS_12basic_stringIcNS_11char_traitsIcEENS_9allocatorIcEEEEN5Catch3PtrINS8_16IReporterFactoryEEEEEE9__get_ptrERSC_
FNDA:0,_ZNSt3__122__tree_key_value_typesINS_12__value_typeINS_12basic_stringIcNS_11char_traitsIcEENS_9allocatorIcEEEEPN5Catch18IGeneratorsForTestEEEE9__get_ptrERSB_
FNDA:0,_ZNSt3__122__tree_key_value_typesINS_12__value_typeINS_12basic_stringIcNS_11char_traitsIcEENS_9allocatorIcEEEEPN5Catch14IGeneratorInfoEEEE9__get_ptrERSB_
FNDA:0,_ZNSt3__122__tree_key_value_typesINS_12__value_typeINS_12basic_stringIcNS_11char_traitsIcEENS_9allocatorIcEEEEN5Catch8TagAliasEEEE9__get_ptrERSA_
FNDA:0,_ZNSt3__122__tree_key_value_typesINS_12__value_typeIiN5Catch5Clara11CommandLineINS2_10ConfigDataEE3ArgEEEE9__get_ptrERS8_
FNDA:0,_ZNSt3__122__tree_key_value_typesINS_12__value_typeINS_12basic_stringIcNS_11char_traitsIcEENS_9allocatorIcEEEEN5Catch7TagInfoEEEE9__get_ptrERSA_
FNDA:24,_ZNSt3__115__tree_end_nodeIPNS_16__tree_node_baseIPvEEEC1Ev
FNDA:24,_ZNSt3__115__tree_end_nodeIPNS_16__tree_node_baseIPvEEEC2Ev
FNDA:13,_ZNKSt3__116__tree_node_baseIPvE15__parent_unsafeEv
FNDA:1,_ZNSt3__116__tree_node_baseIPvE12__set_parentEPS2_
FNDA:4,_ZNSt3__122__tree_node_destructorINS_9allocatorINS_11__tree_nodeINS_12__value_typeINS_12basic_stringIcNS_11char_traitsIcEENS1_IcEEEEN5Catch3PtrINS9_16IReporterFactoryEEEEEPvEEEEEC1ERSG_b
FNDA:4,_ZNSt3__122__tree_node_destructorINS_9allocatorINS_11__tree_nodeINS_12__value_typeINS_12basic_stringIcNS_11char_traitsIcEENS1_IcEEEEN5Catch3PtrINS9_16IReporterFactoryEEEEEPvEEEEEC2ERSG_b
FNDA:0,_ZNSt3__122__tree_node_destructorINS_9allocatorINS_11__tree_nodeINS_12__value_typeINS_12basic_stringIcNS_11char_traitsIcEENS1_IcEEEEPN5Catch18IGeneratorsForTestEEEPvEEEEEC1ERSF_b
FNDA:0,_ZNSt3__122__tree_node_destructorINS_9allocatorINS_11__tree_nodeINS_12__value_typeINS_12basic_stringIcNS_11char_traitsIcEENS1_IcEEEEPN5Catch18IGeneratorsForTestEEEPvEEEEEC2ERSF_b
FNDA:0,_ZNSt3__122__tree_node_destructorINS_9allocatorINS_11__tree_nodeINS_12__value_typeINS_12basic_stringIcNS_11char_traitsIcEENS1_IcEEEEPN5Catch14IGeneratorInfoEEEPvEEEEEC1ERSF_b
FNDA:0,_ZNSt3__122__tree_node_destructorINS_9allocatorINS_11__tree_nodeINS_12__value_typeINS_12basic_stringIcNS_11char_traitsIcEENS1_IcEEEEPN5Catch14IGeneratorInfoEEEPvEEEEEC2ERSF_b
FNDA:0,_ZNSt3__122__tree_node_destructorINS_9allocatorINS_11__tree_nodeINS_12__value_typeINS_12basic_stringIcNS_11char_traitsIcEENS1_IcEEEEN5Catch7TagInfoEEEPvEEEEEC1ERSE_b
FNDA:0,_ZNSt3__122__tree_node_destructorINS_9allocatorINS_11__tree_nodeINS_12__value_typeINS_12basic_stringIcNS_11char_traitsIcEENS1_IcEEEEN5Catch7TagInfoEEEPvEEEEEC2ERSE_b
FNDA:0,_ZNSt3__122__tree_node_destructorINS_9allocatorINS_11__tree_nodeINS_12basic_stringIcNS_11char_traitsIcEENS1_IcEEEEPvEEEEEC1ERSA_b
FNDA:0,_ZNSt3__122__tree_node_destructorINS_9allocatorINS_11__tree_nodeINS_12basic_stringIcNS_11char_traitsIcEENS1_IcEEEEPvEEEEEC2ERSA_b
FNDA:1,_ZNSt3__122__tree_node_destructorINS_9allocatorINS_11__tree_nodeIN5Catch8TestCaseEPvEEEEEC1ERS7_b
FNDA:1,_ZNSt3__122__tree_node_destructorINS_9allocatorINS_11__tree_nodeIN5Catch8TestCaseEPvEEEEEC2ERS7_b
FNDA:0,_ZNSt3__122__tree_node_destructorINS_9allocatorINS_11__tree_nodeINS_12__value_typeINS_12basic_stringIcNS_11char_traitsIcEENS1_IcEEEEN5Catch8TagAliasEEEPvEEEEEC1ERSE_b
FNDA:0,_ZNSt3__122__tree_node_destructorINS_9allocatorINS_11__tree_nodeINS_12__value_typeINS_12basic_stringIcNS_11char_traitsIcEENS1_IcEEEEN5Catch8TagAliasEEEPvEEEEEC2ERSE_b
FNDA:0,_ZNSt3__122__tree_node_destructorINS_9allocatorINS_11__tree_nodeINS_12__value_typeINS_12basic_stringIcNS_11char_traitsIcEENS1_IcEEEEN5Catch3PtrINS9_16IReporterFactoryEEEEEPvEEEEEclEPSF_
FNDA:0,_ZNSt3__122__tree_node_destructorINS_9allocatorINS_11__tree_nodeINS_12__value_typeINS_12basic_stringIcNS_11char_traitsIcEENS1_IcEEEEPN5Catch18IGeneratorsForTestEEEPvEEEEEclEPSE_
FNDA:0,_ZNSt3__122__tree_node_destructorINS_9allocatorINS_11__tree_nodeINS_12__value_typeINS_12basic_stringIcNS_11char_traitsIcEENS1_IcEEEEPN5Catch14IGeneratorInfoEEEPvEEEEEclEPSE_
FNDA:0,_ZNSt3__122__tree_node_destructorINS_9allocatorINS_11__tree_nodeINS_12__value_typeINS_12basic_stringIcNS_11char_traitsIcEENS1_IcEEEEN5Catch7TagInfoEEEPvEEEEEclEPSD_
FNDA:0,_ZNSt3__122__tree_node_destructorINS_9allocatorINS_11__tree_nodeINS_12basic_stringIcNS_11char_traitsIcEENS1_IcEEEEPvEEEEEclEPS9_
FNDA:0,_ZNSt3__122__tree_node_destructorINS_9allocatorINS_11__tree_nodeIN5Catch8TestCaseEPvEEEEEclEPS6_
FNDA:0,_ZNSt3__122__tree_node_destructorINS_9allocatorINS_11__tree_nodeINS_12__value_typeINS_12basic_stringIcNS_11char_traitsIcEENS1_IcEEEEN5Catch8TagAliasEEEPvEEEEEclEPSD_
FNDA:0,_ZNKSt3__115__tree_iteratorINS_12__value_typeINS_12basic_stringIcNS_11char_traitsIcEENS_9allocatorIcEEEEPN5Catch18IGeneratorsForTestEEEPNS_11__tree_nodeISB_PvEElEdeEv
FNDA:0,_ZNKSt3__115__tree_iteratorINS_12__value_typeINS_12basic_stringIcNS_11char_traitsIcEENS_9allocatorIcEEEEPN5Catch14IGeneratorInfoEEEPNS_11__tree_nodeISB_PvEElEdeEv
FNDA:0,_ZNKSt3__115__tree_iteratorINS_12__value_typeINS_12basic_stringIcNS_11char_traitsIcEENS_9allocatorIcEEEEN5Catch7TagInfoEEEPNS_11__tree_nodeISA_PvEElEdeEv
FNDA:0,_ZNKSt3__115__tree_iteratorINS_12__value_typeINS_12basic_stringIcNS_11char_traitsIcEENS_9allocatorIcEEEEN5Catch7TagInfoEEEPNS_11__tree_nodeISA_PvEElEptEv
FNDA:1,_ZNSt3__1eqERKNS_15__tree_iteratorINS_12__value_typeINS_12basic_stringIcNS_11char_traitsIcEENS_9allocatorIcEEEEPN5Catch18IGeneratorsForTestEEEPNS_11__tree_nodeISB_PvEElEESI_
FNDA:0,_ZNSt3__1eqERKNS_15__tree_iteratorINS_12__value_typeINS_12basic_stringIcNS_11char_traitsIcEENS_9allocatorIcEEEEPN5Catch14IGeneratorInfoEEEPNS_11__tree_nodeISB_PvEElEESI_
FNDA:0,_ZNSt3__1eqERKNS_15__tree_iteratorINS_12__value_typeINS_12basic_stringIcNS_11char_traitsIcEENS_9allocatorIcEEEEN5Catch7TagInfoEEEPNS_11__tree_nodeISA_PvEElEESH_
FNDA:1,_ZNSt3__1neERKNS_15__tree_iteratorINS_12__value_typeINS_12basic_stringIcNS_11char_traitsIcEENS_9allocatorIcEEEEPN5Catch18IGeneratorsForTestEEEPNS_11__tree_nodeISB_PvEElEESI_
FNDA:0,_ZNSt3__1neERKNS_15__tree_iteratorINS_12__value_typeINS_12basic_stringIcNS_11char_traitsIcEENS_9allocatorIcEEEEPN5Catch14IGeneratorInfoEEEPNS_11__tree_nodeISB_PvEElEESI_
FNDA:0,_ZNSt3__1neERKNS_15__tree_iteratorINS_12__value_typeINS_12basic_stringIcNS_11char_traitsIcEENS_9allocatorIcEEEEN5Catch7TagInfoEEEPNS_11__tree_nodeISA_PvEElEESH_
FNDA:4,_ZNSt3__115__tree_iteratorINS_12__value_typeINS_12basic_stringIcNS_11char_traitsIcEENS_9allocatorIcEEEEN5Catch3PtrINS8_16IReporterFactoryEEEEEPNS_11__tree_nodeISC_PvEElEC1ESG_
FNDA:4,_ZNSt3__115__tree_iteratorINS_12__value_typeINS_12basic_stringIcNS_11char_traitsIcEENS_9allocatorIcEEEEN5Catch3PtrINS8_16IReporterFactoryEEEEEPNS_11__tree_nodeISC_PvEElEC2ESG_
FNDA:0,_ZNSt3__115__tree_iteratorINS_12__value_typeINS_12basic_stringIcNS_11char_traitsIcEENS_9allocatorIcEEEEPN5Catch18IGeneratorsForTestEEEPNS_11__tree_nodeISB_PvEElEC1ESF_
FNDA:0,_ZNSt3__115__tree_iteratorINS_12__value_typeINS_12basic_stringIcNS_11char_traitsIcEENS_9allocatorIcEEEEPN5Catch18IGeneratorsForTestEEEPNS_11__tree_nodeISB_PvEElEC2ESF_
FNDA:0,_ZNSt3__115__tree_iteratorINS_12__value_typeINS_12basic_stringIcNS_11char_traitsIcEENS_9allocatorIcEEEEPN5Catch14IGeneratorInfoEEEPNS_11__tree_nodeISB_PvEElEC1ESF_
FNDA:0,_ZNSt3__115__tree_iteratorINS_12__value_typeINS_12basic_stringIcNS_11char_traitsIcEENS_9allocatorIcEEEEPN5Catch14IGeneratorInfoEEEPNS_11__tree_nodeISB_PvEElEC2ESF_
FNDA:0,_ZNSt3__115__tree_iteratorINS_12__value_typeINS_12basic_stringIcNS_11char_traitsIcEENS_9allocatorIcEEEEN5Catch7TagInfoEEEPNS_11__tree_nodeISA_PvEElEC1ESE_
FNDA:0,_ZNSt3__115__tree_iteratorINS_12__value_typeINS_12basic_stringIcNS_11char_traitsIcEENS_9allocatorIcEEEEN5Catch7TagInfoEEEPNS_11__tree_nodeISA_PvEElEC2ESE_
FNDA:0,_ZNSt3__115__tree_iteratorINS_12basic_stringIcNS_11char_traitsIcEENS_9allocatorIcEEEEPNS_11__tree_nodeIS6_PvEElEC1ESA_
FNDA:0,_ZNSt3__115__tree_iteratorINS_12basic_stringIcNS_11char_traitsIcEENS_9allocatorIcEEEEPNS_11__tree_nodeIS6_PvEElEC2ESA_
FNDA:1,_ZNSt3__115__tree_iteratorIN5Catch8TestCaseEPNS_11__tree_nodeIS2_PvEElEC1ES6_
FNDA:1,_ZNSt3__115__tree_iteratorIN5Catch8TestCaseEPNS_11__tree_nodeIS2_PvEElEC2ES6_
FNDA:0,_ZNSt3__115__tree_iteratorINS_12__value_typeINS_12basic_stringIcNS_11char_traitsIcEENS_9allocatorIcEEEEN5Catch8TagAliasEEEPNS_11__tree_nodeISA_PvEElEC1ESE_
FNDA:0,_ZNSt3__115__tree_iteratorINS_12__value_typeINS_12basic_stringIcNS_11char_traitsIcEENS_9allocatorIcEEEEN5Catch8TagAliasEEEPNS_11__tree_nodeISA_PvEElEC2ESE_
FNDA:6,_ZNSt3__115__tree_iteratorINS_12__value_typeINS_12basic_stringIcNS_11char_traitsIcEENS_9allocatorIcEEEEPN5Catch18IGeneratorsForTestEEEPNS_11__tree_nodeISB_PvEElEC1EPNS_15__tree_end_nodeIPNS_16__tree_node_baseISD_EEEE
FNDA:6,_ZNSt3__115__tree_iteratorINS_12__value_typeINS_12basic_stringIcNS_11char_traitsIcEENS_9allocatorIcEEEEPN5Catch18IGeneratorsForTestEEEPNS_11__tree_nodeISB_PvEElEC2EPNS_15__tree_end_nodeIPNS_16__tree_node_baseISD_EEEE
FNDA:0,_ZNSt3__115__tree_iteratorINS_12__value_typeINS_12basic_stringIcNS_11char_traitsIcEENS_9allocatorIcEEEEPN5Catch14IGeneratorInfoEEEPNS_11__tree_nodeISB_PvEElEC1EPNS_15__tree_end_nodeIPNS_16__tree_node_baseISD_EEEE
FNDA:0,_ZNSt3__115__tree_iteratorINS_12__value_typeINS_12basic_stringIcNS_11char_traitsIcEENS_9allocatorIcEEEEPN5Catch14IGeneratorInfoEEEPNS_11__tree_nodeISB_PvEElEC2EPNS_15__tree_end_nodeIPNS_16__tree_node_baseISD_EEEE
FNDA:0,_ZNSt3__115__tree_iteratorINS_12__value_typeINS_12basic_stringIcNS_11char_traitsIcEENS_9allocatorIcEEEEN5Catch7TagInfoEEEPNS_11__tree_nodeISA_PvEElEC1EPNS_15__tree_end_nodeIPNS_16__tree_node_baseISC_EEEE
FNDA:0,_ZNSt3__115__tree_iteratorINS_12__value_typeINS_12basic_stringIcNS_11char_traitsIcEENS_9allocatorIcEEEEN5Catch7TagInfoEEEPNS_11__tree_nodeISA_PvEElEC2EPNS_15__tree_end_nodeIPNS_16__tree_node_baseISC_EEEE
FNDA:0,_ZNSt3__115__tree_iteratorINS_12basic_stringIcNS_11char_traitsIcEENS_9allocatorIcEEEEPNS_11__tree_nodeIS6_PvEElEC1EPNS_15__tree_end_nodeIPNS_16__tree_node_baseIS8_EEEE
FNDA:0,_ZNSt3__115__tree_iteratorINS_12basic_stringIcNS_11char_traitsIcEENS_9allocatorIcEEEEPNS_11__tree_nodeIS6_PvEElEC2EPNS_15__tree_end_nodeIPNS_16__tree_node_baseIS8_EEEE
FNDA:0,_ZNKSt3__115__tree_iteratorINS_12__value_typeINS_12basic_stringIcNS_11char_traitsIcEENS_9allocatorIcEEEEPN5Catch18IGeneratorsForTestEEEPNS_11__tree_nodeISB_PvEElE8__get_npEv
FNDA:0,_ZNKSt3__115__tree_iteratorINS_12__value_typeINS_12basic_stringIcNS_11char_traitsIcEENS_9allocatorIcEEEEPN5Catch14IGeneratorInfoEEEPNS_11__tree_nodeISB_PvEElE8__get_npEv
FNDA:0,_ZNKSt3__115__tree_iteratorINS_12__value_typeINS_12basic_stringIcNS_11char_traitsIcEENS_9allocatorIcEEEEN5Catch7TagInfoEEEPNS_11__tree_nodeISA_PvEElE8__get_npEv
FNDA:1,_ZNSt3__13mapINS_12basic_stringIcNS_11char_traitsIcEENS_9allocatorIcEEEEN5Catch8TagAliasENS_4lessIS6_EENS4_INS_4pairIKS6_S8_EEEEED1Ev
FNDA:1,_ZNSt3__13mapINS_12basic_stringIcNS_11char_traitsIcEENS_9allocatorIcEEEEN5Catch8TagAliasENS_4lessIS6_EENS4_INS_4pairIKS6_S8_EEEEED2Ev
FNDA:0,_ZNSt3__13mapINS_12basic_stringIcNS_11char_traitsIcEENS_9allocatorIcEEEEN5Catch7TagInfoENS_4lessIS6_EENS4_INS_4pairIKS6_S8_EEEEED1Ev
FNDA:0,_ZNSt3__13mapINS_12basic_stringIcNS_11char_traitsIcEENS_9allocatorIcEEEEN5Catch7TagInfoENS_4lessIS6_EENS4_INS_4pairIKS6_S8_EEEEED2Ev
FNDA:1,_ZNSt3__13setIN5Catch8TestCaseENS_4lessIS2_EENS_9allocatorIS2_EEED1Ev
FNDA:1,_ZNSt3__13setIN5Catch8TestCaseENS_4lessIS2_EENS_9allocatorIS2_EEED2Ev
FNDA:0,_ZNSt3__121__tree_const_iteratorINS_12__value_typeINS_12basic_stringIcNS_11char_traitsIcEENS_9allocatorIcEEEEN5Catch3PtrINS8_16IReporterFactoryEEEEEPNS_11__tree_nodeISC_PvEElEC1Ev
FNDA:0,_ZNSt3__121__tree_const_iteratorINS_12__value_typeINS_12basic_stringIcNS_11char_traitsIcEENS_9allocatorIcEEEEN5Catch3PtrINS8_16IReporterFactoryEEEEEPNS_11__tree_nodeISC_PvEElEC2Ev
FNDA:4,_ZNSt3__121__tree_const_iteratorINS_12__value_typeINS_12basic_stringIcNS_11char_traitsIcEENS_9allocatorIcEEEEPN5Catch18IGeneratorsForTestEEEPNS_11__tree_nodeISB_PvEElEC1ENS_15__tree_iteratorISB_SF_lEE
FNDA:4,_ZNSt3__121__tree_const_iteratorINS_12__value_typeINS_12basic_stringIcNS_11char_traitsIcEENS_9allocatorIcEEEEPN5Catch18IGeneratorsForTestEEEPNS_11__tree_nodeISB_PvEElEC2ENS_15__tree_iteratorISB_SF_lEE
FNDA:0,_ZNSt3__121__tree_const_iteratorINS_12__value_typeINS_12basic_stringIcNS_11char_traitsIcEENS_9allocatorIcEEEEPN5Catch14IGeneratorInfoEEEPNS_11__tree_nodeISB_PvEElEC1ENS_15__tree_iteratorISB_SF_lEE
FNDA:0,_ZNSt3__121__tree_const_iteratorINS_12__value_typeINS_12basic_stringIcNS_11char_traitsIcEENS_9allocatorIcEEEEPN5Catch14IGeneratorInfoEEEPNS_11__tree_nodeISB_PvEElEC2ENS_15__tree_iteratorISB_SF_lEE
FNDA:0,_ZNSt3__121__tree_const_iteratorINS_12__value_typeINS_12basic_stringIcNS_11char_traitsIcEENS_9allocatorIcEEEEN5Catch7TagInfoEEEPNS_11__tree_nodeISA_PvEElEC1ENS_15__tree_iteratorISA_SE_lEE
FNDA:0,_ZNSt3__121__tree_const_iteratorINS_12__value_typeINS_12basic_stringIcNS_11char_traitsIcEENS_9allocatorIcEEEEN5Catch7TagInfoEEEPNS_11__tree_nodeISA_PvEElEC2ENS_15__tree_iteratorISA_SE_lEE
FNDA:0,_ZNSt3__121__tree_const_iteratorINS_12basic_stringIcNS_11char_traitsIcEENS_9allocatorIcEEEEPNS_11__tree_nodeIS6_PvEElEC1ENS_15__tree_iteratorIS6_SA_lEE
FNDA:0,_ZNSt3__121__tree_const_iteratorINS_12basic_stringIcNS_11char_traitsIcEENS_9allocatorIcEEEEPNS_11__tree_nodeIS6_PvEElEC2ENS_15__tree_iteratorIS6_SA_lEE
FNDA:1,_ZNSt3__121__tree_const_iteratorIN5Catch8TestCaseEPNS_11__tree_nodeIS2_PvEElEC1ENS_15__tree_iteratorIS2_S6_lEE
FNDA:1,_ZNSt3__121__tree_const_iteratorIN5Catch8TestCaseEPNS_11__tree_nodeIS2_PvEElEC2ENS_15__tree_iteratorIS2_S6_lEE
FNDA:0,_ZNKSt3__121__tree_const_iteratorINS_12basic_stringIcNS_11char_traitsIcEENS_9allocatorIcEEEEPNS_11__tree_nodeIS6_PvEElEdeEv
FNDA:1,_ZNKSt3__121__tree_const_iteratorINS_12__value_typeINS_12basic_stringIcNS_11char_traitsIcEENS_9allocatorIcEEEEN5Catch3PtrINS8_16IReporterFactoryEEEEEPNS_11__tree_nodeISC_PvEElEdeEv
FNDA:0,_ZNKSt3__121__tree_const_iteratorINS_12__value_typeIiN5Catch5Clara11CommandLineINS2_10ConfigDataEE3ArgEEEPNS_11__tree_nodeIS8_PvEElEdeEv
FNDA:0,_ZNKSt3__121__tree_const_iteratorINS_12__value_typeINS_12basic_stringIcNS_11char_traitsIcEENS_9allocatorIcEEEEN5Catch8TagAliasEEEPNS_11__tree_nodeISA_PvEElEdeEv
FNDA:0,_ZNKSt3__121__tree_const_iteratorIN5Catch8TestCaseEPNS_11__tree_nodeIS2_PvEElEptEv
FNDA:1,_ZNKSt3__121__tree_const_iteratorINS_12__value_typeINS_12basic_stringIcNS_11char_traitsIcEENS_9allocatorIcEEEEN5Catch3PtrINS8_16IReporterFactoryEEEEEPNS_11__tree_nodeISC_PvEElEptEv
FNDA:0,_ZNKSt3__121__tree_const_iteratorINS_12__value_typeINS_12basic_stringIcNS_11char_traitsIcEENS_9allocatorIcEEEEPN5Catch18IGeneratorsForTestEEEPNS_11__tree_nodeISB_PvEElEptEv
FNDA:0,_ZNKSt3__121__tree_const_iteratorINS_12__value_typeINS_12basic_stringIcNS_11char_traitsIcEENS_9allocatorIcEEEEPN5Catch14IGeneratorInfoEEEPNS_11__tree_nodeISB_PvEElEptEv
FNDA:0,_ZNKSt3__121__tree_const_iteratorINS_12__value_typeIiN5Catch5Clara11CommandLineINS2_10ConfigDataEE3ArgEEEPNS_11__tree_nodeIS8_PvEElEptEv
FNDA:0,_ZNKSt3__121__tree_const_iteratorINS_12__value_typeINS_12basic_stringIcNS_11char_traitsIcEENS_9allocatorIcEEEEN5Catch7TagInfoEEEPNS_11__tree_nodeISA_PvEElEptEv
FNDA:0,_ZNKSt3__121__tree_const_iteratorINS_12__value_typeINS_12basic_stringIcNS_11char_traitsIcEENS_9allocatorIcEEEEN5Catch8TagAliasEEEPNS_11__tree_nodeISA_PvEElEptEv
FNDA:0,_ZNSt3__121__tree_const_iteratorINS_12basic_stringIcNS_11char_traitsIcEENS_9allocatorIcEEEEPNS_11__tree_nodeIS6_PvEElEppEv
FNDA:0,_ZNSt3__121__tree_const_iteratorINS_12__value_typeINS_12basic_stringIcNS_11char_traitsIcEENS_9allocatorIcEEEEPN5Catch18IGeneratorsForTestEEEPNS_11__tree_nodeISB_PvEElEppEv
FNDA:0,_ZNSt3__121__tree_const_iteratorINS_12__value_typeINS_12basic_stringIcNS_11char_traitsIcEENS_9allocatorIcEEEEN5Catch7TagInfoEEEPNS_11__tree_nodeISA_PvEElEppEv
FNDA:0,_ZNSt3__121__tree_const_iteratorINS_12__value_typeINS_12basic_stringIcNS_11char_traitsIcEENS_9allocatorIcEEEEN5Catch3PtrINS8_16IReporterFactoryEEEEEPNS_11__tree_nodeISC_PvEElEppEv
FNDA:0,_ZNSt3__121__tree_const_iteratorINS_12__value_typeINS_12basic_stringIcNS_11char_traitsIcEENS_9allocatorIcEEEEN5Catch8TagAliasEEEPNS_11__tree_nodeISA_PvEElEppEv
FNDA:0,_ZNSt3__121__tree_const_iteratorINS_12basic_stringIcNS_11char_traitsIcEENS_9allocatorIcEEEEPNS_11__tree_nodeIS6_PvEElEmmEv
FNDA:2,_ZNSt3__1eqERKNS_21__tree_const_iteratorINS_12__value_typeINS_12basic_stringIcNS_11char_traitsIcEENS_9allocatorIcEEEEN5Catch3PtrINS8_16IReporterFactoryEEEEEPNS_11__tree_nodeISC_PvEElEESJ_
FNDA:2,_ZNSt3__1eqERKNS_21__tree_const_iteratorINS_12__value_typeINS_12basic_stringIcNS_11char_traitsIcEENS_9allocatorIcEEEEPN5Catch18IGeneratorsForTestEEEPNS_11__tree_nodeISB_PvEElEESI_
FNDA:0,_ZNSt3__1eqERKNS_21__tree_const_iteratorINS_12__value_typeINS_12basic_stringIcNS_11char_traitsIcEENS_9allocatorIcEEEEPN5Catch14IGeneratorInfoEEEPNS_11__tree_nodeISB_PvEElEESI_
FNDA:0,_ZNSt3__1eqERKNS_21__tree_const_iteratorINS_12__value_typeIiN5Catch5Clara11CommandLineINS2_10ConfigDataEE3ArgEEEPNS_11__tree_nodeIS8_PvEElEESF_
FNDA:0,_ZNSt3__1eqERKNS_21__tree_const_iteratorINS_12__value_typeINS_12basic_stringIcNS_11char_traitsIcEENS_9allocatorIcEEEEN5Catch7TagInfoEEEPNS_11__tree_nodeISA_PvEElEESH_
FNDA:20,_ZNSt3__1eqERKNS_21__tree_const_iteratorINS_12basic_stringIcNS_11char_traitsIcEENS_9allocatorIcEEEEPNS_11__tree_nodeIS6_PvEElEESD_
FNDA:1,_ZNSt3__1eqERKNS_21__tree_const_iteratorINS_12__value_typeINS_12basic_stringIcNS_11char_traitsIcEENS_9allocatorIcEEEEN5Catch8TagAliasEEEPNS_11__tree_nodeISA_PvEElEESH_
FNDA:20,_ZNSt3__1neERKNS_21__tree_const_iteratorINS_12basic_stringIcNS_11char_traitsIcEENS_9allocatorIcEEEEPNS_11__tree_nodeIS6_PvEElEESD_
FNDA:1,_ZNSt3__1neERKNS_21__tree_const_iteratorINS_12__value_typeINS_12basic_stringIcNS_11char_traitsIcEENS_9allocatorIcEEEEN5Catch3PtrINS8_16IReporterFactoryEEEEEPNS_11__tree_nodeISC_PvEElEESJ_
FNDA:2,_ZNSt3__1neERKNS_21__tree_const_iteratorINS_12__value_typeINS_12basic_stringIcNS_11char_traitsIcEENS_9allocatorIcEEEEPN5Catch18IGeneratorsForTestEEEPNS_11__tree_nodeISB_PvEElEESI_
FNDA:0,_ZNSt3__1neERKNS_21__tree_const_iteratorINS_12__value_typeIiN5Catch5Clara11CommandLineINS2_10ConfigDataEE3ArgEEEPNS_11__tree_nodeIS8_PvEElEESF_
FNDA:0,_ZNSt3__1neERKNS_21__tree_const_iteratorINS_12__value_typeINS_12basic_stringIcNS_11char_traitsIcEENS_9allocatorIcEEEEN5Catch7TagInfoEEEPNS_11__tree_nodeISA_PvEElEESH_
FNDA:1,_ZNSt3__1neERKNS_21__tree_const_iteratorINS_12__value_typeINS_12basic_stringIcNS_11char_traitsIcEENS_9allocatorIcEEEEN5Catch8TagAliasEEEPNS_11__tree_nodeISA_PvEElEESH_
FNDA:3,_ZNSt3__121__tree_const_iteratorINS_12__value_typeINS_12basic_stringIcNS_11char_traitsIcEENS_9allocatorIcEEEEN5Catch3PtrINS8_16IReporterFactoryEEEEEPNS_11__tree_nodeISC_PvEElEC1EPNS_15__tree_end_nodeIPNS_16__tree_node_baseISE_EEEE
FNDA:3,_ZNSt3__121__tree_const_iteratorINS_12__value_typeINS_12basic_stringIcNS_11char_traitsIcEENS_9allocatorIcEEEEN5Catch3PtrINS8_16IReporterFactoryEEEEEPNS_11__tree_nodeISC_PvEElEC2EPNS_15__tree_end_nodeIPNS_16__tree_node_baseISE_EEEE
FNDA:0,_ZNSt3__121__tree_const_iteratorINS_12__value_typeIiN5Catch5Clara11CommandLineINS2_10ConfigDataEE3ArgEEEPNS_11__tree_nodeIS8_PvEElEC1EPNS_15__tree_end_nodeIPNS_16__tree_node_baseISA_EEEE
FNDA:0,_ZNSt3__121__tree_const_iteratorINS_12__value_typeIiN5Catch5Clara11CommandLineINS2_10ConfigDataEE3ArgEEEPNS_11__tree_nodeIS8_PvEElEC2EPNS_15__tree_end_nodeIPNS_16__tree_node_baseISA_EEEE
FNDA:56,_ZNSt3__121__tree_const_iteratorINS_12basic_stringIcNS_11char_traitsIcEENS_9allocatorIcEEEEPNS_11__tree_nodeIS6_PvEElEC1EPNS_15__tree_end_nodeIPNS_16__tree_node_baseIS8_EEEE
FNDA:56,_ZNSt3__121__tree_const_iteratorINS_12basic_stringIcNS_11char_traitsIcEENS_9allocatorIcEEEEPNS_11__tree_nodeIS6_PvEElEC2EPNS_15__tree_end_nodeIPNS_16__tree_node_baseIS8_EEEE
FNDA:2,_ZNSt3__121__tree_const_iteratorINS_12__value_typeINS_12basic_stringIcNS_11char_traitsIcEENS_9allocatorIcEEEEN5Catch8TagAliasEEEPNS_11__tree_nodeISA_PvEElEC1EPNS_15__tree_end_nodeIPNS_16__tree_node_baseISC_EEEE
FNDA:2,_ZNSt3__121__tree_const_iteratorINS_12__value_typeINS_12basic_stringIcNS_11char_traitsIcEENS_9allocatorIcEEEEN5Catch8TagAliasEEEPNS_11__tree_nodeISA_PvEElEC2EPNS_15__tree_end_nodeIPNS_16__tree_node_baseISC_EEEE
FNDA:2,_ZNKSt3__121__tree_const_iteratorINS_12__value_typeINS_12basic_stringIcNS_11char_traitsIcEENS_9allocatorIcEEEEN5Catch3PtrINS8_16IReporterFactoryEEEEEPNS_11__tree_nodeISC_PvEElE8__get_npEv
FNDA:0,_ZNKSt3__121__tree_const_iteratorINS_12__value_typeINS_12basic_stringIcNS_11char_traitsIcEENS_9allocatorIcEEEEPN5Catch18IGeneratorsForTestEEEPNS_11__tree_nodeISB_PvEElE8__get_npEv
FNDA:0,_ZNKSt3__121__tree_const_iteratorINS_12__value_typeINS_12basic_stringIcNS_11char_traitsIcEENS_9allocatorIcEEEEPN5Catch14IGeneratorInfoEEEPNS_11__tree_nodeISB_PvEElE8__get_npEv
FNDA:0,_ZNKSt3__121__tree_const_iteratorINS_12__value_typeIiN5Catch5Clara11CommandLineINS2_10ConfigDataEE3ArgEEEPNS_11__tree_nodeIS8_PvEElE8__get_npEv
FNDA:0,_ZNKSt3__121__tree_const_iteratorINS_12__value_typeINS_12basic_stringIcNS_11char_traitsIcEENS_9allocatorIcEEEEN5Catch7TagInfoEEEPNS_11__tree_nodeISA_PvEElE8__get_npEv
FNDA:0,_ZNKSt3__121__tree_const_iteratorINS_12basic_stringIcNS_11char_traitsIcEENS_9allocatorIcEEEEPNS_11__tree_nodeIS6_PvEElE8__get_npEv
FNDA:0,_ZNKSt3__121__tree_const_iteratorIN5Catch8TestCaseEPNS_11__tree_nodeIS2_PvEElE8__get_npEv
FNDA:0,_ZNKSt3__121__tree_const_iteratorINS_12__value_typeINS_12basic_stringIcNS_11char_traitsIcEENS_9allocatorIcEEEEN5Catch8TagAliasEEEPNS_11__tree_nodeISA_PvEElE8__get_npEv
FNDA:6,_ZNSt3__16__treeINS_12__value_typeINS_12basic_stringIcNS_11char_traitsIcEENS_9allocatorIcEEEEN5Catch3PtrINS8_16IReporterFactoryEEEEENS_19__map_value_compareIS7_SC_NS_4lessIS7_EELb1EEENS5_ISC_EEE10__end_nodeEv
FNDA:1,_ZNSt3__16__treeINS_12__value_typeINS_12basic_stringIcNS_11char_traitsIcEENS_9allocatorIcEEEEN5Catch8TagAliasEEENS_19__map_value_compareIS7_SA_NS_4lessIS7_EELb1EEENS5_ISA_EEE10__end_nodeEv
FNDA:6,_ZNSt3__16__treeINS_12__value_typeINS_12basic_stringIcNS_11char_traitsIcEENS_9allocatorIcEEEEPN5Catch18IGeneratorsForTestEEENS_19__map_value_compareIS7_SB_NS_4lessIS7_EELb1EEENS5_ISB_EEE10__end_nodeEv
FNDA:0,_ZNSt3__16__treeINS_12__value_typeINS_12basic_stringIcNS_11char_traitsIcEENS_9allocatorIcEEEEPN5Catch14IGeneratorInfoEEENS_19__map_value_compareIS7_SB_NS_4lessIS7_EELb1EEENS5_ISB_EEE10__end_nodeEv
FNDA:1,_ZNSt3__16__treeINS_12__value_typeIiN5Catch5Clara11CommandLineINS2_10ConfigDataEE3ArgEEENS_19__map_value_compareIiS8_NS_4lessIiEELb1EEENS_9allocatorIS8_EEE10__end_nodeEv
FNDA:0,_ZNSt3__16__treeINS_12__value_typeINS_12basic_stringIcNS_11char_traitsIcEENS_9allocatorIcEEEEN5Catch7TagInfoEEENS_19__map_value_compareIS7_SA_NS_4lessIS7_EELb1EEENS5_ISA_EEE10__end_nodeEv
FNDA:21,_ZNSt3__16__treeINS_12basic_stringIcNS_11char_traitsIcEENS_9allocatorIcEEEENS_4lessIS6_EENS4_IS6_EEE10__end_nodeEv
FNDA:3,_ZNSt3__16__treeIN5Catch8TestCaseENS_4lessIS2_EENS_9allocatorIS2_EEE10__end_nodeEv
FNDA:59,_ZNKSt3__16__treeINS_12basic_stringIcNS_11char_traitsIcEENS_9allocatorIcEEEENS_4lessIS6_EENS4_IS6_EEE10__end_nodeEv
FNDA:3,_ZNKSt3__16__treeIN5Catch8TestCaseENS_4lessIS2_EENS_9allocatorIS2_EEE10__end_nodeEv
FNDA:13,_ZNKSt3__16__treeINS_12__value_typeINS_12basic_stringIcNS_11char_traitsIcEENS_9allocatorIcEEEEN5Catch3PtrINS8_16IReporterFactoryEEEEENS_19__map_value_compareIS7_SC_NS_4lessIS7_EELb1EEENS5_ISC_EEE10__end_nodeEv
FNDA:2,_ZNKSt3__16__treeINS_12__value_typeINS_12basic_stringIcNS_11char_traitsIcEENS_9allocatorIcEEEEPN5Catch18IGeneratorsForTestEEENS_19__map_value_compareIS7_SB_NS_4lessIS7_EELb1EEENS5_ISB_EEE10__end_nodeEv
FNDA:0,_ZNKSt3__16__treeINS_12__value_typeINS_12basic_stringIcNS_11char_traitsIcEENS_9allocatorIcEEEEPN5Catch14IGeneratorInfoEEENS_19__map_value_compareIS7_SB_NS_4lessIS7_EELb1EEENS5_ISB_EEE10__end_nodeEv
FNDA:2,_ZNKSt3__16__treeINS_12__value_typeINS_12basic_stringIcNS_11char_traitsIcEENS_9allocatorIcEEEEN5Catch8TagAliasEEENS_19__map_value_compareIS7_SA_NS_4lessIS7_EELb1EEENS5_ISA_EEE10__end_nodeEv
FNDA:1,_ZNKSt3__16__treeINS_12__value_typeIiN5Catch5Clara11CommandLineINS2_10ConfigDataEE3ArgEEENS_19__map_value_compareIiS8_NS_4lessIiEELb1EEENS_9allocatorIS8_EEE10__end_nodeEv
FNDA:0,_ZNKSt3__16__treeINS_12__value_typeINS_12basic_stringIcNS_11char_traitsIcEENS_9allocatorIcEEEEN5Catch7TagInfoEEENS_19__map_value_compareIS7_SA_NS_4lessIS7_EELb1EEENS5_ISA_EEE10__end_nodeEv
FNDA:0,_ZNSt3__16__treeINS_12basic_stringIcNS_11char_traitsIcEENS_9allocatorIcEEEENS_4lessIS6_EENS4_IS6_EEE12__node_allocEv
FNDA:2,_ZNSt3__16__treeIN5Catch8TestCaseENS_4lessIS2_EENS_9allocatorIS2_EEE12__node_allocEv
FNDA:8,_ZNSt3__16__treeINS_12__value_typeINS_12basic_stringIcNS_11char_traitsIcEENS_9allocatorIcEEEEN5Catch3PtrINS8_16IReporterFactoryEEEEENS_19__map_value_compareIS7_SC_NS_4lessIS7_EELb1EEENS5_ISC_EEE12__node_allocEv
FNDA:0,_ZNSt3__16__treeINS_12__value_typeINS_12basic_stringIcNS_11char_traitsIcEENS_9allocatorIcEEEEPN5Catch18IGeneratorsForTestEEENS_19__map_value_compareIS7_SB_NS_4lessIS7_EELb1EEENS5_ISB_EEE12__node_allocEv
FNDA:0,_ZNSt3__16__treeINS_12__value_typeINS_12basic_stringIcNS_11char_traitsIcEENS_9allocatorIcEEEEPN5Catch14IGeneratorInfoEEENS_19__map_value_compareIS7_SB_NS_4lessIS7_EELb1EEENS5_ISB_EEE12__node_allocEv
FNDA:0,_ZNSt3__16__treeINS_12__value_typeINS_12basic_stringIcNS_11char_traitsIcEENS_9allocatorIcEEEEN5Catch8TagAliasEEENS_19__map_value_compareIS7_SA_NS_4lessIS7_EELb1EEENS5_ISA_EEE12__node_allocEv
FNDA:0,_ZNSt3__16__treeINS_12__value_typeIiN5Catch5Clara11CommandLineINS2_10ConfigDataEE3ArgEEENS_19__map_value_compareIiS8_NS_4lessIiEELb1EEENS_9allocatorIS8_EEE12__node_allocEv
FNDA:0,_ZNSt3__16__treeINS_12__value_typeINS_12basic_stringIcNS_11char_traitsIcEENS_9allocatorIcEEEEN5Catch7TagInfoEEENS_19__map_value_compareIS7_SA_NS_4lessIS7_EELb1EEENS5_ISA_EEE12__node_allocEv
FNDA:16,_ZNKSt3__16__treeINS_12basic_stringIcNS_11char_traitsIcEENS_9allocatorIcEEEENS_4lessIS6_EENS4_IS6_EEE12__node_allocEv
FNDA:13,_ZNSt3__16__treeINS_12__value_typeINS_12basic_stringIcNS_11char_traitsIcEENS_9allocatorIcEEEEN5Catch3PtrINS8_16IReporterFactoryEEEEENS_19__map_value_compareIS7_SC_NS_4lessIS7_EELb1EEENS5_ISC_EEE12__begin_nodeEv
FNDA:1,_ZNSt3__16__treeINS_12__value_typeINS_12basic_stringIcNS_11char_traitsIcEENS_9allocatorIcEEEEN5Catch8TagAliasEEENS_19__map_value_compareIS7_SA_NS_4lessIS7_EELb1EEENS5_ISA_EEE12__begin_nodeEv
FNDA:2,_ZNSt3__16__treeINS_12__value_typeINS_12basic_stringIcNS_11char_traitsIcEENS_9allocatorIcEEEEPN5Catch18IGeneratorsForTestEEENS_19__map_value_compareIS7_SB_NS_4lessIS7_EELb1EEENS5_ISB_EEE12__begin_nodeEv
FNDA:0,_ZNSt3__16__treeINS_12__value_typeINS_12basic_stringIcNS_11char_traitsIcEENS_9allocatorIcEEEEPN5Catch14IGeneratorInfoEEENS_19__map_value_compareIS7_SB_NS_4lessIS7_EELb1EEENS5_ISB_EEE12__begin_nodeEv
FNDA:1,_ZNSt3__16__treeINS_12__value_typeIiN5Catch5Clara11CommandLineINS2_10ConfigDataEE3ArgEEENS_19__map_value_compareIiS8_NS_4lessIiEELb1EEENS_9allocatorIS8_EEE12__begin_nodeEv
FNDA:0,_ZNSt3__16__treeINS_12__value_typeINS_12basic_stringIcNS_11char_traitsIcEENS_9allocatorIcEEEEN5Catch7TagInfoEEENS_19__map_value_compareIS7_SA_NS_4lessIS7_EELb1EEENS5_ISA_EEE12__begin_nodeEv
FNDA:20,_ZNSt3__16__treeINS_12basic_stringIcNS_11char_traitsIcEENS_9allocatorIcEEEENS_4lessIS6_EENS4_IS6_EEE12__begin_nodeEv
FNDA:4,_ZNSt3__16__treeIN5Catch8TestCaseENS_4lessIS2_EENS_9allocatorIS2_EEE12__begin_nodeEv
FNDA:0,_ZNKSt3__16__treeINS_12__value_typeINS_12basic_stringIcNS_11char_traitsIcEENS_9allocatorIcEEEEN5Catch3PtrINS8_16IReporterFactoryEEEEENS_19__map_value_compareIS7_SC_NS_4lessIS7_EELb1EEENS5_ISC_EEE12__begin_nodeEv
FNDA:18,_ZNKSt3__16__treeINS_12basic_stringIcNS_11char_traitsIcEENS_9allocatorIcEEEENS_4lessIS6_EENS4_IS6_EEE12__begin_nodeEv
FNDA:1,_ZNKSt3__16__treeINS_12__value_typeINS_12basic_stringIcNS_11char_traitsIcEENS_9allocatorIcEEEEN5Catch8TagAliasEEENS_19__map_value_compareIS7_SA_NS_4lessIS7_EELb1EEENS5_ISA_EEE12__begin_nodeEv
FNDA:4,_ZNSt3__16__treeINS_12__value_typeINS_12basic_stringIcNS_11char_traitsIcEENS_9allocatorIcEEEEN5Catch3PtrINS8_16IReporterFactoryEEEEENS_19__map_value_compareIS7_SC_NS_4lessIS7_EELb1EEENS5_ISC_EEE4sizeEv
FNDA:0,_ZNSt3__16__treeINS_12__value_typeINS_12basic_stringIcNS_11char_traitsIcEENS_9allocatorIcEEEEPN5Catch18IGeneratorsForTestEEENS_19__map_value_compareIS7_SB_NS_4lessIS7_EELb1EEENS5_ISB_EEE4sizeEv
FNDA:0,_ZNSt3__16__treeINS_12__value_typeINS_12basic_stringIcNS_11char_traitsIcEENS_9allocatorIcEEEEPN5Catch14IGeneratorInfoEEENS_19__map_value_compareIS7_SB_NS_4lessIS7_EELb1EEENS5_ISB_EEE4sizeEv
FNDA:0,_ZNSt3__16__treeINS_12__value_typeINS_12basic_stringIcNS_11char_traitsIcEENS_9allocatorIcEEEEN5Catch7TagInfoEEENS_19__map_value_compareIS7_SA_NS_4lessIS7_EELb1EEENS5_ISA_EEE4sizeEv
FNDA:2,_ZNSt3__16__treeINS_12basic_stringIcNS_11char_traitsIcEENS_9allocatorIcEEEENS_4lessIS6_EENS4_IS6_EEE4sizeEv
FNDA:1,_ZNSt3__16__treeIN5Catch8TestCaseENS_4lessIS2_EENS_9allocatorIS2_EEE4sizeEv
FNDA:0,_ZNSt3__16__treeINS_12__value_typeINS_12basic_stringIcNS_11char_traitsIcEENS_9allocatorIcEEEEN5Catch8TagAliasEEENS_19__map_value_compareIS7_SA_NS_4lessIS7_EELb1EEENS5_ISA_EEE4sizeEv
FNDA:0,_ZNKSt3__16__treeINS_12__value_typeIiN5Catch5Clara11CommandLineINS2_10ConfigDataEE3ArgEEENS_19__map_value_compareIiS8_NS_4lessIiEELb1EEENS_9allocatorIS8_EEE4sizeEv
FNDA:0,_ZNKSt3__16__treeINS_12basic_stringIcNS_11char_traitsIcEENS_9allocatorIcEEEENS_4lessIS6_EENS4_IS6_EEE4sizeEv
FNDA:0,_ZNKSt3__16__treeINS_12__value_typeINS_12basic_stringIcNS_11char_traitsIcEENS_9allocatorIcEEEEN5Catch7TagInfoEEENS_19__map_value_compareIS7_SA_NS_4lessIS7_EELb1EEENS5_ISA_EEE4sizeEv
FNDA:0,_ZNKSt3__16__treeINS_12__value_typeINS_12basic_stringIcNS_11char_traitsIcEENS_9allocatorIcEEEEN5Catch3PtrINS8_16IReporterFactoryEEEEENS_19__map_value_compareIS7_SC_NS_4lessIS7_EELb1EEENS5_ISC_EEE4sizeEv
FNDA:5,_ZNSt3__16__treeINS_12__value_typeINS_12basic_stringIcNS_11char_traitsIcEENS_9allocatorIcEEEEN5Catch3PtrINS8_16IReporterFactoryEEEEENS_19__map_value_compareIS7_SC_NS_4lessIS7_EELb1EEENS5_ISC_EEE10value_compEv
FNDA:0,_ZNSt3__16__treeINS_12__value_typeINS_12basic_stringIcNS_11char_traitsIcEENS_9allocatorIcEEEEPN5Catch18IGeneratorsForTestEEENS_19__map_value_compareIS7_SB_NS_4lessIS7_EELb1EEENS5_ISB_EEE10value_compEv
FNDA:0,_ZNSt3__16__treeINS_12__value_typeINS_12basic_stringIcNS_11char_traitsIcEENS_9allocatorIcEEEEPN5Catch14IGeneratorInfoEEENS_19__map_value_compareIS7_SB_NS_4lessIS7_EELb1EEENS5_ISB_EEE10value_compEv
FNDA:0,_ZNSt3__16__treeINS_12__value_typeINS_12basic_stringIcNS_11char_traitsIcEENS_9allocatorIcEEEEN5Catch7TagInfoEEENS_19__map_value_compareIS7_SA_NS_4lessIS7_EELb1EEENS5_ISA_EEE10value_compEv
FNDA:1,_ZNSt3__16__treeINS_12basic_stringIcNS_11char_traitsIcEENS_9allocatorIcEEEENS_4lessIS6_EENS4_IS6_EEE10value_compEv
FNDA:0,_ZNSt3__16__treeIN5Catch8TestCaseENS_4lessIS2_EENS_9allocatorIS2_EEE10value_compEv
FNDA:0,_ZNSt3__16__treeINS_12__value_typeINS_12basic_stringIcNS_11char_traitsIcEENS_9allocatorIcEEEEN5Catch8TagAliasEEENS_19__map_value_compareIS7_SA_NS_4lessIS7_EELb1EEENS5_ISA_EEE10value_compEv
FNDA:4,_ZNKSt3__16__treeINS_12__value_typeINS_12basic_stringIcNS_11char_traitsIcEENS_9allocatorIcEEEEN5Catch3PtrINS8_16IReporterFactoryEEEEENS_19__map_value_compareIS7_SC_NS_4lessIS7_EELb1EEENS5_ISC_EEE10value_compEv
FNDA:0,_ZNKSt3__16__treeINS_12__value_typeIiN5Catch5Clara11CommandLineINS2_10ConfigDataEE3ArgEEENS_19__map_value_compareIiS8_NS_4lessIiEELb1EEENS_9allocatorIS8_EEE10value_compEv
FNDA:17,_ZNKSt3__16__treeINS_12basic_stringIcNS_11char_traitsIcEENS_9allocatorIcEEEENS_4lessIS6_EENS4_IS6_EEE10value_compEv
FNDA:0,_ZNKSt3__16__treeINS_12__value_typeINS_12basic_stringIcNS_11char_traitsIcEENS_9allocatorIcEEEEN5Catch8TagAliasEEENS_19__map_value_compareIS7_SA_NS_4lessIS7_EELb1EEENS5_ISA_EEE10value_compEv
FNDA:21,_ZNKSt3__16__treeINS_12basic_stringIcNS_11char_traitsIcEENS_9allocatorIcEEEENS_4lessIS6_EENS4_IS6_EEE6__rootEv
FNDA:2,_ZNKSt3__16__treeIN5Catch8TestCaseENS_4lessIS2_EENS_9allocatorIS2_EEE6__rootEv
FNDA:6,_ZNKSt3__16__treeINS_12__value_typeINS_12basic_stringIcNS_11char_traitsIcEENS_9allocatorIcEEEEN5Catch3PtrINS8_16IReporterFactoryEEEEENS_19__map_value_compareIS7_SC_NS_4lessIS7_EELb1EEENS5_ISC_EEE6__rootEv
FNDA:2,_ZNKSt3__16__treeINS_12__value_typeINS_12basic_stringIcNS_11char_traitsIcEENS_9allocatorIcEEEEPN5Catch18IGeneratorsForTestEEENS_19__map_value_compareIS7_SB_NS_4lessIS7_EELb1EEENS5_ISB_EEE6__rootEv
FNDA:0,_ZNKSt3__16__treeINS_12__value_typeINS_12basic_stringIcNS_11char_traitsIcEENS_9allocatorIcEEEEPN5Catch14IGeneratorInfoEEENS_19__map_value_compareIS7_SB_NS_4lessIS7_EELb1EEENS5_ISB_EEE6__rootEv
FNDA:1,_ZNKSt3__16__treeINS_12__value_typeINS_12basic_stringIcNS_11char_traitsIcEENS_9allocatorIcEEEEN5Catch8TagAliasEEENS_19__map_value_compareIS7_SA_NS_4lessIS7_EELb1EEENS5_ISA_EEE6__rootEv
FNDA:1,_ZNKSt3__16__treeINS_12__value_typeIiN5Catch5Clara11CommandLineINS2_10ConfigDataEE3ArgEEENS_19__map_value_compareIiS8_NS_4lessIiEELb1EEENS_9allocatorIS8_EEE6__rootEv
FNDA:0,_ZNKSt3__16__treeINS_12__value_typeINS_12basic_stringIcNS_11char_traitsIcEENS_9allocatorIcEEEEN5Catch7TagInfoEEENS_19__map_value_compareIS7_SA_NS_4lessIS7_EELb1EEENS5_ISA_EEE6__rootEv
FNDA:4,_ZNKSt3__16__treeINS_12__value_typeINS_12basic_stringIcNS_11char_traitsIcEENS_9allocatorIcEEEEN5Catch3PtrINS8_16IReporterFactoryEEEEENS_19__map_value_compareIS7_SC_NS_4lessIS7_EELb1EEENS5_ISC_EEE10__root_ptrEv
FNDA:0,_ZNKSt3__16__treeINS_12__value_typeINS_12basic_stringIcNS_11char_traitsIcEENS_9allocatorIcEEEEPN5Catch18IGeneratorsForTestEEENS_19__map_value_compareIS7_SB_NS_4lessIS7_EELb1EEENS5_ISB_EEE10__root_ptrEv
FNDA:0,_ZNKSt3__16__treeINS_12__value_typeINS_12basic_stringIcNS_11char_traitsIcEENS_9allocatorIcEEEEPN5Catch14IGeneratorInfoEEENS_19__map_value_compareIS7_SB_NS_4lessIS7_EELb1EEENS5_ISB_EEE10__root_ptrEv
FNDA:0,_ZNKSt3__16__treeINS_12__value_typeINS_12basic_stringIcNS_11char_traitsIcEENS_9allocatorIcEEEEN5Catch7TagInfoEEENS_19__map_value_compareIS7_SA_NS_4lessIS7_EELb1EEENS5_ISA_EEE10__root_ptrEv
FNDA:0,_ZNKSt3__16__treeINS_12basic_stringIcNS_11char_traitsIcEENS_9allocatorIcEEEENS_4lessIS6_EENS4_IS6_EEE10__root_ptrEv
FNDA:1,_ZNKSt3__16__treeIN5Catch8TestCaseENS_4lessIS2_EENS_9allocatorIS2_EEE10__root_ptrEv
FNDA:0,_ZNKSt3__16__treeINS_12__value_typeINS_12basic_stringIcNS_11char_traitsIcEENS_9allocatorIcEEEEN5Catch8TagAliasEEENS_19__map_value_compareIS7_SA_NS_4lessIS7_EELb1EEENS5_ISA_EEE10__root_ptrEv
FNDA:1,_ZNSt3__16__treeINS_12__value_typeINS_12basic_stringIcNS_11char_traitsIcEENS_9allocatorIcEEEEPN5Catch18IGeneratorsForTestEEENS_19__map_value_compareIS7_SB_NS_4lessIS7_EELb1EEENS5_ISB_EEE5beginEv
FNDA:0,_ZNSt3__16__treeINS_12__value_typeINS_12basic_stringIcNS_11char_traitsIcEENS_9allocatorIcEEEEN5Catch7TagInfoEEENS_19__map_value_compareIS7_SA_NS_4lessIS7_EELb1EEENS5_ISA_EEE5beginEv
FNDA:0,_ZNSt3__16__treeINS_12basic_stringIcNS_11char_traitsIcEENS_9allocatorIcEEEENS_4lessIS6_EENS4_IS6_EEE5beginEv
FNDA:0,_ZNKSt3__16__treeINS_12__value_typeINS_12basic_stringIcNS_11char_traitsIcEENS_9allocatorIcEEEEN5Catch3PtrINS8_16IReporterFactoryEEEEENS_19__map_value_compareIS7_SC_NS_4lessIS7_EELb1EEENS5_ISC_EEE5beginEv
FNDA:18,_ZNKSt3__16__treeINS_12basic_stringIcNS_11char_traitsIcEENS_9allocatorIcEEEENS_4lessIS6_EENS4_IS6_EEE5beginEv
FNDA:1,_ZNKSt3__16__treeINS_12__value_typeINS_12basic_stringIcNS_11char_traitsIcEENS_9allocatorIcEEEEN5Catch8TagAliasEEENS_19__map_value_compareIS7_SA_NS_4lessIS7_EELb1EEENS5_ISA_EEE5beginEv
FNDA:4,_ZNSt3__16__treeINS_12__value_typeINS_12basic_stringIcNS_11char_traitsIcEENS_9allocatorIcEEEEPN5Catch18IGeneratorsForTestEEENS_19__map_value_compareIS7_SB_NS_4lessIS7_EELb1EEENS5_ISB_EEE3endEv
FNDA:0,_ZNSt3__16__treeINS_12__value_typeINS_12basic_stringIcNS_11char_traitsIcEENS_9allocatorIcEEEEPN5Catch14IGeneratorInfoEEENS_19__map_value_compareIS7_SB_NS_4lessIS7_EELb1EEENS5_ISB_EEE3endEv
FNDA:0,_ZNSt3__16__treeINS_12__value_typeINS_12basic_stringIcNS_11char_traitsIcEENS_9allocatorIcEEEEN5Catch7TagInfoEEENS_19__map_value_compareIS7_SA_NS_4lessIS7_EELb1EEENS5_ISA_EEE3endEv
FNDA:0,_ZNSt3__16__treeINS_12basic_stringIcNS_11char_traitsIcEENS_9allocatorIcEEEENS_4lessIS6_EENS4_IS6_EEE3endEv
FNDA:2,_ZNKSt3__16__treeINS_12__value_typeINS_12basic_stringIcNS_11char_traitsIcEENS_9allocatorIcEEEEN5Catch3PtrINS8_16IReporterFactoryEEEEENS_19__map_value_compareIS7_SC_NS_4lessIS7_EELb1EEENS5_ISC_EEE3endEv
FNDA:0,_ZNKSt3__16__treeINS_12__value_typeIiN5Catch5Clara11CommandLineINS2_10ConfigDataEE3ArgEEENS_19__map_value_compareIiS8_NS_4lessIiEELb1EEENS_9allocatorIS8_EEE3endEv
FNDA:37,_ZNKSt3__16__treeINS_12basic_stringIcNS_11char_traitsIcEENS_9allocatorIcEEEENS_4lessIS6_EENS4_IS6_EEE3endEv
FNDA:1,_ZNKSt3__16__treeINS_12__value_typeINS_12basic_stringIcNS_11char_traitsIcEENS_9allocatorIcEEEEN5Catch8TagAliasEEENS_19__map_value_compareIS7_SA_NS_4lessIS7_EELb1EEENS5_ISA_EEE3endEv
FNDA:4,_ZNSt3__16__treeINS_12__value_typeINS_12basic_stringIcNS_11char_traitsIcEENS_9allocatorIcEEEEN5Catch3PtrINS8_16IReporterFactoryEEEEENS_19__map_value_compareIS7_SC_NS_4lessIS7_EELb1EEENS5_ISC_EEE15__insert_uniqueERKNS_4pairIKS7_SB_EE
FNDA:0,_ZNSt3__16__treeINS_12__value_typeINS_12basic_stringIcNS_11char_traitsIcEENS_9allocatorIcEEEEPN5Catch18IGeneratorsForTestEEENS_19__map_value_compareIS7_SB_NS_4lessIS7_EELb1EEENS5_ISB_EEE15__insert_uniqueERKNS_4pairIKS7_SA_EE
FNDA:0,_ZNSt3__16__treeINS_12__value_typeINS_12basic_stringIcNS_11char_traitsIcEENS_9allocatorIcEEEEPN5Catch14IGeneratorInfoEEENS_19__map_value_compareIS7_SB_NS_4lessIS7_EELb1EEENS5_ISB_EEE15__insert_uniqueERKNS_4pairIKS7_SA_EE
FNDA:0,_ZNSt3__16__treeINS_12__value_typeINS_12basic_stringIcNS_11char_traitsIcEENS_9allocatorIcEEEEN5Catch7TagInfoEEENS_19__map_value_compareIS7_SA_NS_4lessIS7_EELb1EEENS5_ISA_EEE15__insert_uniqueERKNS_4pairIKS7_S9_EE
FNDA:0,_ZNSt3__16__treeINS_12basic_stringIcNS_11char_traitsIcEENS_9allocatorIcEEEENS_4lessIS6_EENS4_IS6_EEE15__insert_uniqueERKS6_
FNDA:1,_ZNSt3__16__treeIN5Catch8TestCaseENS_4lessIS2_EENS_9allocatorIS2_EEE15__insert_uniqueERKS2_
FNDA:0,_ZNSt3__16__treeINS_12__value_typeINS_12basic_stringIcNS_11char_traitsIcEENS_9allocatorIcEEEEN5Catch8TagAliasEEENS_19__map_value_compareIS7_SA_NS_4lessIS7_EELb1EEENS5_ISA_EEE15__insert_uniqueERKNS_4pairIKS7_S9_EE
FNDA:0,_ZNSt3__16__treeINS_12basic_stringIcNS_11char_traitsIcEENS_9allocatorIcEEEENS_4lessIS6_EENS4_IS6_EEE15__insert_uniqueENS_21__tree_const_iteratorIS6_PNS_11__tree_nodeIS6_PvEElEERKS6_
FNDA:1,_ZNSt3__16__treeINS_12basic_stringIcNS_11char_traitsIcEENS_9allocatorIcEEEENS_4lessIS6_EENS4_IS6_EEE19__copy_assign_allocERKSA_
FNDA:1,_ZNSt3__16__treeINS_12basic_stringIcNS_11char_traitsIcEENS_9allocatorIcEEEENS_4lessIS6_EENS4_IS6_EEE19__copy_assign_allocERKSA_NS_17integral_constantIbLb0EEE
FNDA:1,_ZNSt3__13mapINS_12basic_stringIcNS_11char_traitsIcEENS_9allocatorIcEEEEN5Catch3PtrINS7_16IReporterFactoryEEENS_4lessIS6_EENS4_INS_4pairIKS6_SA_EEEEED1Ev
FNDA:1,_ZNSt3__13mapINS_12basic_stringIcNS_11char_traitsIcEENS_9allocatorIcEEEEN5Catch3PtrINS7_16IReporterFactoryEEENS_4lessIS6_EENS4_INS_4pairIKS6_SA_EEEEED2Ev
FNDA:1,_ZNSt3__13mapINS_12basic_stringIcNS_11char_traitsIcEENS_9allocatorIcEEEEPN5Catch18IGeneratorsForTestENS_4lessIS6_EENS4_INS_4pairIKS6_S9_EEEEED1Ev
FNDA:1,_ZNSt3__13mapINS_12basic_stringIcNS_11char_traitsIcEENS_9allocatorIcEEEEPN5Catch18IGeneratorsForTestENS_4lessIS6_EENS4_INS_4pairIKS6_S9_EEEEED2Ev
FNDA:1,_ZNSt3__16__treeINS_12__value_typeINS_12basic_stringIcNS_11char_traitsIcEENS_9allocatorIcEEEEN5Catch3PtrINS8_16IReporterFactoryEEEEENS_19__map_value_compareIS7_SC_NS_4lessIS7_EELb1EEENS5_ISC_EEEC1ERKSG_
FNDA:1,_ZNSt3__16__treeINS_12__value_typeINS_12basic_stringIcNS_11char_traitsIcEENS_9allocatorIcEEEEN5Catch3PtrINS8_16IReporterFactoryEEEEENS_19__map_value_compareIS7_SC_NS_4lessIS7_EELb1EEENS5_ISC_EEEC2ERKSG_
FNDA:1,_ZNSt3__16__treeINS_12__value_typeINS_12basic_stringIcNS_11char_traitsIcEENS_9allocatorIcEEEEN5Catch8TagAliasEEENS_19__map_value_compareIS7_SA_NS_4lessIS7_EELb1EEENS5_ISA_EEEC1ERKSE_
FNDA:1,_ZNSt3__16__treeINS_12__value_typeINS_12basic_stringIcNS_11char_traitsIcEENS_9allocatorIcEEEEN5Catch8TagAliasEEENS_19__map_value_compareIS7_SA_NS_4lessIS7_EELb1EEENS5_ISA_EEEC2ERKSE_
FNDA:1,_ZNSt3__16__treeINS_12__value_typeINS_12basic_stringIcNS_11char_traitsIcEENS_9allocatorIcEEEEPN5Catch18IGeneratorsForTestEEENS_19__map_value_compareIS7_SB_NS_4lessIS7_EELb1EEENS5_ISB_EEEC1ERKSF_
FNDA:1,_ZNSt3__16__treeINS_12__value_typeINS_12basic_stringIcNS_11char_traitsIcEENS_9allocatorIcEEEEPN5Catch18IGeneratorsForTestEEENS_19__map_value_compareIS7_SB_NS_4lessIS7_EELb1EEENS5_ISB_EEEC2ERKSF_
FNDA:0,_ZNSt3__16__treeINS_12__value_typeINS_12basic_stringIcNS_11char_traitsIcEENS_9allocatorIcEEEEPN5Catch14IGeneratorInfoEEENS_19__map_value_compareIS7_SB_NS_4lessIS7_EELb1EEENS5_ISB_EEEC1ERKSF_
FNDA:0,_ZNSt3__16__treeINS_12__value_typeINS_12basic_stringIcNS_11char_traitsIcEENS_9allocatorIcEEEEPN5Catch14IGeneratorInfoEEENS_19__map_value_compareIS7_SB_NS_4lessIS7_EELb1EEENS5_ISB_EEEC2ERKSF_
FNDA:1,_ZNSt3__16__treeINS_12__value_typeIiN5Catch5Clara11CommandLineINS2_10ConfigDataEE3ArgEEENS_19__map_value_compareIiS8_NS_4lessIiEELb1EEENS_9allocatorIS8_EEEC1ERKSC_
FNDA:1,_ZNSt3__16__treeINS_12__value_typeIiN5Catch5Clara11CommandLineINS2_10ConfigDataEE3ArgEEENS_19__map_value_compareIiS8_NS_4lessIiEELb1EEENS_9allocatorIS8_EEEC2ERKSC_
FNDA:0,_ZNSt3__16__treeINS_12__value_typeINS_12basic_stringIcNS_11char_traitsIcEENS_9allocatorIcEEEEN5Catch7TagInfoEEENS_19__map_value_compareIS7_SA_NS_4lessIS7_EELb1EEENS5_ISA_EEEC1ERKSE_
FNDA:0,_ZNSt3__16__treeINS_12__value_typeINS_12basic_stringIcNS_11char_traitsIcEENS_9allocatorIcEEEEN5Catch7TagInfoEEENS_19__map_value_compareIS7_SA_NS_4lessIS7_EELb1EEENS5_ISA_EEEC2ERKSE_
FNDA:3,_ZNSt3__16__treeINS_12basic_stringIcNS_11char_traitsIcEENS_9allocatorIcEEEENS_4lessIS6_EENS4_IS6_EEEC1ERKS8_
FNDA:3,_ZNSt3__16__treeINS_12basic_stringIcNS_11char_traitsIcEENS_9allocatorIcEEEENS_4lessIS6_EENS4_IS6_EEEC2ERKS8_
FNDA:1,_ZNSt3__16__treeIN5Catch8TestCaseENS_4lessIS2_EENS_9allocatorIS2_EEEC1ERKS4_
FNDA:1,_ZNSt3__16__treeIN5Catch8TestCaseENS_4lessIS2_EENS_9allocatorIS2_EEEC2ERKS4_
FNDA:0,_ZNSt3__16__treeINS_12basic_stringIcNS_11char_traitsIcEENS_9allocatorIcEEEENS_4lessIS6_EENS4_IS6_EEE8__detachEv
FNDA:0,_ZNSt3__16__treeINS_12basic_stringIcNS_11char_traitsIcEENS_9allocatorIcEEEENS_4lessIS6_EENS4_IS6_EEE8__detachEPNS_11__tree_nodeIS6_PvEE
FNDA:1,_ZNSt3__16__treeINS_12basic_stringIcNS_11char_traitsIcEENS_9allocatorIcEEEENS_4lessIS6_EENS4_IS6_EEEaSERKSA_
FNDA:1,_ZNSt3__16__treeINS_12basic_stringIcNS_11char_traitsIcEENS_9allocatorIcEEEENS_4lessIS6_EENS4_IS6_EEE14__assign_multiINS_21__tree_const_iteratorIS6_PNS_11__tree_nodeIS6_PvEElEEEEvT_SI_
FNDA:16,_ZNSt3__16__treeINS_12basic_stringIcNS_11char_traitsIcEENS_9allocatorIcEEEENS_4lessIS6_EENS4_IS6_EEEC1ERKSA_
FNDA:16,_ZNSt3__16__treeINS_12basic_stringIcNS_11char_traitsIcEENS_9allocatorIcEEEENS_4lessIS6_EENS4_IS6_EEEC2ERKSA_
FNDA:19,_ZNSt3__16__treeINS_12basic_stringIcNS_11char_traitsIcEENS_9allocatorIcEEEENS_4lessIS6_EENS4_IS6_EEED1Ev
FNDA:19,_ZNSt3__16__treeINS_12basic_stringIcNS_11char_traitsIcEENS_9allocatorIcEEEENS_4lessIS6_EENS4_IS6_EEED2Ev
FNDA:1,_ZNSt3__16__treeIN5Catch8TestCaseENS_4lessIS2_EENS_9allocatorIS2_EEED1Ev
FNDA:1,_ZNSt3__16__treeIN5Catch8TestCaseENS_4lessIS2_EENS_9allocatorIS2_EEED2Ev
FNDA:1,_ZNSt3__16__treeINS_12__value_typeINS_12basic_stringIcNS_11char_traitsIcEENS_9allocatorIcEEEEN5Catch3PtrINS8_16IReporterFactoryEEEEENS_19__map_value_compareIS7_SC_NS_4lessIS7_EELb1EEENS5_ISC_EEED1Ev
FNDA:1,_ZNSt3__16__treeINS_12__value_typeINS_12basic_stringIcNS_11char_traitsIcEENS_9allocatorIcEEEEN5Catch3PtrINS8_16IReporterFactoryEEEEENS_19__map_value_compareIS7_SC_NS_4lessIS7_EELb1EEENS5_ISC_EEED2Ev
FNDA:1,_ZNSt3__16__treeINS_12__value_typeINS_12basic_stringIcNS_11char_traitsIcEENS_9allocatorIcEEEEPN5Catch18IGeneratorsForTestEEENS_19__map_value_compareIS7_SB_NS_4lessIS7_EELb1EEENS5_ISB_EEED1Ev
FNDA:1,_ZNSt3__16__treeINS_12__value_typeINS_12basic_stringIcNS_11char_traitsIcEENS_9allocatorIcEEEEPN5Catch18IGeneratorsForTestEEENS_19__map_value_compareIS7_SB_NS_4lessIS7_EELb1EEENS5_ISB_EEED2Ev
FNDA:0,_ZNSt3__16__treeINS_12__value_typeINS_12basic_stringIcNS_11char_traitsIcEENS_9allocatorIcEEEEPN5Catch14IGeneratorInfoEEENS_19__map_value_compareIS7_SB_NS_4lessIS7_EELb1EEENS5_ISB_EEED1Ev
FNDA:0,_ZNSt3__16__treeINS_12__value_typeINS_12basic_stringIcNS_11char_traitsIcEENS_9allocatorIcEEEEPN5Catch14IGeneratorInfoEEENS_19__map_value_compareIS7_SB_NS_4lessIS7_EELb1EEENS5_ISB_EEED2Ev
FNDA:1,_ZNSt3__16__treeINS_12__value_typeINS_12basic_stringIcNS_11char_traitsIcEENS_9allocatorIcEEEEN5Catch8TagAliasEEENS_19__map_value_compareIS7_SA_NS_4lessIS7_EELb1EEENS5_ISA_EEED1Ev
FNDA:1,_ZNSt3__16__treeINS_12__value_typeINS_12basic_stringIcNS_11char_traitsIcEENS_9allocatorIcEEEEN5Catch8TagAliasEEENS_19__map_value_compareIS7_SA_NS_4lessIS7_EELb1EEENS5_ISA_EEED2Ev
FNDA:1,_ZNSt3__16__treeINS_12__value_typeIiN5Catch5Clara11CommandLineINS2_10ConfigDataEE3ArgEEENS_19__map_value_compareIiS8_NS_4lessIiEELb1EEENS_9allocatorIS8_EEED1Ev
FNDA:1,_ZNSt3__16__treeINS_12__value_typeIiN5Catch5Clara11CommandLineINS2_10ConfigDataEE3ArgEEENS_19__map_value_compareIiS8_NS_4lessIiEELb1EEENS_9allocatorIS8_EEED2Ev
FNDA:0,_ZNSt3__16__treeINS_12__value_typeINS_12basic_stringIcNS_11char_traitsIcEENS_9allocatorIcEEEEN5Catch7TagInfoEEENS_19__map_value_compareIS7_SA_NS_4lessIS7_EELb1EEENS5_ISA_EEED1Ev
FNDA:0,_ZNSt3__16__treeINS_12__value_typeINS_12basic_stringIcNS_11char_traitsIcEENS_9allocatorIcEEEEN5Catch7TagInfoEEENS_19__map_value_compareIS7_SA_NS_4lessIS7_EELb1EEENS5_ISA_EEED2Ev
FNDA:20,_ZNSt3__16__treeINS_12basic_stringIcNS_11char_traitsIcEENS_9allocatorIcEEEENS_4lessIS6_EENS4_IS6_EEE7destroyEPNS_11__tree_nodeIS6_PvEE
FNDA:3,_ZNSt3__16__treeIN5Catch8TestCaseENS_4lessIS2_EENS_9allocatorIS2_EEE7destroyEPNS_11__tree_nodeIS2_PvEE
FNDA:9,_ZNSt3__16__treeINS_12__value_typeINS_12basic_stringIcNS_11char_traitsIcEENS_9allocatorIcEEEEN5Catch3PtrINS8_16IReporterFactoryEEEEENS_19__map_value_compareIS7_SC_NS_4lessIS7_EELb1EEENS5_ISC_EEE7destroyEPNS_11__tree_nodeISC_PvEE
FNDA:1,_ZNSt3__16__treeINS_12__value_typeINS_12basic_stringIcNS_11char_traitsIcEENS_9allocatorIcEEEEPN5Catch18IGeneratorsForTestEEENS_19__map_value_compareIS7_SB_NS_4lessIS7_EELb1EEENS5_ISB_EEE7destroyEPNS_11__tree_nodeISB_PvEE
FNDA:0,_ZNSt3__16__treeINS_12__value_typeINS_12basic_stringIcNS_11char_traitsIcEENS_9allocatorIcEEEEPN5Catch14IGeneratorInfoEEENS_19__map_value_compareIS7_SB_NS_4lessIS7_EELb1EEENS5_ISB_EEE7destroyEPNS_11__tree_nodeISB_PvEE
FNDA:1,_ZNSt3__16__treeINS_12__value_typeINS_12basic_stringIcNS_11char_traitsIcEENS_9allocatorIcEEEEN5Catch8TagAliasEEENS_19__map_value_compareIS7_SA_NS_4lessIS7_EELb1EEENS5_ISA_EEE7destroyEPNS_11__tree_nodeISA_PvEE
FNDA:1,_ZNSt3__16__treeINS_12__value_typeIiN5Catch5Clara11CommandLineINS2_10ConfigDataEE3ArgEEENS_19__map_value_compareIiS8_NS_4lessIiEELb1EEENS_9allocatorIS8_EEE7destroyEPNS_11__tree_nodeIS8_PvEE
FNDA:0,_ZNSt3__16__treeINS_12__value_typeINS_12basic_stringIcNS_11char_traitsIcEENS_9allocatorIcEEEEN5Catch7TagInfoEEENS_19__map_value_compareIS7_SA_NS_4lessIS7_EELb1EEENS5_ISA_EEE7destroyEPNS_11__tree_nodeISA_PvEE
FNDA:0,_ZNSt3__16__treeINS_12basic_stringIcNS_11char_traitsIcEENS_9allocatorIcEEEENS_4lessIS6_EENS4_IS6_EEE4swapERSA_
FNDA:1,_ZNSt3__16__treeINS_12basic_stringIcNS_11char_traitsIcEENS_9allocatorIcEEEENS_4lessIS6_EENS4_IS6_EEE5clearEv
FNDA:0,_ZNSt3__16__treeINS_12basic_stringIcNS_11char_traitsIcEENS_9allocatorIcEEEENS_4lessIS6_EENS4_IS6_EEE16__find_leaf_highERPNS_15__tree_end_nodeIPNS_16__tree_node_baseIPvEEEERKS6_
FNDA:4,_ZNSt3__16__treeINS_12__value_typeINS_12basic_stringIcNS_11char_traitsIcEENS_9allocatorIcEEEEN5Catch3PtrINS8_16IReporterFactoryEEEEENS_19__map_value_compareIS7_SC_NS_4lessIS7_EELb1EEENS5_ISC_EEE12__find_equalIS7_EERPNS_16__tree_node_baseIPvEERPNS_15__tree_end_nodeISN_EERKT_
FNDA:0,_ZNSt3__16__treeINS_12__value_typeINS_12basic_stringIcNS_11char_traitsIcEENS_9allocatorIcEEEEPN5Catch18IGeneratorsForTestEEENS_19__map_value_compareIS7_SB_NS_4lessIS7_EELb1EEENS5_ISB_EEE12__find_equalIS7_EERPNS_16__tree_node_baseIPvEERPNS_15__tree_end_nodeISM_EERKT_
FNDA:0,_ZNSt3__16__treeINS_12__value_typeINS_12basic_stringIcNS_11char_traitsIcEENS_9allocatorIcEEEEPN5Catch14IGeneratorInfoEEENS_19__map_value_compareIS7_SB_NS_4lessIS7_EELb1EEENS5_ISB_EEE12__find_equalIS7_EERPNS_16__tree_node_baseIPvEERPNS_15__tree_end_nodeISM_EERKT_
FNDA:0,_ZNSt3__16__treeINS_12__value_typeINS_12basic_stringIcNS_11char_traitsIcEENS_9allocatorIcEEEEN5Catch7TagInfoEEENS_19__map_value_compareIS7_SA_NS_4lessIS7_EELb1EEENS5_ISA_EEE12__find_equalIS7_EERPNS_16__tree_node_baseIPvEERPNS_15__tree_end_nodeISL_EERKT_
FNDA:0,_ZNSt3__16__treeINS_12basic_stringIcNS_11char_traitsIcEENS_9allocatorIcEEEENS_4lessIS6_EENS4_IS6_EEE12__find_equalIS6_EERPNS_16__tree_node_baseIPvEERPNS_15__tree_end_nodeISF_EERKT_
FNDA:1,_ZNSt3__16__treeIN5Catch8TestCaseENS_4lessIS2_EENS_9allocatorIS2_EEE12__find_equalIS2_EERPNS_16__tree_node_baseIPvEERPNS_15__tree_end_nodeISC_EERKT_
FNDA:0,_ZNSt3__16__treeINS_12__value_typeINS_12basic_stringIcNS_11char_traitsIcEENS_9allocatorIcEEEEN5Catch8TagAliasEEENS_19__map_value_compareIS7_SA_NS_4lessIS7_EELb1EEENS5_ISA_EEE12__find_equalIS7_EERPNS_16__tree_node_baseIPvEERPNS_15__tree_end_nodeISL_EERKT_
FNDA:0,_ZNSt3__16__treeINS_12basic_stringIcNS_11char_traitsIcEENS_9allocatorIcEEEENS_4lessIS6_EENS4_IS6_EEE12__find_equalIS6_EERPNS_16__tree_node_baseIPvEENS_21__tree_const_iteratorIS6_PNS_11__tree_nodeIS6_SD_EElEERPNS_15__tree_end_nodeISF_EESG_RKT_
FNDA:4,_ZNSt3__16__treeINS_12__value_typeINS_12basic_stringIcNS_11char_traitsIcEENS_9allocatorIcEEEEN5Catch3PtrINS8_16IReporterFactoryEEEEENS_19__map_value_compareIS7_SC_NS_4lessIS7_EELb1EEENS5_ISC_EEE16__insert_node_atEPNS_15__tree_end_nodeIPNS_16__tree_node_baseIPvEEEERSN_SN_
FNDA:0,_ZNSt3__16__treeINS_12__value_typeINS_12basic_stringIcNS_11char_traitsIcEENS_9allocatorIcEEEEPN5Catch18IGeneratorsForTestEEENS_19__map_value_compareIS7_SB_NS_4lessIS7_EELb1EEENS5_ISB_EEE16__insert_node_atEPNS_15__tree_end_nodeIPNS_16__tree_node_baseIPvEEEERSM_SM_
FNDA:0,_ZNSt3__16__treeINS_12__value_typeINS_12basic_stringIcNS_11char_traitsIcEENS_9allocatorIcEEEEPN5Catch14IGeneratorInfoEEENS_19__map_value_compareIS7_SB_NS_4lessIS7_EELb1EEENS5_ISB_EEE16__insert_node_atEPNS_15__tree_end_nodeIPNS_16__tree_node_baseIPvEEEERSM_SM_
FNDA:0,_ZNSt3__16__treeINS_12__value_typeINS_12basic_stringIcNS_11char_traitsIcEENS_9allocatorIcEEEEN5Catch7TagInfoEEENS_19__map_value_compareIS7_SA_NS_4lessIS7_EELb1EEENS5_ISA_EEE16__insert_node_atEPNS_15__tree_end_nodeIPNS_16__tree_node_baseIPvEEEERSL_SL_
FNDA:0,_ZNSt3__16__treeINS_12basic_stringIcNS_11char_traitsIcEENS_9allocatorIcEEEENS_4lessIS6_EENS4_IS6_EEE16__insert_node_atEPNS_15__tree_end_nodeIPNS_16__tree_node_baseIPvEEEERSF_SF_
FNDA:1,_ZNSt3__16__treeIN5Catch8TestCaseENS_4lessIS2_EENS_9allocatorIS2_EEE16__insert_node_atEPNS_15__tree_end_nodeIPNS_16__tree_node_baseIPvEEEERSC_SC_
FNDA:0,_ZNSt3__16__treeINS_12__value_typeINS_12basic_stringIcNS_11char_traitsIcEENS_9allocatorIcEEEEN5Catch8TagAliasEEENS_19__map_value_compareIS7_SA_NS_4lessIS7_EELb1EEENS5_ISA_EEE16__insert_node_atEPNS_15__tree_end_nodeIPNS_16__tree_node_baseIPvEEEERSL_SL_
FNDA:4,_ZNSt3__16__treeINS_12__value_typeINS_12basic_stringIcNS_11char_traitsIcEENS_9allocatorIcEEEEN5Catch3PtrINS8_16IReporterFactoryEEEEENS_19__map_value_compareIS7_SC_NS_4lessIS7_EELb1EEENS5_ISC_EEE25__emplace_unique_key_argsIS7_KNS_4pairIKS7_SB_EEEENSK_INS_15__tree_iteratorISC_PNS_11__tree_nodeISC_PvEElEEbEERKT_RT0_
FNDA:0,_ZNSt3__16__treeINS_12__value_typeINS_12basic_stringIcNS_11char_traitsIcEENS_9allocatorIcEEEEPN5Catch18IGeneratorsForTestEEENS_19__map_value_compareIS7_SB_NS_4lessIS7_EELb1EEENS5_ISB_EEE25__emplace_unique_key_argsIS7_KNS_4pairIKS7_SA_EEEENSJ_INS_15__tree_iteratorISB_PNS_11__tree_nodeISB_PvEElEEbEERKT_RT0_
FNDA:0,_ZNSt3__16__treeINS_12__value_typeINS_12basic_stringIcNS_11char_traitsIcEENS_9allocatorIcEEEEPN5Catch14IGeneratorInfoEEENS_19__map_value_compareIS7_SB_NS_4lessIS7_EELb1EEENS5_ISB_EEE25__emplace_unique_key_argsIS7_KNS_4pairIKS7_SA_EEEENSJ_INS_15__tree_iteratorISB_PNS_11__tree_nodeISB_PvEElEEbEERKT_RT0_
FNDA:0,_ZNSt3__16__treeINS_12__value_typeINS_12basic_stringIcNS_11char_traitsIcEENS_9allocatorIcEEEEN5Catch7TagInfoEEENS_19__map_value_compareIS7_SA_NS_4lessIS7_EELb1EEENS5_ISA_EEE25__emplace_unique_key_argsIS7_KNS_4pairIKS7_S9_EEEENSI_INS_15__tree_iteratorISA_PNS_11__tree_nodeISA_PvEElEEbEERKT_RT0_
FNDA:0,_ZNSt3__16__treeINS_12basic_stringIcNS_11char_traitsIcEENS_9allocatorIcEEEENS_4lessIS6_EENS4_IS6_EEE25__emplace_unique_key_argsIS6_KS6_EENS_4pairINS_15__tree_iteratorIS6_PNS_11__tree_nodeIS6_PvEElEEbEERKT_RT0_
FNDA:1,_ZNSt3__16__treeIN5Catch8TestCaseENS_4lessIS2_EENS_9allocatorIS2_EEE25__emplace_unique_key_argsIS2_KS2_EENS_4pairINS_15__tree_iteratorIS2_PNS_11__tree_nodeIS2_PvEElEEbEERKT_RT0_
FNDA:0,_ZNSt3__16__treeINS_12__value_typeINS_12basic_stringIcNS_11char_traitsIcEENS_9allocatorIcEEEEN5Catch8TagAliasEEENS_19__map_value_compareIS7_SA_NS_4lessIS7_EELb1EEENS5_ISA_EEE25__emplace_unique_key_argsIS7_KNS_4pairIKS7_S9_EEEENSI_INS_15__tree_iteratorISA_PNS_11__tree_nodeISA_PvEElEEbEERKT_RT0_
FNDA:0,_ZNSt3__16__treeINS_12basic_stringIcNS_11char_traitsIcEENS_9allocatorIcEEEENS_4lessIS6_EENS4_IS6_EEE30__emplace_hint_unique_key_argsIS6_KS6_EENS_15__tree_iteratorIS6_PNS_11__tree_nodeIS6_PvEElEENS_21__tree_const_iteratorIS6_SH_lEERKT_RT0_
FNDA:4,_ZNSt3__16__treeINS_12__value_typeINS_12basic_stringIcNS_11char_traitsIcEENS_9allocatorIcEEEEN5Catch3PtrINS8_16IReporterFactoryEEEEENS_19__map_value_compareIS7_SC_NS_4lessIS7_EELb1EEENS5_ISC_EEE16__construct_nodeERKNS_4pairIKS7_SB_EE
FNDA:0,_ZNSt3__16__treeINS_12__value_typeINS_12basic_stringIcNS_11char_traitsIcEENS_9allocatorIcEEEEPN5Catch18IGeneratorsForTestEEENS_19__map_value_compareIS7_SB_NS_4lessIS7_EELb1EEENS5_ISB_EEE16__construct_nodeERKNS_4pairIKS7_SA_EE
FNDA:0,_ZNSt3__16__treeINS_12__value_typeINS_12basic_stringIcNS_11char_traitsIcEENS_9allocatorIcEEEEPN5Catch14IGeneratorInfoEEENS_19__map_value_compareIS7_SB_NS_4lessIS7_EELb1EEENS5_ISB_EEE16__construct_nodeERKNS_4pairIKS7_SA_EE
FNDA:0,_ZNSt3__16__treeINS_12__value_typeINS_12basic_stringIcNS_11char_traitsIcEENS_9allocatorIcEEEEN5Catch7TagInfoEEENS_19__map_value_compareIS7_SA_NS_4lessIS7_EELb1EEENS5_ISA_EEE16__construct_nodeERKNS_4pairIKS7_S9_EE
FNDA:0,_ZNSt3__16__treeINS_12basic_stringIcNS_11char_traitsIcEENS_9allocatorIcEEEENS_4lessIS6_EENS4_IS6_EEE16__construct_nodeERKS6_
FNDA:1,_ZNSt3__16__treeIN5Catch8TestCaseENS_4lessIS2_EENS_9allocatorIS2_EEE16__construct_nodeERKS2_
FNDA:0,_ZNSt3__16__treeINS_12__value_typeINS_12basic_stringIcNS_11char_traitsIcEENS_9allocatorIcEEEEN5Catch8TagAliasEEENS_19__map_value_compareIS7_SA_NS_4lessIS7_EELb1EEENS5_ISA_EEE16__construct_nodeERKNS_4pairIKS7_S9_EE
FNDA:0,_ZNSt3__16__treeINS_12basic_stringIcNS_11char_traitsIcEENS_9allocatorIcEEEENS_4lessIS6_EENS4_IS6_EEE14__insert_multiERKS6_
FNDA:0,_ZNSt3__16__treeINS_12basic_stringIcNS_11char_traitsIcEENS_9allocatorIcEEEENS_4lessIS6_EENS4_IS6_EEE19__node_insert_multiEPNS_11__tree_nodeIS6_PvEE
FNDA:1,_ZNSt3__16__treeINS_12__value_typeINS_12basic_stringIcNS_11char_traitsIcEENS_9allocatorIcEEEEPN5Catch18IGeneratorsForTestEEENS_19__map_value_compareIS7_SB_NS_4lessIS7_EELb1EEENS5_ISB_EEE4findIS7_EENS_15__tree_iteratorISB_PNS_11__tree_nodeISB_PvEElEERKT_
FNDA:0,_ZNSt3__16__treeINS_12__value_typeINS_12basic_stringIcNS_11char_traitsIcEENS_9allocatorIcEEEEPN5Catch14IGeneratorInfoEEENS_19__map_value_compareIS7_SB_NS_4lessIS7_EELb1EEENS5_ISB_EEE4findIS7_EENS_15__tree_iteratorISB_PNS_11__tree_nodeISB_PvEElEERKT_
FNDA:0,_ZNSt3__16__treeINS_12__value_typeINS_12basic_stringIcNS_11char_traitsIcEENS_9allocatorIcEEEEN5Catch7TagInfoEEENS_19__map_value_compareIS7_SA_NS_4lessIS7_EELb1EEENS5_ISA_EEE4findIS7_EENS_15__tree_iteratorISA_PNS_11__tree_nodeISA_PvEElEERKT_
FNDA:1,_ZNKSt3__16__treeINS_12__value_typeINS_12basic_stringIcNS_11char_traitsIcEENS_9allocatorIcEEEEN5Catch3PtrINS8_16IReporterFactoryEEEEENS_19__map_value_compareIS7_SC_NS_4lessIS7_EELb1EEENS5_ISC_EEE4findIS7_EENS_21__tree_const_iteratorISC_PNS_11__tree_nodeISC_PvEElEERKT_
FNDA:0,_ZNKSt3__16__treeINS_12__value_typeIiN5Catch5Clara11CommandLineINS2_10ConfigDataEE3ArgEEENS_19__map_value_compareIiS8_NS_4lessIiEELb1EEENS_9allocatorIS8_EEE4findIiEENS_21__tree_const_iteratorIS8_PNS_11__tree_nodeIS8_PvEElEERKT_
FNDA:1,_ZNKSt3__16__treeINS_12basic_stringIcNS_11char_traitsIcEENS_9allocatorIcEEEENS_4lessIS6_EENS4_IS6_EEE4findIS6_EENS_21__tree_const_iteratorIS6_PNS_11__tree_nodeIS6_PvEElEERKT_
FNDA:0,_ZNKSt3__16__treeINS_12__value_typeINS_12basic_stringIcNS_11char_traitsIcEENS_9allocatorIcEEEEN5Catch8TagAliasEEENS_19__map_value_compareIS7_SA_NS_4lessIS7_EELb1EEENS5_ISA_EEE4findIS7_EENS_21__tree_const_iteratorISA_PNS_11__tree_nodeISA_PvEElEERKT_
FNDA:1,_ZNSt3__16__treeINS_12__value_typeINS_12basic_stringIcNS_11char_traitsIcEENS_9allocatorIcEEEEPN5Catch18IGeneratorsForTestEEENS_19__map_value_compareIS7_SB_NS_4lessIS7_EELb1EEENS5_ISB_EEE13__lower_boundIS7_EENS_15__tree_iteratorISB_PNS_11__tree_nodeISB_PvEElEERKT_SN_PNS_15__tree_end_nodeIPNS_16__tree_node_baseISL_EEEE
FNDA:0,_ZNSt3__16__treeINS_12__value_typeINS_12basic_stringIcNS_11char_traitsIcEENS_9allocatorIcEEEEPN5Catch14IGeneratorInfoEEENS_19__map_value_compareIS7_SB_NS_4lessIS7_EELb1EEENS5_ISB_EEE13__lower_boundIS7_EENS_15__tree_iteratorISB_PNS_11__tree_nodeISB_PvEElEERKT_SN_PNS_15__tree_end_nodeIPNS_16__tree_node_baseISL_EEEE
FNDA:0,_ZNSt3__16__treeINS_12__value_typeINS_12basic_stringIcNS_11char_traitsIcEENS_9allocatorIcEEEEN5Catch7TagInfoEEENS_19__map_value_compareIS7_SA_NS_4lessIS7_EELb1EEENS5_ISA_EEE13__lower_boundIS7_EENS_15__tree_iteratorISA_PNS_11__tree_nodeISA_PvEElEERKT_SM_PNS_15__tree_end_nodeIPNS_16__tree_node_baseISK_EEEE
FNDA:1,_ZNKSt3__16__treeINS_12__value_typeINS_12basic_stringIcNS_11char_traitsIcEENS_9allocatorIcEEEEN5Catch3PtrINS8_16IReporterFactoryEEEEENS_19__map_value_compareIS7_SC_NS_4lessIS7_EELb1EEENS5_ISC_EEE13__lower_boundIS7_EENS_21__tree_const_iteratorISC_PNS_11__tree_nodeISC_PvEElEERKT_SO_PNS_15__tree_end_nodeIPNS_16__tree_node_baseISM_EEEE
FNDA:0,_ZNKSt3__16__treeINS_12__value_typeIiN5Catch5Clara11CommandLineINS2_10ConfigDataEE3ArgEEENS_19__map_value_compareIiS8_NS_4lessIiEELb1EEENS_9allocatorIS8_EEE13__lower_boundIiEENS_21__tree_const_iteratorIS8_PNS_11__tree_nodeIS8_PvEElEERKT_SL_PNS_15__tree_end_nodeIPNS_16__tree_node_baseISJ_EEEE
FNDA:1,_ZNKSt3__16__treeINS_12basic_stringIcNS_11char_traitsIcEENS_9allocatorIcEEEENS_4lessIS6_EENS4_IS6_EEE13__lower_boundIS6_EENS_21__tree_const_iteratorIS6_PNS_11__tree_nodeIS6_PvEElEERKT_SG_PNS_15__tree_end_nodeIPNS_16__tree_node_baseISE_EEEE
FNDA:0,_ZNKSt3__16__treeINS_12__value_typeINS_12basic_stringIcNS_11char_traitsIcEENS_9allocatorIcEEEEN5Catch8TagAliasEEENS_19__map_value_compareIS7_SA_NS_4lessIS7_EELb1EEENS5_ISA_EEE13__lower_boundIS7_EENS_21__tree_const_iteratorISA_PNS_11__tree_nodeISA_PvEElEERKT_SM_PNS_15__tree_end_nodeIPNS_16__tree_node_baseISK_EEEE
FNF:345
FNH:150
DA:78,4
DA:144,0
DA:145,0
DA:146,0
DA:147,0
DA:156,0
DA:157,0
DA:158,0
DA:159,0
DA:179,0
DA:180,0
DA:181,0
DA:182,0
DA:183,0
DA:184,0
DA:194,0
DA:195,0
DA:196,0
DA:197,0
DA:198,0
DA:199,0
DA:200,0
DA:208,0
DA:210,0
DA:212,0
DA:213,0
DA:215,0
DA:217,0
DA:218,0
DA:220,0
DA:222,0
DA:223,0
DA:232,0
DA:233,0
DA:234,0
DA:235,0
DA:236,0
DA:237,0
DA:238,0
DA:240,0
DA:241,0
DA:242,0
DA:243,0
DA:252,1
DA:253,1
DA:254,3
DA:255,0
DA:256,1
DA:257,1
DA:258,1
DA:260,0
DA:261,1
DA:262,1
DA:263,1
DA:277,5
DA:278,24
DA:281,4
DA:283,6
DA:284,7
DA:286,2
DA:287,1
DA:288,2
DA:289,1
DA:290,1
DA:291,1
DA:294,1
DA:296,0
DA:297,0
DA:298,0
DA:299,2
DA:300,1
DA:301,2
DA:302,1
DA:303,1
DA:304,1
DA:306,1
DA:309,0
DA:310,0
DA:312,0
DA:313,0
DA:314,0
DA:315,0
DA:316,0
DA:317,0
DA:320,0
DA:322,0
DA:323,0
DA:324,0
DA:325,0
DA:326,0
DA:327,0
DA:328,0
DA:329,0
DA:330,0
DA:334,5
DA:556,1
DA:560,0
DA:564,2
DA:596,4
DA:615,8
DA:718,48
DA:736,13
DA:740,1
DA:741,1
DA:784,5
DA:785,5
DA:786,10
DA:791,0
DA:792,0
DA:793,0
DA:794,0
DA:795,0
DA:827,0
DA:829,0
DA:853,1
DA:856,1
DA:860,10
DA:862,12
DA:864,0
DA:868,2
DA:870,2
DA:897,0
DA:905,10
DA:908,1
DA:910,1
DA:914,0
DA:915,0
DA:916,0
DA:925,0
DA:926,0
DA:927,0
DA:936,25
DA:939,24
DA:947,122
DA:949,2
DA:1022,38
DA:1023,38
DA:1029,80
DA:1030,80
DA:1031,80
DA:1036,10
DA:1040,16
DA:1042,41
DA:1044,19
DA:1051,7
DA:1054,0
DA:1056,6
DA:1059,21
DA:1064,33
DA:1067,5
DA:1073,8
DA:1101,1
DA:1103,19
DA:1105,4
DA:1107,40
DA:1248,5
DA:1253,0
DA:1429,1
DA:1430,1
DA:1440,1
DA:1465,4
DA:1474,8
DA:1475,8
DA:1476,8
DA:1477,16
DA:1503,0
DA:1504,0
DA:1505,0
DA:1506,0
DA:1507,0
DA:1509,0
DA:1510,0
DA:1513,0
DA:1524,0
DA:1525,0
DA:1526,0
DA:1528,0
DA:1529,0
DA:1530,0
DA:1531,0
DA:1532,0
DA:1535,0
DA:1536,0
DA:1537,0
DA:1538,0
DA:1539,0
DA:1540,0
DA:1546,1
DA:1548,1
DA:1549,1
DA:1550,1
DA:1551,1
DA:1552,1
DA:1611,1
DA:1613,0
DA:1618,0
DA:1620,0
DA:1621,0
DA:1622,0
DA:1623,0
DA:1624,0
DA:1626,0
DA:1629,0
DA:1630,0
DA:1631,0
DA:1632,0
DA:1633,0
DA:1635,0
DA:1637,0
DA:1638,0
DA:1639,0
DA:1640,0
DA:1641,0
DA:1642,2
DA:1643,0
DA:1644,1
DA:1648,16
DA:1649,16
DA:1650,16
DA:1651,16
DA:1652,16
DA:1653,32
DA:1789,24
DA:1792,24
DA:1793,48
DA:1799,105
DA:1801,0
DA:1802,0
DA:1803,0
DA:1804,5
DA:1805,5
DA:1806,5
DA:1807,35
DA:1823,0
DA:1824,0
DA:1825,0
DA:1826,0
DA:1827,0
DA:1828,0
DA:1830,0
DA:1831,0
DA:1832,0
DA:1834,0
DA:1835,0
DA:1841,1
DA:1842,1
DA:1843,1
DA:1844,3
DA:1845,1
DA:1894,0
DA:1895,0
DA:1897,0
DA:1899,0
DA:1901,0
DA:1902,0
DA:1905,0
DA:1906,0
DA:1908,0
DA:1911,0
DA:1912,0
DA:1915,0
DA:1916,0
DA:1921,0
DA:1922,0
DA:1923,0
DA:1972,5
DA:1973,5
DA:1974,5
DA:1976,5
DA:1978,5
DA:1980,5
DA:1981,2
DA:1982,2
DA:1983,2
DA:1984,3
DA:1985,3
DA:1987,2
DA:1988,0
DA:1990,0
DA:1991,0
DA:1992,0
DA:1993,0
DA:1994,0
DA:1995,0
DA:1997,0
DA:2000,0
DA:2001,0
DA:2005,2
DA:2006,2
DA:2007,5
DA:2024,0
DA:2027,0
DA:2028,0
DA:2031,0
DA:2033,0
DA:2034,0
DA:2038,0
DA:2039,0
DA:2043,0
DA:2045,0
DA:2048,0
DA:2049,0
DA:2052,0
DA:2054,0
DA:2055,0
DA:2059,0
DA:2060,0
DA:2064,0
DA:2067,0
DA:2068,0
DA:2069,0
DA:2070,0
DA:2078,5
DA:2079,5
DA:2080,5
DA:2082,5
DA:2083,5
DA:2084,5
DA:2085,5
DA:2086,5
DA:2087,5
DA:2102,5
DA:2103,5
DA:2104,5
DA:2105,5
DA:2110,15
DA:2112,5
DA:2113,5
DA:2114,5
DA:2115,5
DA:2116,5
DA:2117,0
DA:2136,0
DA:2137,0
DA:2138,0
DA:2143,0
DA:2145,0
DA:2146,0
DA:2147,0
DA:2148,0
DA:2149,0
DA:2238,5
DA:2239,5
DA:2240,10
DA:2241,5
DA:2242,20
DA:2243,5
DA:2253,0
DA:2254,0
DA:2255,0
DA:2256,0
DA:2257,0
DA:2310,0
DA:2311,0
DA:2312,0
DA:2383,1
DA:2384,2
DA:2385,0
DA:2386,1
DA:2387,1
DA:2394,2
DA:2395,5
DA:2396,1
DA:2397,1
DA:2398,2
DA:2452,2
DA:2454,0
DA:2456,0
DA:2457,0
DA:2458,0
DA:2460,0
DA:2462,1
DA:2472,10
DA:2474,3
DA:2476,2
DA:2477,2
DA:2478,2
DA:2480,1
DA:2482,2
LF:379
LH:168
end_of_record
SF:/Library/Developer/CommandLineTools/usr/include/c++/v1/algorithm
FN:677,_ZNKSt3__110__equal_toIccEclERKcS3_
FN:714,_ZNKSt3__16__lessImmEclERKmS3_
FN:714,_ZNKSt3__16__lessIllEclERKlS3_
FN:714,_ZNKSt3__16__lessIPcS1_EclERKS1_S4_
FN:714,_ZNKSt3__16__lessIN5Catch8TestCaseES2_EclERKS2_S5_
FN:888,_ZNSt3__14findINS_11__wrap_iterIPKcEEcEET_S5_S5_RKT0_
FN:888,_ZNSt3__14findINS_11__wrap_iterIPN5Catch11MessageInfoEEES3_EET_S6_S6_RKT0_
FN:888,_ZNSt3__14findINS_11__wrap_iterIPKNS_12basic_stringIcNS_11char_traitsIcEENS_9allocatorIcEEEEEES7_EET_SB_SB_RKT0_
FN:901,_ZNSt3__17find_ifINS_11__wrap_iterIPN5Catch3PtrINS2_22CumulativeReporterBase11SectionNodeEEEEENS4_13BySectionInfoEEET_SA_SA_T0_
FN:901,_ZNSt3__17find_ifINS_11__wrap_iterIPN5Catch3PtrINS2_16TestCaseTracking8ITrackerEEEEENS4_11TrackerBase14TrackerHasNameEEET_SB_SB_T0_
FN:1007,_ZNSt3__110__find_endIPFbccEPKcS4_EET0_S5_S5_T1_S6_T_NS_26random_access_iterator_tagES8_
FN:1216,_ZNSt3__15equalINS_11__wrap_iterIPKcEES4_NS_10__equal_toIccEEEEbT_S7_T0_T1_
FN:1216,_ZNSt3__15equalINS_16reverse_iteratorINS_11__wrap_iterIPKcEEEES6_NS_10__equal_toIccEEEEbT_S9_T0_T1_
FN:1227,_ZNSt3__15equalINS_11__wrap_iterIPKcEES4_EEbT_S5_T0_
FN:1227,_ZNSt3__15equalINS_16reverse_iteratorINS_11__wrap_iterIPKcEEEES6_EEbT_S7_T0_
FN:1653,_ZNSt3__113__unwrap_iterIPN5Catch8TestSpec6FilterEEET_S5_
FN:1653,_ZNSt3__113__unwrap_iterIPNS_12basic_stringIcNS_11char_traitsIcEENS_9allocatorIcEEEEEET_S8_
FN:1653,_ZNSt3__113__unwrap_iterIPN5Catch11MessageInfoEEET_S4_
FN:1653,_ZNSt3__113__unwrap_iterIPN5Catch5Clara6Parser5TokenEEET_S6_
FN:1653,_ZNSt3__113__unwrap_iterINS_11__wrap_iterIPKNS_12basic_stringIcNS_11char_traitsIcEENS_9allocatorIcEEEEEEEET_SB_
FN:1653,_ZNSt3__113__unwrap_iterIPN5Catch3PtrINS1_8TestSpec7PatternEEEEET_S7_
FN:1653,_ZNSt3__113__unwrap_iterIPN5Catch8TestCaseEEET_S4_
FN:1703,_ZNSt3__16__copyIPN5Catch3PtrINS1_8TestSpec7PatternEEES6_EET0_T_S8_S7_
FN:1703,_ZNSt3__16__copyIPN5Catch8TestCaseES3_EET0_T_S5_S4_
FN:1703,_ZNSt3__16__copyINS_11__wrap_iterIPKNS_12basic_stringIcNS_11char_traitsIcEENS_9allocatorIcEEEEEEPS7_EET0_T_SD_SC_
FN:1703,_ZNSt3__16__copyIPN5Catch8TestSpec6FilterES4_EET0_T_S6_S5_
FN:1703,_ZNSt3__16__copyIPN5Catch5Clara6Parser5TokenES5_EET0_T_S7_S6_
FN:1729,_ZNSt3__14copyIPN5Catch5Clara6Parser5TokenES5_EET0_T_S7_S6_
FN:1729,_ZNSt3__14copyIPN5Catch3PtrINS1_8TestSpec7PatternEEES6_EET0_T_S8_S7_
FN:1729,_ZNSt3__14copyINS_11__wrap_iterIPKNS_12basic_stringIcNS_11char_traitsIcEENS_9allocatorIcEEEEEEPS7_EET0_T_SD_SC_
FN:1729,_ZNSt3__14copyIPN5Catch8TestCaseES3_EET0_T_S5_S4_
FN:1729,_ZNSt3__14copyIPN5Catch8TestSpec6FilterES4_EET0_T_S6_S5_
FN:1842,_ZNSt3__16__moveIPN5Catch11MessageInfoES3_EET0_T_S5_S4_
FN:1868,_ZNSt3__14moveIPN5Catch11MessageInfoES3_EET0_T_S5_S4_
FN:1878,_ZNSt3__115__move_backwardIPNS_12basic_stringIcNS_11char_traitsIcEENS_9allocatorIcEEEES7_EET0_T_S9_S8_
FN:1907,_ZNSt3__113move_backwardIPNS_12basic_stringIcNS_11char_traitsIcEENS_9allocatorIcEEEES7_EET0_T_S9_S8_
FN:1922,_ZNSt3__19transformINS_11__wrap_iterIPcEES3_PFccEEET0_T_S7_S6_T1_
FN:2088,_ZNSt3__16removeINS_11__wrap_iterIPN5Catch11MessageInfoEEES3_EET_S6_S6_RKT0_
FN:2538,_ZNSt3__13minImNS_6__lessImmEEEERKT_S5_S5_T0_
FN:2546,_ZNSt3__13minImEERKT_S3_S3_
FN:2603,_ZNSt3__13maxIlNS_6__lessIllEEEERKT_S5_S5_T0_
FN:2603,_ZNSt3__13maxImNS_6__lessImmEEEERKT_S5_S5_T0_
FN:2603,_ZNSt3__13maxIPcNS_6__lessIS1_S1_EEEERKT_S6_S6_T0_
FN:2611,_ZNSt3__13maxIlEERKT_S3_S3_
FN:2611,_ZNSt3__13maxIPcEERKT_S4_S4_
FN:2611,_ZNSt3__13maxImEERKT_S3_S3_
FN:3080,_ZNSt3__114random_shuffleINS_11__wrap_iterIPN5Catch8TestCaseEEENS2_21RandomNumberGeneratorEEEvT_S7_RT0_
FN:3652,_ZNSt3__17__sort3IRNS_6__lessIN5Catch8TestCaseES3_EEPS3_EEjT0_S7_S7_T_
FN:3689,_ZNSt3__17__sort4IRNS_6__lessIN5Catch8TestCaseES3_EEPS3_EEjT0_S7_S7_S7_T_
FN:3715,_ZNSt3__17__sort5IRNS_6__lessIN5Catch8TestCaseES3_EEPS3_EEjT0_S7_S7_S7_S7_T_
FN:3779,_ZNSt3__118__insertion_sort_3IRNS_6__lessIN5Catch8TestCaseES3_EEPS3_EEvT0_S7_T_
FN:3804,_ZNSt3__127__insertion_sort_incompleteIRNS_6__lessIN5Catch8TestCaseES3_EEPS3_EEbT0_S7_T_
FN:3888,_ZNSt3__16__sortIRNS_6__lessIN5Catch8TestCaseES3_EEPS3_EEvT0_S7_T_
FN:4083,_ZNSt3__14sortIPN5Catch8TestCaseENS_6__lessIS2_S2_EEEEvT_S6_T0_
FN:4098,_ZNSt3__14sortIPN5Catch8TestCaseEEEvT_S4_
FN:4114,_ZNSt3__14sortIN5Catch8TestCaseEEEvNS_11__wrap_iterIPT_EES6_
FNDA:1,_ZNKSt3__110__equal_toIccEclERKcS3_
FNDA:0,_ZNKSt3__16__lessIPcS1_EclERKS1_S4_
FNDA:210,_ZNKSt3__16__lessImmEclERKmS3_
FNDA:0,_ZNKSt3__16__lessIllEclERKlS3_
FNDA:0,_ZNKSt3__16__lessIN5Catch8TestCaseES2_EclERKS2_S5_
FNDA:0,_ZNSt3__14findINS_11__wrap_iterIPN5Catch11MessageInfoEEES3_EET_S6_S6_RKT0_
FNDA:0,_ZNSt3__14findINS_11__wrap_iterIPKNS_12basic_stringIcNS_11char_traitsIcEENS_9allocatorIcEEEEEES7_EET_SB_SB_RKT0_
FNDA:0,_ZNSt3__14findINS_11__wrap_iterIPKcEEcEET_S5_S5_RKT0_
FNDA:188,_ZNSt3__17find_ifINS_11__wrap_iterIPN5Catch3PtrINS2_16TestCaseTracking8ITrackerEEEEENS4_11TrackerBase14TrackerHasNameEEET_SB_SB_T0_
FNDA:0,_ZNSt3__17find_ifINS_11__wrap_iterIPN5Catch3PtrINS2_22CumulativeReporterBase11SectionNodeEEEEENS4_13BySectionInfoEEET_SA_SA_T0_
FNDA:0,_ZNSt3__110__find_endIPFbccEPKcS4_EET0_S5_S5_T1_S6_T_NS_26random_access_iterator_tagES8_
FNDA:1,_ZNSt3__15equalINS_11__wrap_iterIPKcEES4_NS_10__equal_toIccEEEEbT_S7_T0_T1_
FNDA:0,_ZNSt3__15equalINS_16reverse_iteratorINS_11__wrap_iterIPKcEEEES6_NS_10__equal_toIccEEEEbT_S9_T0_T1_
FNDA:1,_ZNSt3__15equalINS_11__wrap_iterIPKcEES4_EEbT_S5_T0_
FNDA:0,_ZNSt3__15equalINS_16reverse_iteratorINS_11__wrap_iterIPKcEEEES6_EEbT_S7_T0_
FNDA:0,_ZNSt3__113__unwrap_iterIPNS_12basic_stringIcNS_11char_traitsIcEENS_9allocatorIcEEEEEET_S8_
FNDA:0,_ZNSt3__113__unwrap_iterINS_11__wrap_iterIPKNS_12basic_stringIcNS_11char_traitsIcEENS_9allocatorIcEEEEEEEET_SB_
FNDA:0,_ZNSt3__113__unwrap_iterIPN5Catch11MessageInfoEEET_S4_
FNDA:3,_ZNSt3__113__unwrap_iterIPN5Catch3PtrINS1_8TestSpec7PatternEEEEET_S7_
FNDA:0,_ZNSt3__113__unwrap_iterIPN5Catch8TestSpec6FilterEEET_S5_
FNDA:9,_ZNSt3__113__unwrap_iterIPN5Catch5Clara6Parser5TokenEEET_S6_
FNDA:0,_ZNSt3__113__unwrap_iterIPN5Catch8TestCaseEEET_S4_
FNDA:0,_ZNSt3__16__copyINS_11__wrap_iterIPKNS_12basic_stringIcNS_11char_traitsIcEENS_9allocatorIcEEEEEEPS7_EET0_T_SD_SC_
FNDA:1,_ZNSt3__16__copyIPN5Catch3PtrINS1_8TestSpec7PatternEEES6_EET0_T_S8_S7_
FNDA:0,_ZNSt3__16__copyIPN5Catch8TestSpec6FilterES4_EET0_T_S6_S5_
FNDA:3,_ZNSt3__16__copyIPN5Catch5Clara6Parser5TokenES5_EET0_T_S7_S6_
FNDA:0,_ZNSt3__16__copyIPN5Catch8TestCaseES3_EET0_T_S5_S4_
FNDA:0,_ZNSt3__14copyINS_11__wrap_iterIPKNS_12basic_stringIcNS_11char_traitsIcEENS_9allocatorIcEEEEEEPS7_EET0_T_SD_SC_
FNDA:1,_ZNSt3__14copyIPN5Catch3PtrINS1_8TestSpec7PatternEEES6_EET0_T_S8_S7_
FNDA:0,_ZNSt3__14copyIPN5Catch8TestSpec6FilterES4_EET0_T_S6_S5_
FNDA:3,_ZNSt3__14copyIPN5Catch5Clara6Parser5TokenES5_EET0_T_S7_S6_
FNDA:0,_ZNSt3__14copyIPN5Catch8TestCaseES3_EET0_T_S5_S4_
FNDA:0,_ZNSt3__16__moveIPN5Catch11MessageInfoES3_EET0_T_S5_S4_
FNDA:0,_ZNSt3__14moveIPN5Catch11MessageInfoES3_EET0_T_S5_S4_
FNDA:0,_ZNSt3__115__move_backwardIPNS_12basic_stringIcNS_11char_traitsIcEENS_9allocatorIcEEEES7_EET0_T_S9_S8_
FNDA:0,_ZNSt3__113move_backwardIPNS_12basic_stringIcNS_11char_traitsIcEENS_9allocatorIcEEEES7_EET0_T_S9_S8_
FNDA:1,_ZNSt3__19transformINS_11__wrap_iterIPcEES3_PFccEEET0_T_S7_S6_T1_
FNDA:0,_ZNSt3__16removeINS_11__wrap_iterIPN5Catch11MessageInfoEEES3_EET_S6_S6_RKT0_
FNDA:129,_ZNSt3__13minImNS_6__lessImmEEEERKT_S5_S5_T0_
FNDA:129,_ZNSt3__13minImEERKT_S3_S3_
FNDA:0,_ZNSt3__13maxIPcNS_6__lessIS1_S1_EEEERKT_S6_S6_T0_
FNDA:81,_ZNSt3__13maxImNS_6__lessImmEEEERKT_S5_S5_T0_
FNDA:0,_ZNSt3__13maxIlNS_6__lessIllEEEERKT_S5_S5_T0_
FNDA:0,_ZNSt3__13maxIPcEERKT_S4_S4_
FNDA:81,_ZNSt3__13maxImEERKT_S3_S3_
FNDA:0,_ZNSt3__13maxIlEERKT_S3_S3_
FNDA:0,_ZNSt3__114random_shuffleINS_11__wrap_iterIPN5Catch8TestCaseEEENS2_21RandomNumberGeneratorEEEvT_S7_RT0_
FNDA:0,_ZNSt3__17__sort3IRNS_6__lessIN5Catch8TestCaseES3_EEPS3_EEjT0_S7_S7_T_
FNDA:0,_ZNSt3__17__sort4IRNS_6__lessIN5Catch8TestCaseES3_EEPS3_EEjT0_S7_S7_S7_T_
FNDA:0,_ZNSt3__17__sort5IRNS_6__lessIN5Catch8TestCaseES3_EEPS3_EEjT0_S7_S7_S7_S7_T_
FNDA:0,_ZNSt3__118__insertion_sort_3IRNS_6__lessIN5Catch8TestCaseES3_EEPS3_EEvT0_S7_T_
FNDA:0,_ZNSt3__127__insertion_sort_incompleteIRNS_6__lessIN5Catch8TestCaseES3_EEPS3_EEbT0_S7_T_
FNDA:0,_ZNSt3__16__sortIRNS_6__lessIN5Catch8TestCaseES3_EEPS3_EEvT0_S7_T_
FNDA:0,_ZNSt3__14sortIPN5Catch8TestCaseENS_6__lessIS2_S2_EEEEvT_S6_T0_
FNDA:0,_ZNSt3__14sortIPN5Catch8TestCaseEEEvT_S4_
FNDA:0,_ZNSt3__14sortIN5Catch8TestCaseEEEvNS_11__wrap_iterIPT_EES6_
FNF:56
FNH:16
DA:677,1
DA:714,210
DA:890,0
DA:891,0
DA:892,0
DA:893,0
DA:903,812
DA:904,599
DA:905,163
DA:906,188
DA:1012,0
DA:1013,0
DA:1014,0
DA:1015,0
DA:1016,0
DA:1017,0
DA:1018,0
DA:1019,0
DA:1020,0
DA:1021,0
DA:1022,0
DA:1024,0
DA:1026,0
DA:1027,0
DA:1028,0
DA:1029,0
DA:1031,0
DA:1032,0
DA:1033,0
DA:1035,0
DA:1036,0
DA:1038,0
DA:1040,0
DA:1044,0
DA:1218,2
DA:1219,1
DA:1220,1
DA:1221,0
DA:1222,1
DA:1231,1
DA:1655,12
DA:1705,8
DA:1706,0
DA:1707,4
DA:1731,4
DA:1844,0
DA:1845,0
DA:1846,0
DA:1870,0
DA:1880,0
DA:1881,0
DA:1882,0
DA:1910,0
DA:1924,4
DA:1925,1
DA:1926,1
DA:2090,0
DA:2091,0
DA:2093,0
DA:2094,0
DA:2096,0
DA:2098,0
DA:2099,0
DA:2100,0
DA:2102,0
DA:2103,0
DA:2540,387
DA:2548,129
DA:2605,243
DA:2613,81
DA:3088,0
DA:3089,0
DA:3091,0
DA:3093,0
DA:3094,0
DA:3095,0
DA:3096,0
DA:3097,0
DA:3654,0
DA:3655,0
DA:3657,0
DA:3658,0
DA:3660,0
DA:3661,0
DA:3662,0
DA:3664,0
DA:3665,0
DA:3666,0
DA:3667,0
DA:3669,0
DA:3671,0
DA:3672,0
DA:3673,0
DA:3675,0
DA:3676,0
DA:3677,0
DA:3679,0
DA:3680,0
DA:3681,0
DA:3682,0
DA:3683,0
DA:3692,0
DA:3693,0
DA:3695,0
DA:3696,0
DA:3697,0
DA:3699,0
DA:3700,0
DA:3701,0
DA:3703,0
DA:3704,0
DA:3705,0
DA:3706,0
DA:3707,0
DA:3708,0
DA:3718,0
DA:3719,0
DA:3721,0
DA:3722,0
DA:3723,0
DA:3725,0
DA:3726,0
DA:3727,0
DA:3729,0
DA:3730,0
DA:3731,0
DA:3733,0
DA:3734,0
DA:3735,0
DA:3736,0
DA:3737,0
DA:3738,0
DA:3739,0
DA:3782,0
DA:3783,0
DA:3784,0
DA:3786,0
DA:3788,0
DA:3789,0
DA:3790,0
DA:3791,0
DA:3793,0
DA:3794,0
DA:3795,0
DA:3796,0
DA:3797,0
DA:3798,0
DA:3799,0
DA:3800,0
DA:3806,0
DA:3810,0
DA:3812,0
DA:3813,0
DA:3814,0
DA:3816,0
DA:3817,0
DA:3819,0
DA:3820,0
DA:3822,0
DA:3823,0
DA:3826,0
DA:3827,0
DA:3828,0
DA:3829,0
DA:3830,0
DA:3832,0
DA:3834,0
DA:3835,0
DA:3836,0
DA:3837,0
DA:3839,0
DA:3840,0
DA:3841,0
DA:3842,0
DA:3843,0
DA:3844,0
DA:3845,0
DA:3846,0
DA:3847,0
DA:3848,0
DA:3849,0
DA:3893,0
DA:3895,0
DA:3896,0
DA:3898,0
DA:3899,0
DA:3903,0
DA:3905,0
DA:3906,0
DA:3907,0
DA:3909,0
DA:3910,0
DA:3912,0
DA:3913,0
DA:3915,0
DA:3916,0
DA:3918,0
DA:3920,0
DA:3921,0
DA:3924,0
DA:3925,0
DA:3926,0
DA:3930,0
DA:3932,0
DA:3933,0
DA:3934,0
DA:3935,0
DA:3936,0
DA:3939,0
DA:3940,0
DA:3941,0
DA:3947,0
DA:3948,0
DA:3952,0
DA:3956,0
DA:3958,0
DA:3962,0
DA:3963,0
DA:3964,0
DA:3966,0
DA:3968,0
DA:3969,0
DA:3970,0
DA:3972,0
DA:3973,0
DA:3974,0
DA:3975,0
DA:3977,0
DA:3979,0
DA:3981,0
DA:3982,0
DA:3983,0
DA:3985,0
DA:3986,0
DA:3987,0
DA:3989,0
DA:3990,0
DA:3991,0
DA:3992,0
DA:3993,0
DA:3998,0
DA:3999,0
DA:4001,0
DA:4003,0
DA:4004,0
DA:4005,0
DA:4008,0
DA:4010,0
DA:4013,0
DA:4017,0
DA:4020,0
DA:4021,0
DA:4023,0
DA:4025,0
DA:4026,0
DA:4027,0
DA:4028,0
DA:4031,0
DA:4032,0
DA:4033,0
DA:4035,0
DA:4037,0
DA:4039,0
DA:4040,0
DA:4041,0
DA:4044,0
DA:4046,0
DA:4047,0
DA:4049,0
DA:4050,0
DA:4051,0
DA:4052,0
DA:4056,0
DA:4058,0
DA:4059,0
DA:4062,0
DA:4064,0
DA:4066,0
DA:4068,0
DA:4069,0
DA:4072,0
DA:4074,0
DA:4077,0
DA:4091,0
DA:4093,0
DA:4100,0
DA:4101,0
DA:4116,0
DA:4117,0
LF:289
LH:22
end_of_record
SF:/Library/Developer/CommandLineTools/usr/include/c++/v1/exception
FN:100,_ZNSt9exceptionC2Ev
FNDA:0,_ZNSt9exceptionC2Ev
FNF:1
FNH:0
DA:100,0
LF:1
LH:0
end_of_record
SF:/Library/Developer/CommandLineTools/usr/include/c++/v1/fstream
FN:254,_ZNSt3__113basic_filebufIcNS_11char_traitsIcEEEC1Ev
FN:254,_ZNSt3__113basic_filebufIcNS_11char_traitsIcEEEC2Ev
FN:358,_ZNSt3__113basic_filebufIcNS_11char_traitsIcEEED2Ev
FN:358,_ZNSt3__113basic_filebufIcNS_11char_traitsIcEEED0Ev
FN:358,_ZNSt3__113basic_filebufIcNS_11char_traitsIcEEED1Ev
FN:466,_ZNKSt3__113basic_filebufIcNS_11char_traitsIcEEE7is_openEv
FN:474,_ZNSt3__113basic_filebufIcNS_11char_traitsIcEEE4openEPKcj
FN:563,_ZNSt3__113basic_filebufIcNS_11char_traitsIcEEE5closeEv
FN:582,_ZNSt3__113basic_filebufIcNS_11char_traitsIcEEE9underflowEv
FN:651,_ZNSt3__113basic_filebufIcNS_11char_traitsIcEEE9pbackfailEi
FN:673,_ZNSt3__113basic_filebufIcNS_11char_traitsIcEEE8overflowEi
FN:738,_ZNSt3__113basic_filebufIcNS_11char_traitsIcEEE6setbufEPcl
FN:791,_ZNSt3__113basic_filebufIcNS_11char_traitsIcEEE7seekoffExNS_8ios_base7seekdirEj
FN:831,_ZNSt3__113basic_filebufIcNS_11char_traitsIcEEE7seekposENS_4fposI11__mbstate_tEEj
FN:848,_ZNSt3__113basic_filebufIcNS_11char_traitsIcEEE4syncEv
FN:917,_ZNSt3__113basic_filebufIcNS_11char_traitsIcEEE5imbueERKNS_6localeE
FN:961,_ZNSt3__113basic_filebufIcNS_11char_traitsIcEEE11__read_modeEv
FN:980,_ZNSt3__113basic_filebufIcNS_11char_traitsIcEEE12__write_modeEv
FN:1057,_ZNSt3__114basic_ifstreamIcNS_11char_traitsIcEEEC1EPKcj
FN:1125,_ZNKSt3__114basic_ifstreamIcNS_11char_traitsIcEEE7is_openEv
FN:1155,_ZNSt3__114basic_ifstreamIcNS_11char_traitsIcEEE5closeEv
FN:1209,_ZNSt3__114basic_ofstreamIcNS_11char_traitsIcEEEC1Ev
FN:1293,_ZNSt3__114basic_ofstreamIcNS_11char_traitsIcEEE4openEPKcj
FNDA:16,_ZNSt3__113basic_filebufIcNS_11char_traitsIcEEEC1Ev
FNDA:16,_ZNSt3__113basic_filebufIcNS_11char_traitsIcEEEC2Ev
FNDA:16,_ZNSt3__113basic_filebufIcNS_11char_traitsIcEEED1Ev
FNDA:16,_ZNSt3__113basic_filebufIcNS_11char_traitsIcEEED2Ev
FNDA:0,_ZNSt3__113basic_filebufIcNS_11char_traitsIcEEED0Ev
FNDA:0,_ZNKSt3__113basic_filebufIcNS_11char_traitsIcEEE7is_openEv
FNDA:16,_ZNSt3__113basic_filebufIcNS_11char_traitsIcEEE4openEPKcj
FNDA:29,_ZNSt3__113basic_filebufIcNS_11char_traitsIcEEE5closeEv
FNDA:16,_ZNSt3__113basic_filebufIcNS_11char_traitsIcEEE9underflowEv
FNDA:0,_ZNSt3__113basic_filebufIcNS_11char_traitsIcEEE9pbackfailEi
FNDA:0,_ZNSt3__113basic_filebufIcNS_11char_traitsIcEEE8overflowEi
FNDA:16,_ZNSt3__113basic_filebufIcNS_11char_traitsIcEEE6setbufEPcl
FNDA:0,_ZNSt3__113basic_filebufIcNS_11char_traitsIcEEE7seekoffExNS_8ios_base7seekdirEj
FNDA:0,_ZNSt3__113basic_filebufIcNS_11char_traitsIcEEE7seekposENS_4fposI11__mbstate_tEEj
FNDA:16,_ZNSt3__113basic_filebufIcNS_11char_traitsIcEEE4syncEv
FNDA:0,_ZNSt3__113basic_filebufIcNS_11char_traitsIcEEE5imbueERKNS_6localeE
FNDA:16,_ZNSt3__113basic_filebufIcNS_11char_traitsIcEEE11__read_modeEv
FNDA:0,_ZNSt3__113basic_filebufIcNS_11char_traitsIcEEE12__write_modeEv
FNDA:16,_ZNSt3__114basic_ifstreamIcNS_11char_traitsIcEEEC1EPKcj
FNDA:0,_ZNKSt3__114basic_ifstreamIcNS_11char_traitsIcEEE7is_openEv
FNDA:13,_ZNSt3__114basic_ifstreamIcNS_11char_traitsIcEEE5closeEv
FNDA:0,_ZNSt3__114basic_ofstreamIcNS_11char_traitsIcEEEC1Ev
FNDA:0,_ZNSt3__114basic_ofstreamIcNS_11char_traitsIcEEE4openEPKcj
FNF:23
FNH:12
DA:195,16
DA:255,16
DA:256,16
DA:257,16
DA:258,16
DA:259,16
DA:260,16
DA:261,16
DA:262,48
DA:263,16
DA:264,16
DA:265,16
DA:266,16
DA:267,16
DA:268,16
DA:269,16
DA:270,48
DA:271,48
DA:273,48
DA:274,16
DA:275,16
DA:276,16
DA:277,32
DA:359,32
DA:364,16
DA:366,16
DA:369,0
DA:371,16
DA:372,48
DA:373,16
DA:374,0
DA:375,32
DA:468,0
DA:476,16
DA:477,16
DA:479,16
DA:481,16
DA:485,0
DA:486,0
DA:489,0
DA:490,0
DA:492,16
DA:493,16
DA:495,0
DA:496,0
DA:498,0
DA:499,0
DA:502,0
DA:503,0
DA:506,0
DA:507,0
DA:510,0
DA:511,0
DA:513,0
DA:514,0
DA:516,0
DA:517,0
DA:519,0
DA:520,0
DA:523,0
DA:524,0
DA:526,0
DA:527,0
DA:529,16
DA:531,16
DA:532,16
DA:534,16
DA:535,16
DA:537,0
DA:539,0
DA:540,0
DA:541,0
DA:542,0
DA:543,0
DA:544,16
DA:546,0
DA:547,16
DA:548,16
DA:549,16
DA:565,29
DA:566,29
DA:568,16
DA:569,16
DA:570,32
DA:571,0
DA:572,32
DA:573,16
DA:575,0
DA:576,16
DA:577,29
DA:578,0
DA:584,16
DA:585,0
DA:586,16
DA:588,16
DA:589,0
DA:590,48
DA:591,16
DA:592,16
DA:594,16
DA:595,16
DA:597,16
DA:598,16
DA:599,16
DA:601,32
DA:602,16
DA:603,16
DA:604,16
DA:605,16
DA:606,16
DA:610,0
DA:611,0
DA:612,0
DA:613,0
DA:614,0
DA:615,0
DA:617,0
DA:618,0
DA:619,0
DA:621,0
DA:622,0
DA:624,0
DA:626,0
DA:627,0
DA:628,0
DA:629,0
DA:631,0
DA:632,0
DA:633,0
DA:634,0
DA:636,0
DA:637,0
DA:638,0
DA:639,0
DA:641,16
DA:643,0
DA:644,16
DA:645,0
DA:646,16
DA:647,16
DA:653,0
DA:655,0
DA:657,0
DA:658,0
DA:660,0
DA:661,0
DA:663,0
DA:664,0
DA:665,0
DA:667,0
DA:668,0
DA:669,0
DA:675,0
DA:676,0
DA:677,0
DA:679,0
DA:680,0
DA:681,0
DA:683,0
DA:684,0
DA:685,0
DA:686,0
DA:687,0
DA:688,0
DA:690,0
DA:692,0
DA:693,0
DA:694,0
DA:695,0
DA:698,0
DA:700,0
DA:702,0
DA:703,0
DA:706,0
DA:707,0
DA:708,0
DA:709,0
DA:710,0
DA:712,0
DA:713,0
DA:714,0
DA:715,0
DA:716,0
DA:718,0
DA:719,0
DA:720,0
DA:721,0
DA:723,0
DA:724,0
DA:725,0
DA:726,0
DA:728,0
DA:729,0
DA:731,0
DA:732,0
DA:733,0
DA:734,0
DA:740,16
DA:741,16
DA:742,16
DA:743,0
DA:744,16
DA:745,0
DA:746,16
DA:747,16
DA:749,32
DA:751,0
DA:752,0
DA:753,0
DA:756,16
DA:757,16
DA:759,16
DA:762,0
DA:763,0
DA:764,0
DA:766,16
DA:768,0
DA:769,0
DA:771,0
DA:772,0
DA:773,0
DA:776,0
DA:777,0
DA:779,0
DA:782,16
DA:783,16
DA:784,16
DA:786,16
DA:794,0
DA:795,0
DA:797,0
DA:798,0
DA:799,0
DA:802,0
DA:805,0
DA:806,0
DA:808,0
DA:809,0
DA:811,0
DA:812,0
DA:814,0
DA:821,0
DA:822,0
DA:823,0
DA:825,0
DA:826,0
DA:827,0
DA:833,0
DA:834,0
DA:839,0
DA:840,0
DA:842,0
DA:843,0
DA:844,0
DA:850,16
DA:851,0
DA:852,16
DA:853,0
DA:855,16
DA:857,0
DA:858,0
DA:859,0
DA:861,0
DA:864,0
DA:865,0
DA:866,0
DA:867,0
DA:868,0
DA:869,0
DA:870,0
DA:871,0
DA:872,0
DA:873,0
DA:874,16
DA:877,16
DA:878,16
DA:879,16
DA:880,16
DA:883,0
DA:884,0
DA:885,0
DA:886,0
DA:889,0
DA:891,0
DA:892,0
DA:893,0
DA:894,0
DA:895,0
DA:896,0
DA:903,16
DA:904,0
DA:906,16
DA:907,0
DA:908,16
DA:909,16
DA:910,16
DA:911,16
DA:912,16
DA:913,16
DA:919,0
DA:920,0
DA:921,0
DA:922,0
DA:923,0
DA:925,0
DA:926,0
DA:928,0
DA:930,0
DA:931,0
DA:932,0
DA:933,0
DA:934,0
DA:935,0
DA:936,0
DA:937,0
DA:938,0
DA:941,0
DA:943,0
DA:944,0
DA:945,0
DA:946,0
DA:947,0
DA:948,0
DA:951,0
DA:952,0
DA:953,0
DA:956,0
DA:957,0
DA:963,16
DA:965,16
DA:966,16
DA:967,32
DA:968,16
DA:969,16
DA:971,0
DA:972,16
DA:973,16
DA:975,0
DA:976,16
DA:982,0
DA:984,0
DA:985,0
DA:987,0
DA:988,0
DA:989,0
DA:991,0
DA:992,0
DA:994,0
DA:995,0
DA:996,0
DA:997,0
DA:1016,32
DA:1058,16
DA:1059,48
DA:1060,32
DA:1061,0
DA:1062,16
DA:1127,0
DA:1157,13
DA:1158,0
DA:1159,13
DA:1175,0
DA:1210,0
DA:1211,0
DA:1212,0
DA:1295,0
DA:1296,0
DA:1298,0
DA:1299,0
LF:369
LH:122
end_of_record
SF:/Library/Developer/CommandLineTools/usr/include/c++/v1/iomanip
FN:181,_ZNSt3__18__iom_t4IcEC1Ec
FN:181,_ZNSt3__18__iom_t4IcEC2Ec
FN:187,_ZNSt3__1lsINS_11char_traitsIcEEEERNS_13basic_ostreamIcT_EES6_RKNS_8__iom_t4IcEE
FN:197,_ZNSt3__17setfillIcEENS_8__iom_t4IT_EES2_
FN:209,_ZNSt3__18__iom_t5C2Ei
FN:209,_ZNSt3__18__iom_t5C1Ei
FN:225,_ZNSt3__1lsIcNS_11char_traitsIcEEEERNS_13basic_ostreamIT_T0_EES7_RKNS_8__iom_t5E
FN:234,_ZNSt3__112setprecisionEi
FN:246,_ZNSt3__18__iom_t6C1Ei
FN:246,_ZNSt3__18__iom_t6C2Ei
FN:262,_ZNSt3__1lsIcNS_11char_traitsIcEEEERNS_13basic_ostreamIT_T0_EES7_RKNS_8__iom_t6E
FN:271,_ZNSt3__14setwEi
FNDA:0,_ZNSt3__18__iom_t4IcEC1Ec
FNDA:0,_ZNSt3__18__iom_t4IcEC2Ec
FNDA:0,_ZNSt3__1lsINS_11char_traitsIcEEEERNS_13basic_ostreamIcT_EES6_RKNS_8__iom_t4IcEE
FNDA:0,_ZNSt3__17setfillIcEENS_8__iom_t4IT_EES2_
FNDA:0,_ZNSt3__18__iom_t5C1Ei
FNDA:0,_ZNSt3__18__iom_t5C2Ei
FNDA:0,_ZNSt3__1lsIcNS_11char_traitsIcEEEERNS_13basic_ostreamIT_T0_EES7_RKNS_8__iom_t5E
FNDA:0,_ZNSt3__112setprecisionEi
FNDA:0,_ZNSt3__18__iom_t6C1Ei
FNDA:0,_ZNSt3__18__iom_t6C2Ei
FNDA:0,_ZNSt3__1lsIcNS_11char_traitsIcEEEERNS_13basic_ostreamIT_T0_EES7_RKNS_8__iom_t6E
FNDA:0,_ZNSt3__14setwEi
FNF:12
FNH:0
DA:181,0
DA:189,0
DA:190,0
DA:199,0
DA:209,0
DA:227,0
DA:228,0
DA:236,0
DA:246,0
DA:264,0
DA:265,0
DA:273,0
LF:12
LH:0
end_of_record
SF:/Library/Developer/CommandLineTools/usr/include/c++/v1/ios
FN:336,_ZNSt3__18ios_baseC2Ev
FN:340,_ZNKSt3__18ios_base5rdbufEv
FN:343,_ZNSt3__18ios_base5rdbufEPv
FN:438,_ZNKSt3__18ios_base5flagsEv
FN:454,_ZNSt3__18ios_base4setfEj
FN:463,_ZNSt3__18ios_base6unsetfEj
FN:470,_ZNSt3__18ios_base4setfEjj
FN:489,_ZNSt3__18ios_base9precisionEl
FN:500,_ZNKSt3__18ios_base5widthEv
FN:507,_ZNSt3__18ios_base5widthEl
FN:525,_ZNSt3__18ios_base8setstateEj
FN:546,_ZNKSt3__18ios_base4failEv
FN:576,_ZNSt3__112__cxx03_bool12__true_valueEv
FN:595,_ZNKSt3__19basic_iosIcNS_11char_traitsIcEEEcvMNS_12__cxx03_boolEFvvEEv
FN:605,_ZNSt3__19basic_iosIcNS_11char_traitsIcEEE5clearEj
FN:606,_ZNSt3__19basic_iosIcNS_11char_traitsIcEEE8setstateEj
FN:609,_ZNKSt3__19basic_iosIcNS_11char_traitsIcEEE4failEv
FN:648,_ZNSt3__19basic_iosIcNS_11char_traitsIcEEEC2Ev
FN:683,_ZNSt3__19basic_iosIcNS_11char_traitsIcEEE4initEPNS_15basic_streambufIcS2_EE
FN:711,_ZNKSt3__19basic_iosIcNS_11char_traitsIcEEE5rdbufEv
FN:719,_ZNSt3__19basic_iosIcNS_11char_traitsIcEEE5rdbufEPNS_15basic_streambufIcS2_EE
FN:749,_ZNKSt3__19basic_iosIcNS_11char_traitsIcEEE5widenEc
FN:757,_ZNKSt3__19basic_iosIcNS_11char_traitsIcEEE4fillEv
FN:767,_ZNSt3__19basic_iosIcNS_11char_traitsIcEEE4fillEc
FN:901,_ZNSt3__19uppercaseERNS_8ios_baseE
FN:941,_ZNSt3__14leftERNS_8ios_baseE
FN:965,_ZNSt3__13hexERNS_8ios_baseE
FN:981,_ZNSt3__15fixedERNS_8ios_baseE
FNDA:18,_ZNSt3__18ios_baseC2Ev
FNDA:623,_ZNKSt3__18ios_base5rdbufEv
FNDA:0,_ZNSt3__18ios_base5rdbufEPv
FNDA:30,_ZNKSt3__18ios_base5flagsEv
FNDA:0,_ZNSt3__18ios_base4setfEj
FNDA:0,_ZNSt3__18ios_base6unsetfEj
FNDA:0,_ZNSt3__18ios_base4setfEjj
FNDA:0,_ZNSt3__18ios_base9precisionEl
FNDA:30,_ZNKSt3__18ios_base5widthEv
FNDA:30,_ZNSt3__18ios_base5widthEl
FNDA:110,_ZNSt3__18ios_base8setstateEj
FNDA:0,_ZNKSt3__18ios_base4failEv
FNDA:0,_ZNSt3__112__cxx03_bool12__true_valueEv
FNDA:0,_ZNKSt3__19basic_iosIcNS_11char_traitsIcEEEcvMNS_12__cxx03_boolEFvvEEv
FNDA:0,_ZNSt3__19basic_iosIcNS_11char_traitsIcEEE5clearEj
FNDA:110,_ZNSt3__19basic_iosIcNS_11char_traitsIcEEE8setstateEj
FNDA:0,_ZNKSt3__19basic_iosIcNS_11char_traitsIcEEE4failEv
FNDA:18,_ZNSt3__19basic_iosIcNS_11char_traitsIcEEEC2Ev
FNDA:18,_ZNSt3__19basic_iosIcNS_11char_traitsIcEEE4initEPNS_15basic_streambufIcS2_EE
FNDA:623,_ZNKSt3__19basic_iosIcNS_11char_traitsIcEEE5rdbufEv
FNDA:0,_ZNSt3__19basic_iosIcNS_11char_traitsIcEEE5rdbufEPNS_15basic_streambufIcS2_EE
FNDA:3,_ZNKSt3__19basic_iosIcNS_11char_traitsIcEEE5widenEc
FNDA:30,_ZNKSt3__19basic_iosIcNS_11char_traitsIcEEE4fillEv
FNDA:0,_ZNSt3__19basic_iosIcNS_11char_traitsIcEEE4fillEc
FNDA:0,_ZNSt3__19uppercaseERNS_8ios_baseE
FNDA:0,_ZNSt3__14leftERNS_8ios_baseE
FNDA:0,_ZNSt3__13hexERNS_8ios_baseE
FNDA:0,_ZNSt3__15fixedERNS_8ios_baseE
FNF:28
FNH:12
DA:336,18
DA:337,18
DA:340,623
DA:345,0
DA:346,0
DA:347,0
DA:440,30
DA:456,0
DA:457,0
DA:458,0
DA:465,0
DA:466,0
DA:472,0
DA:473,0
DA:474,0
DA:475,0
DA:491,0
DA:492,0
DA:493,0
DA:502,30
DA:509,30
DA:510,30
DA:511,30
DA:527,110
DA:528,110
DA:548,0
DA:576,0
DA:596,0
DA:605,0
DA:606,110
DA:609,0
DA:648,18
DA:649,18
DA:685,18
DA:686,18
DA:687,18
DA:688,18
DA:713,623
DA:721,0
DA:722,0
DA:723,0
DA:751,9
DA:752,0
DA:759,30
DA:760,2
DA:761,30
DA:769,0
DA:770,0
DA:771,0
DA:903,0
DA:904,0
DA:943,0
DA:944,0
DA:967,0
DA:968,0
DA:983,0
DA:984,0
LF:57
LH:22
end_of_record
SF:/Library/Developer/CommandLineTools/usr/include/c++/v1/iosfwd
FN:117,_ZNSt3__115basic_stringbufIcNS_11char_traitsIcEENS_9allocatorIcEEED2Ev
FN:117,_ZNSt3__115basic_stringbufIcNS_11char_traitsIcEENS_9allocatorIcEEED0Ev
FN:117,_ZNSt3__115basic_stringbufIcNS_11char_traitsIcEENS_9allocatorIcEEED1Ev
FN:123,_ZNSt3__119basic_ostringstreamIcNS_11char_traitsIcEENS_9allocatorIcEEED0Ev
FN:123,_ZNSt3__119basic_ostringstreamIcNS_11char_traitsIcEENS_9allocatorIcEEED1Ev
FN:123,_ZNSt3__119basic_ostringstreamIcNS_11char_traitsIcEENS_9allocatorIcEEED2Ev
FN:126,_ZNSt3__118basic_stringstreamIcNS_11char_traitsIcEENS_9allocatorIcEEED0Ev
FN:126,_ZNSt3__118basic_stringstreamIcNS_11char_traitsIcEENS_9allocatorIcEEED2Ev
FN:126,_ZNSt3__118basic_stringstreamIcNS_11char_traitsIcEENS_9allocatorIcEEED1Ev
FN:131,_ZNSt3__114basic_ifstreamIcNS_11char_traitsIcEEED2Ev
FN:131,_ZNSt3__114basic_ifstreamIcNS_11char_traitsIcEEED1Ev
FN:131,_ZNSt3__114basic_ifstreamIcNS_11char_traitsIcEEED0Ev
FN:133,_ZNSt3__114basic_ofstreamIcNS_11char_traitsIcEEED2Ev
FN:133,_ZNSt3__114basic_ofstreamIcNS_11char_traitsIcEEED1Ev
FN:133,_ZNSt3__114basic_ofstreamIcNS_11char_traitsIcEEED0Ev
FNDA:1,_ZNSt3__115basic_stringbufIcNS_11char_traitsIcEENS_9allocatorIcEEED1Ev
FNDA:1,_ZNSt3__115basic_stringbufIcNS_11char_traitsIcEENS_9allocatorIcEEED2Ev
FNDA:0,_ZNSt3__115basic_stringbufIcNS_11char_traitsIcEENS_9allocatorIcEEED0Ev
FNDA:1,_ZNSt3__119basic_ostringstreamIcNS_11char_traitsIcEENS_9allocatorIcEEED1Ev
FNDA:1,_ZNSt3__119basic_ostringstreamIcNS_11char_traitsIcEENS_9allocatorIcEEED2Ev
FNDA:0,_ZNSt3__119basic_ostringstreamIcNS_11char_traitsIcEENS_9allocatorIcEEED0Ev
FNDA:0,_ZNSt3__118basic_stringstreamIcNS_11char_traitsIcEENS_9allocatorIcEEED1Ev
FNDA:0,_ZNSt3__118basic_stringstreamIcNS_11char_traitsIcEENS_9allocatorIcEEED0Ev
FNDA:0,_ZNSt3__118basic_stringstreamIcNS_11char_traitsIcEENS_9allocatorIcEEED2Ev
FNDA:16,_ZNSt3__114basic_ifstreamIcNS_11char_traitsIcEEED1Ev
FNDA:0,_ZNSt3__114basic_ifstreamIcNS_11char_traitsIcEEED0Ev
FNDA:16,_ZNSt3__114basic_ifstreamIcNS_11char_traitsIcEEED2Ev
FNDA:0,_ZNSt3__114basic_ofstreamIcNS_11char_traitsIcEEED1Ev
FNDA:0,_ZNSt3__114basic_ofstreamIcNS_11char_traitsIcEEED2Ev
FNDA:0,_ZNSt3__114basic_ofstreamIcNS_11char_traitsIcEEED0Ev
FNF:15
FNH:6
DA:117,3
DA:123,4
DA:126,0
DA:131,64
DA:133,0
LF:5
LH:3
end_of_record
SF:/Library/Developer/CommandLineTools/usr/include/c++/v1/istream
FN:188,_ZNSt3__113basic_istreamIcNS_11char_traitsIcEEEC2EPNS_15basic_streambufIcS2_EE
FN:305,_ZNKSt3__113basic_istreamIcNS_11char_traitsIcEEE6sentrycvbEv
FN:1455,_ZNSt3__114basic_iostreamIcNS_11char_traitsIcEEEC2EPNS_15basic_streambufIcS2_EE
FN:1555,_ZNSt3__17getlineIcNS_11char_traitsIcEENS_9allocatorIcEEEERNS_13basic_istreamIT_T0_EES9_RNS_12basic_stringIS6_S7_T1_EES6_
FN:1604,_ZNSt3__17getlineIcNS_11char_traitsIcEENS_9allocatorIcEEEERNS_13basic_istreamIT_T0_EES9_RNS_12basic_stringIS6_S7_T1_EE
FNDA:16,_ZNSt3__113basic_istreamIcNS_11char_traitsIcEEEC2EPNS_15basic_streambufIcS2_EE
FNDA:110,_ZNKSt3__113basic_istreamIcNS_11char_traitsIcEEE6sentrycvbEv
FNDA:0,_ZNSt3__114basic_iostreamIcNS_11char_traitsIcEEEC2EPNS_15basic_streambufIcS2_EE
FNDA:110,_ZNSt3__17getlineIcNS_11char_traitsIcEENS_9allocatorIcEEEERNS_13basic_istreamIT_T0_EES9_RNS_12basic_stringIS6_S7_T1_EES6_
FNDA:0,_ZNSt3__17getlineIcNS_11char_traitsIcEENS_9allocatorIcEEEERNS_13basic_istreamIT_T0_EES9_RNS_12basic_stringIS6_S7_T1_EE
FNF:5
FNH:3
DA:188,16
DA:189,32
DA:305,110
DA:1455,0
DA:1456,0
DA:1457,0
DA:1562,110
DA:1563,220
DA:1565,110
DA:1566,110
DA:1567,110
DA:1568,1184
DA:1570,1776
DA:1571,592
DA:1573,0
DA:1574,0
DA:1576,592
DA:1577,592
DA:1578,592
DA:1579,110
DA:1580,482
DA:1581,482
DA:1583,0
DA:1584,0
DA:1587,110
DA:1588,0
DA:1589,110
DA:1590,110
DA:1592,110
DA:1595,0
DA:1596,0
DA:1598,110
DA:1599,0
DA:1607,0
LF:34
LH:22
end_of_record
SF:/Library/Developer/CommandLineTools/usr/include/c++/v1/iterator
FN:542,_ZNSt3__19__advanceINS_21__tree_const_iteratorINS_12basic_stringIcNS_11char_traitsIcEENS_9allocatorIcEEEEPNS_11__tree_nodeIS7_PvEElEEEEvRT_NS_15iterator_traitsISD_E15difference_typeENS_26bidirectional_iterator_tagE
FN:555,_ZNSt3__19__advanceIPN5Catch8TestSpec6FilterEEEvRT_NS_15iterator_traitsIS5_E15difference_typeENS_26random_access_iterator_tagE
FN:555,_ZNSt3__19__advanceIPN5Catch5Clara6Parser5TokenEEEvRT_NS_15iterator_traitsIS6_E15difference_typeENS_26random_access_iterator_tagE
FN:555,_ZNSt3__19__advanceIPN5Catch3PtrINS1_8TestSpec7PatternEEEEEvRT_NS_15iterator_traitsIS7_E15difference_typeENS_26random_access_iterator_tagE
FN:555,_ZNSt3__19__advanceINS_11__wrap_iterIPKNS_12basic_stringIcNS_11char_traitsIcEENS_9allocatorIcEEEEEEEEvRT_NS_15iterator_traitsISB_E15difference_typeENS_26random_access_iterator_tagE
FN:555,_ZNSt3__19__advanceIPN5Catch8TestCaseEEEvRT_NS_15iterator_traitsIS4_E15difference_typeENS_26random_access_iterator_tagE
FN:563,_ZNSt3__17advanceIPN5Catch8TestSpec6FilterEEEvRT_NS_15iterator_traitsIS5_E15difference_typeE
FN:563,_ZNSt3__17advanceIPN5Catch3PtrINS1_8TestSpec7PatternEEEEEvRT_NS_15iterator_traitsIS7_E15difference_typeE
FN:563,_ZNSt3__17advanceIPN5Catch8TestCaseEEEvRT_NS_15iterator_traitsIS4_E15difference_typeE
FN:563,_ZNSt3__17advanceINS_11__wrap_iterIPKNS_12basic_stringIcNS_11char_traitsIcEENS_9allocatorIcEEEEEEEEvRT_NS_15iterator_traitsISB_E15difference_typeE
FN:563,_ZNSt3__17advanceIPN5Catch5Clara6Parser5TokenEEEvRT_NS_15iterator_traitsIS6_E15difference_typeE
FN:563,_ZNSt3__17advanceINS_21__tree_const_iteratorINS_12basic_stringIcNS_11char_traitsIcEENS_9allocatorIcEEEEPNS_11__tree_nodeIS7_PvEElEEEEvRT_NS_15iterator_traitsISD_E15difference_typeE
FN:583,_ZNSt3__110__distanceIPN5Catch5Clara6Parser5TokenEEENS_15iterator_traitsIT_E15difference_typeES7_S7_NS_26random_access_iterator_tagE
FN:583,_ZNSt3__110__distanceIPN5Catch3PtrINS1_8TestSpec7PatternEEEEENS_15iterator_traitsIT_E15difference_typeES8_S8_NS_26random_access_iterator_tagE
FN:583,_ZNSt3__110__distanceINS_11__wrap_iterIPKN5Catch11MessageInfoEEEEENS_15iterator_traitsIT_E15difference_typeES8_S8_NS_26random_access_iterator_tagE
FN:583,_ZNSt3__110__distanceINS_11__wrap_iterIPKNS_12basic_stringIcNS_11char_traitsIcEENS_9allocatorIcEEEEEEEENS_15iterator_traitsIT_E15difference_typeESC_SC_NS_26random_access_iterator_tagE
FN:583,_ZNSt3__110__distanceIPN5Catch8TestCaseEEENS_15iterator_traitsIT_E15difference_typeES5_S5_NS_26random_access_iterator_tagE
FN:583,_ZNSt3__110__distanceIPcEENS_15iterator_traitsIT_E15difference_typeES3_S3_NS_26random_access_iterator_tagE
FN:583,_ZNSt3__110__distanceINS_11__wrap_iterIPKcEEEENS_15iterator_traitsIT_E15difference_typeES6_S6_NS_26random_access_iterator_tagE
FN:583,_ZNSt3__110__distanceIPN5Catch8TestSpec6FilterEEENS_15iterator_traitsIT_E15difference_typeES6_S6_NS_26random_access_iterator_tagE
FN:591,_ZNSt3__18distanceIPcEENS_15iterator_traitsIT_E15difference_typeES3_S3_
FN:591,_ZNSt3__18distanceIPN5Catch8TestSpec6FilterEEENS_15iterator_traitsIT_E15difference_typeES6_S6_
FN:591,_ZNSt3__18distanceIPN5Catch5Clara6Parser5TokenEEENS_15iterator_traitsIT_E15difference_typeES7_S7_
FN:591,_ZNSt3__18distanceINS_11__wrap_iterIPKcEEEENS_15iterator_traitsIT_E15difference_typeES6_S6_
FN:591,_ZNSt3__18distanceINS_11__wrap_iterIPKN5Catch11MessageInfoEEEEENS_15iterator_traitsIT_E15difference_typeES8_S8_
FN:591,_ZNSt3__18distanceIPN5Catch8TestCaseEEENS_15iterator_traitsIT_E15difference_typeES5_S5_
FN:591,_ZNSt3__18distanceIPN5Catch3PtrINS1_8TestSpec7PatternEEEEENS_15iterator_traitsIT_E15difference_typeES8_S8_
FN:591,_ZNSt3__18distanceINS_11__wrap_iterIPKNS_12basic_stringIcNS_11char_traitsIcEENS_9allocatorIcEEEEEEEENS_15iterator_traitsIT_E15difference_typeESC_SC_
FN:599,_ZNSt3__14nextINS_21__tree_const_iteratorINS_12basic_stringIcNS_11char_traitsIcEENS_9allocatorIcEEEEPNS_11__tree_nodeIS7_PvEElEEEET_SD_NS_15iterator_traitsISD_E15difference_typeEPNS_9enable_ifIXsr19__is_input_iteratorISD_EE5valueEvE4typeE
FN:639,_ZNSt3__116reverse_iteratorINS_11__wrap_iterIPKcEEEC1ES4_
FN:639,_ZNSt3__116reverse_iteratorINS_11__wrap_iterIPKcEEEC2ES4_
FN:639,_ZNSt3__116reverse_iteratorINS_11__wrap_iterIPN5Catch14SectionEndInfoEEEEC1ES5_
FN:639,_ZNSt3__116reverse_iteratorINS_11__wrap_iterIPN5Catch14SectionEndInfoEEEEC2ES5_
FN:642,_ZNSt3__116reverse_iteratorINS_11__wrap_iterIPKN5Catch14SectionEndInfoEEEEC1INS1_IPS3_EEEERKNS0_IT_EE
FN:642,_ZNSt3__116reverse_iteratorINS_11__wrap_iterIPKN5Catch14SectionEndInfoEEEEC2INS1_IPS3_EEEERKNS0_IT_EE
FN:648,_ZNKSt3__116reverse_iteratorINS_11__wrap_iterIPKN5Catch14SectionEndInfoEEEE4baseEv
FN:648,_ZNKSt3__116reverse_iteratorINS_11__wrap_iterIPN5Catch14SectionEndInfoEEEE4baseEv
FN:648,_ZNKSt3__116reverse_iteratorINS_11__wrap_iterIPKcEEE4baseEv
FN:650,_ZNKSt3__116reverse_iteratorINS_11__wrap_iterIPKcEEEdeEv
FN:650,_ZNKSt3__116reverse_iteratorINS_11__wrap_iterIPKN5Catch14SectionEndInfoEEEEdeEv
FN:654,_ZNSt3__116reverse_iteratorINS_11__wrap_iterIPKN5Catch14SectionEndInfoEEEEppEv
FN:654,_ZNSt3__116reverse_iteratorINS_11__wrap_iterIPKcEEEppEv
FN:692,_ZNSt3__1neINS_11__wrap_iterIPKcEES4_EEbRKNS_16reverse_iteratorIT_EERKNS5_IT0_EE
FN:692,_ZNSt3__1neINS_11__wrap_iterIPKN5Catch14SectionEndInfoEEES6_EEbRKNS_16reverse_iteratorIT_EERKNS7_IT0_EE
FN:1010,_ZNSt3__119ostreambuf_iteratorIcNS_11char_traitsIcEEEC2ERNS_13basic_ostreamIcS2_EE
FN:1010,_ZNSt3__119ostreambuf_iteratorIcNS_11char_traitsIcEEEC1ERNS_13basic_ostreamIcS2_EE
FN:1023,_ZNKSt3__119ostreambuf_iteratorIcNS_11char_traitsIcEEE6failedEv
FN:1270,_ZNSt3__111__wrap_iterIPKN5Catch5Clara11CommandLineINS1_10ConfigDataEE3ArgEEC1Ev
FN:1270,_ZNSt3__111__wrap_iterIPKN5Catch5Clara11CommandLineINS1_10ConfigDataEE3ArgEEC2Ev
FN:1279,_ZNSt3__111__wrap_iterIPKN5Catch8TestCaseEEC1IPS2_EERKNS0_IT_EEPNS_9enable_ifIXsr14is_convertibleIS8_S4_EE5valueEvE4typeE
FN:1279,_ZNSt3__111__wrap_iterIPKN5Catch11MessageInfoEEC1IPS2_EERKNS0_IT_EEPNS_9enable_ifIXsr14is_convertibleIS8_S4_EE5valueEvE4typeE
FN:1279,_ZNSt3__111__wrap_iterIPKNS_12basic_stringIcNS_11char_traitsIcEENS_9allocatorIcEEEEEC1IPS6_EERKNS0_IT_EEPNS_9enable_ifIXsr14is_convertibleISC_S8_EE5valueEvE4typeE
FN:1279,_ZNSt3__111__wrap_iterIPKN5Catch3PtrINS1_16IReporterFactoryEEEEC1IPS4_EERKNS0_IT_EEPNS_9enable_ifIXsr14is_convertibleISA_S6_EE5valueEvE4typeE
FN:1279,_ZNSt3__111__wrap_iterIPKN5Catch11SectionInfoEEC1IPS2_EERKNS0_IT_EEPNS_9enable_ifIXsr14is_convertibleIS8_S4_EE5valueEvE4typeE
FN:1279,_ZNSt3__111__wrap_iterIPKN5Catch14SectionEndInfoEEC2IPS2_EERKNS0_IT_EEPNS_9enable_ifIXsr14is_convertibleIS8_S4_EE5valueEvE4typeE
FN:1279,_ZNSt3__111__wrap_iterIPKN5Catch3PtrINS1_16TestCaseTracking8ITrackerEEEEC2IPS5_EERKNS0_IT_EEPNS_9enable_ifIXsr14is_convertibleISB_S7_EE5valueEvE4typeE
FN:1279,_ZNSt3__111__wrap_iterIPKPN5Catch14IGeneratorInfoEEC2IPS3_EERKNS0_IT_EEPNS_9enable_ifIXsr14is_convertibleIS9_S5_EE5valueEvE4typeE
FN:1279,_ZNSt3__111__wrap_iterIPKPN5Catch14IGeneratorInfoEEC1IPS3_EERKNS0_IT_EEPNS_9enable_ifIXsr14is_convertibleIS9_S5_EE5valueEvE4typeE
FN:1279,_ZNSt3__111__wrap_iterIPKN5Catch3PtrINS1_22CumulativeReporterBase11SectionNodeEEEEC1IPS5_EERKNS0_IT_EEPNS_9enable_ifIXsr14is_convertibleISB_S7_EE5valueEvE4typeE
FN:1279,_ZNSt3__111__wrap_iterIPKN5Catch14SectionEndInfoEEC1IPS2_EERKNS0_IT_EEPNS_9enable_ifIXsr14is_convertibleIS8_S4_EE5valueEvE4typeE
FN:1279,_ZNSt3__111__wrap_iterIPKN5Catch3PtrINS1_22CumulativeReporterBase11SectionNodeEEEEC2IPS5_EERKNS0_IT_EEPNS_9enable_ifIXsr14is_convertibleISB_S7_EE5valueEvE4typeE
FN:1279,_ZNSt3__111__wrap_iterIPKN5Catch3PtrINS1_18IStreamingReporterEEEEC2IPS4_EERKNS0_IT_EEPNS_9enable_ifIXsr14is_convertibleISA_S6_EE5valueEvE4typeE
FN:1279,_ZNSt3__111__wrap_iterIPKN5Catch11SectionInfoEEC2IPS2_EERKNS0_IT_EEPNS_9enable_ifIXsr14is_convertibleIS8_S4_EE5valueEvE4typeE
FN:1279,_ZNSt3__111__wrap_iterIPKPKN5Catch20IExceptionTranslatorEEC1IPS4_EERKNS0_IT_EEPNS_9enable_ifIXsr14is_convertibleISA_S6_EE5valueEvE4typeE
FN:1279,_ZNSt3__111__wrap_iterIPKNS_12basic_stringIcNS_11char_traitsIcEENS_9allocatorIcEEEEEC2IPS6_EERKNS0_IT_EEPNS_9enable_ifIXsr14is_convertibleISC_S8_EE5valueEvE4typeE
FN:1279,_ZNSt3__111__wrap_iterIPKN5Catch3PtrINS1_16IReporterFactoryEEEEC2IPS4_EERKNS0_IT_EEPNS_9enable_ifIXsr14is_convertibleISA_S6_EE5valueEvE4typeE
FN:1279,_ZNSt3__111__wrap_iterIPKN5Catch3PtrINS1_18IStreamingReporterEEEEC1IPS4_EERKNS0_IT_EEPNS_9enable_ifIXsr14is_convertibleISA_S6_EE5valueEvE4typeE
FN:1279,_ZNSt3__111__wrap_iterIPKN5Catch8TestCaseEEC2IPS2_EERKNS0_IT_EEPNS_9enable_ifIXsr14is_convertibleIS8_S4_EE5valueEvE4typeE
FN:1279,_ZNSt3__111__wrap_iterIPKN5Catch3PtrINS1_16TestCaseTracking8ITrackerEEEEC1IPS5_EERKNS0_IT_EEPNS_9enable_ifIXsr14is_convertibleISB_S7_EE5valueEvE4typeE
FN:1279,_ZNSt3__111__wrap_iterIPKPKN5Catch20IExceptionTranslatorEEC2IPS4_EERKNS0_IT_EEPNS_9enable_ifIXsr14is_convertibleISA_S6_EE5valueEvE4typeE
FN:1279,_ZNSt3__111__wrap_iterIPKN5Catch11MessageInfoEEC2IPS2_EERKNS0_IT_EEPNS_9enable_ifIXsr14is_convertibleIS8_S4_EE5valueEvE4typeE
FN:1310,_ZNKSt3__111__wrap_iterIPKN5Catch14AssertionStatsEEdeEv
FN:1310,_ZNKSt3__111__wrap_iterIPN5Catch11MessageInfoEEdeEv
FN:1310,_ZNKSt3__111__wrap_iterIPKNS_12basic_stringIcNS_11char_traitsIcEENS_9allocatorIcEEEEEdeEv
FN:1310,_ZNKSt3__111__wrap_iterIPN5Catch3PtrINS1_22CumulativeReporterBase11SectionNodeEEEEdeEv
FN:1310,_ZNKSt3__111__wrap_iterIPKN5Catch5Clara11CommandLineINS1_10ConfigDataEE3ArgEEdeEv
FN:1310,_ZNKSt3__111__wrap_iterIPKN5Catch3PtrINS1_22CumulativeReporterBase4NodeINS1_13TestCaseStatsENS3_11SectionNodeEEEEEEdeEv
FN:1310,_ZNKSt3__111__wrap_iterIPKPN5Catch14IGeneratorInfoEEdeEv
FN:1310,_ZNKSt3__111__wrap_iterIPKcEdeEv
FN:1310,_ZNKSt3__111__wrap_iterIPKN5Catch3PtrINS1_22CumulativeReporterBase11SectionNodeEEEEdeEv
FN:1310,_ZNKSt3__111__wrap_iterIPKN5Catch14SectionEndInfoEEdeEv
FN:1310,_ZNKSt3__111__wrap_iterIPN5Catch3PtrINS1_16TestCaseTracking8ITrackerEEEEdeEv
FN:1310,_ZNKSt3__111__wrap_iterIPKN5Catch3PtrINS1_18IStreamingReporterEEEEdeEv
FN:1310,_ZNKSt3__111__wrap_iterIPKN5Catch3PtrINS1_16IReporterFactoryEEEEdeEv
FN:1310,_ZNKSt3__111__wrap_iterIPKPKN5Catch20IExceptionTranslatorEEdeEv
FN:1310,_ZNKSt3__111__wrap_iterIPcEdeEv
FN:1310,_ZNKSt3__111__wrap_iterIPNS_12basic_stringIcNS_11char_traitsIcEENS_9allocatorIcEEEEEdeEv
FN:1310,_ZNKSt3__111__wrap_iterIPN5Catch8TestCaseEEdeEv
FN:1310,_ZNKSt3__111__wrap_iterIPKN5Catch3PtrINS1_8TestSpec7PatternEEEEdeEv
FN:1310,_ZNKSt3__111__wrap_iterIPKN5Catch8TestCaseEEdeEv
FN:1318,_ZNKSt3__111__wrap_iterIPKN5Catch11MessageInfoEEptEv
FN:1318,_ZNKSt3__111__wrap_iterIPKN5Catch3PtrINS1_16TestCaseTracking8ITrackerEEEEptEv
FN:1318,_ZNKSt3__111__wrap_iterIPKN5Catch11SectionInfoEEptEv
FN:1318,_ZNKSt3__111__wrap_iterIPNS_12basic_stringIcNS_11char_traitsIcEENS_9allocatorIcEEEEEptEv
FN:1318,_ZNKSt3__111__wrap_iterIPKN5Catch5Clara11CommandLineINS1_10ConfigDataEE3ArgEEptEv
FN:1318,_ZNKSt3__111__wrap_iterIPKN5Catch15ConsoleReporter13SummaryColumnEEptEv
FN:1318,_ZNKSt3__111__wrap_iterIPKN5Catch8TestCaseEEptEv
FN:1318,_ZNKSt3__111__wrap_iterIPKN5Catch8TestSpec6FilterEEptEv
FN:1326,_ZNSt3__111__wrap_iterIPKN5Catch3PtrINS1_22CumulativeReporterBase4NodeINS1_13TestCaseStatsENS3_11SectionNodeEEEEEEppEv
FN:1326,_ZNSt3__111__wrap_iterIPKN5Catch5Clara11CommandLineINS1_10ConfigDataEE3ArgEEppEv
FN:1326,_ZNSt3__111__wrap_iterIPN5Catch3PtrINS1_16TestCaseTracking8ITrackerEEEEppEv
FN:1326,_ZNSt3__111__wrap_iterIPN5Catch3PtrINS1_22CumulativeReporterBase11SectionNodeEEEEppEv
FN:1326,_ZNSt3__111__wrap_iterIPKcEppEv
FN:1326,_ZNSt3__111__wrap_iterIPN5Catch11MessageInfoEEppEv
FN:1326,_ZNSt3__111__wrap_iterIPcEppEv
FN:1326,_ZNSt3__111__wrap_iterIPKN5Catch3PtrINS1_22CumulativeReporterBase11SectionNodeEEEEppEv
FN:1326,_ZNSt3__111__wrap_iterIPKN5Catch8TestCaseEEppEv
FN:1326,_ZNSt3__111__wrap_iterIPKN5Catch3PtrINS1_18IStreamingReporterEEEEppEv
FN:1326,_ZNSt3__111__wrap_iterIPKN5Catch3PtrINS1_8TestSpec7PatternEEEEppEv
FN:1326,_ZNSt3__111__wrap_iterIPKN5Catch15ConsoleReporter13SummaryColumnEEppEv
FN:1326,_ZNSt3__111__wrap_iterIPKPN5Catch14IGeneratorInfoEEppEv
FN:1326,_ZNSt3__111__wrap_iterIPKPKN5Catch20IExceptionTranslatorEEppEv
FN:1326,_ZNSt3__111__wrap_iterIPNS_12basic_stringIcNS_11char_traitsIcEENS_9allocatorIcEEEEEppEv
FN:1326,_ZNSt3__111__wrap_iterIPN5Catch8TestCaseEEppEv
FN:1326,_ZNSt3__111__wrap_iterIPKN5Catch8TestSpec6FilterEEppEv
FN:1326,_ZNSt3__111__wrap_iterIPKNS_12basic_stringIcNS_11char_traitsIcEENS_9allocatorIcEEEEEppEv
FN:1326,_ZNSt3__111__wrap_iterIPKN5Catch14AssertionStatsEEppEv
FN:1326,_ZNSt3__111__wrap_iterIPKN5Catch11MessageInfoEEppEv
FN:1326,_ZNSt3__111__wrap_iterIPKN5Catch3PtrINS1_16IReporterFactoryEEEEppEv
FN:1326,_ZNSt3__111__wrap_iterIPKN5Catch11SectionInfoEEppEv
FN:1337,_ZNSt3__111__wrap_iterIPKN5Catch14SectionEndInfoEEmmEv
FN:1337,_ZNSt3__111__wrap_iterIPN5Catch8TestCaseEEmmEv
FN:1337,_ZNSt3__111__wrap_iterIPKcEmmEv
FN:1348,_ZNKSt3__111__wrap_iterIPN5Catch8TestCaseEEplEl
FN:1348,_ZNKSt3__111__wrap_iterIPKcEplEl
FN:1348,_ZNKSt3__111__wrap_iterIPKPKN5Catch20IExceptionTranslatorEEplEl
FN:1348,_ZNKSt3__111__wrap_iterIPN5Catch11SectionInfoEEplEl
FN:1350,_ZNSt3__111__wrap_iterIPKPKN5Catch20IExceptionTranslatorEEpLEl
FN:1350,_ZNSt3__111__wrap_iterIPN5Catch11SectionInfoEEpLEl
FN:1350,_ZNSt3__111__wrap_iterIPN5Catch8TestCaseEEpLEl
FN:1350,_ZNSt3__111__wrap_iterIPKNS_12basic_stringIcNS_11char_traitsIcEENS_9allocatorIcEEEEEpLEl
FN:1350,_ZNSt3__111__wrap_iterIPKcEpLEl
FN:1359,_ZNKSt3__111__wrap_iterIPKcEmiEl
FN:1372,_ZNKSt3__111__wrap_iterIPcE4baseEv
FN:1372,_ZNKSt3__111__wrap_iterIPKNS_12basic_stringIcNS_11char_traitsIcEENS_9allocatorIcEEEEE4baseEv
FN:1372,_ZNKSt3__111__wrap_iterIPKN5Catch11SectionInfoEE4baseEv
FN:1372,_ZNKSt3__111__wrap_iterIPN5Catch3PtrINS1_22CumulativeReporterBase11SectionNodeEEEE4baseEv
FN:1372,_ZNKSt3__111__wrap_iterIPN5Catch8TestCaseEE4baseEv
FN:1372,_ZNKSt3__111__wrap_iterIPKPN5Catch14IGeneratorInfoEE4baseEv
FN:1372,_ZNKSt3__111__wrap_iterIPKN5Catch3PtrINS1_16IReporterFactoryEEEE4baseEv
FN:1372,_ZNKSt3__111__wrap_iterIPN5Catch11SectionInfoEE4baseEv
FN:1372,_ZNKSt3__111__wrap_iterIPPN5Catch14IGeneratorInfoEE4baseEv
FN:1372,_ZNKSt3__111__wrap_iterIPN5Catch14SectionEndInfoEE4baseEv
FN:1372,_ZNKSt3__111__wrap_iterIPKN5Catch3PtrINS1_8TestSpec7PatternEEEE4baseEv
FN:1372,_ZNKSt3__111__wrap_iterIPKN5Catch11MessageInfoEE4baseEv
FN:1372,_ZNKSt3__111__wrap_iterIPKN5Catch8TestSpec6FilterEE4baseEv
FN:1372,_ZNKSt3__111__wrap_iterIPKN5Catch3PtrINS1_18IStreamingReporterEEEE4baseEv
FN:1372,_ZNKSt3__111__wrap_iterIPKN5Catch3PtrINS1_16TestCaseTracking8ITrackerEEEE4baseEv
FN:1372,_ZNKSt3__111__wrap_iterIPKN5Catch14AssertionStatsEE4baseEv
FN:1372,_ZNKSt3__111__wrap_iterIPKcE4baseEv
FN:1372,_ZNKSt3__111__wrap_iterIPN5Catch3PtrINS1_18IStreamingReporterEEEE4baseEv
FN:1372,_ZNKSt3__111__wrap_iterIPKN5Catch3PtrINS1_22CumulativeReporterBase4NodeINS1_13TestCaseStatsENS3_11SectionNodeEEEEEE4baseEv
FN:1372,_ZNKSt3__111__wrap_iterIPKN5Catch8TestCaseEE4baseEv
FN:1372,_ZNKSt3__111__wrap_iterIPN5Catch3PtrINS1_16IReporterFactoryEEEE4baseEv
FN:1372,_ZNKSt3__111__wrap_iterIPN5Catch11MessageInfoEE4baseEv
FN:1372,_ZNKSt3__111__wrap_iterIPKN5Catch5Clara11CommandLineINS1_10ConfigDataEE3ArgEE4baseEv
FN:1372,_ZNKSt3__111__wrap_iterIPKN5Catch15ConsoleReporter13SummaryColumnEE4baseEv
FN:1372,_ZNKSt3__111__wrap_iterIPKN5Catch14SectionEndInfoEE4baseEv
FN:1372,_ZNKSt3__111__wrap_iterIPPKN5Catch20IExceptionTranslatorEE4baseEv
FN:1372,_ZNKSt3__111__wrap_iterIPNS_12basic_stringIcNS_11char_traitsIcEENS_9allocatorIcEEEEE4baseEv
FN:1372,_ZNKSt3__111__wrap_iterIPKN5Catch3PtrINS1_22CumulativeReporterBase11SectionNodeEEEE4baseEv
FN:1372,_ZNKSt3__111__wrap_iterIPKPKN5Catch20IExceptionTranslatorEE4baseEv
FN:1372,_ZNKSt3__111__wrap_iterIPN5Catch3PtrINS1_16TestCaseTracking8ITrackerEEEE4baseEv
FN:1381,_ZNSt3__111__wrap_iterIPKN5Catch3PtrINS1_22CumulativeReporterBase4NodeINS1_13TestCaseStatsENS3_11SectionNodeEEEEEEC1ESA_
FN:1381,_ZNSt3__111__wrap_iterIPKN5Catch3PtrINS1_8TestSpec7PatternEEEEC2ES7_
FN:1381,_ZNSt3__111__wrap_iterIPKN5Catch15ConsoleReporter13SummaryColumnEEC1ES5_
FN:1381,_ZNSt3__111__wrap_iterIPKN5Catch11MessageInfoEEC1ES4_
FN:1381,_ZNSt3__111__wrap_iterIPKN5Catch8TestSpec6FilterEEC2ES5_
FN:1381,_ZNSt3__111__wrap_iterIPN5Catch3PtrINS1_16IReporterFactoryEEEEC1ES5_
FN:1381,_ZNSt3__111__wrap_iterIPN5Catch14SectionEndInfoEEC2ES3_
FN:1381,_ZNSt3__111__wrap_iterIPcEC1ES1_
FN:1381,_ZNSt3__111__wrap_iterIPKN5Catch8TestCaseEEC1ES4_
FN:1381,_ZNSt3__111__wrap_iterIPPKN5Catch20IExceptionTranslatorEEC2ES5_
FN:1381,_ZNSt3__111__wrap_iterIPPKN5Catch20IExceptionTranslatorEEC1ES5_
FN:1381,_ZNSt3__111__wrap_iterIPcEC2ES1_
FN:1381,_ZNSt3__111__wrap_iterIPN5Catch11SectionInfoEEC1ES3_
FN:1381,_ZNSt3__111__wrap_iterIPN5Catch11MessageInfoEEC1ES3_
FN:1381,_ZNSt3__111__wrap_iterIPKN5Catch14AssertionStatsEEC2ES4_
FN:1381,_ZNSt3__111__wrap_iterIPN5Catch11MessageInfoEEC2ES3_
FN:1381,_ZNSt3__111__wrap_iterIPKN5Catch5Clara11CommandLineINS1_10ConfigDataEE3ArgEEC1ES8_
FN:1381,_ZNSt3__111__wrap_iterIPKN5Catch3PtrINS1_22CumulativeReporterBase11SectionNodeEEEEC2ES7_
FN:1381,_ZNSt3__111__wrap_iterIPNS_12basic_stringIcNS_11char_traitsIcEENS_9allocatorIcEEEEEC1ES7_
FN:1381,_ZNSt3__111__wrap_iterIPN5Catch8TestCaseEEC1ES3_
FN:1381,_ZNSt3__111__wrap_iterIPKN5Catch8TestSpec6FilterEEC1ES5_
FN:1381,_ZNSt3__111__wrap_iterIPKPKN5Catch20IExceptionTranslatorEEC2ES6_
FN:1381,_ZNSt3__111__wrap_iterIPN5Catch3PtrINS1_22CumulativeReporterBase11SectionNodeEEEEC1ES6_
FN:1381,_ZNSt3__111__wrap_iterIPN5Catch11SectionInfoEEC2ES3_
FN:1381,_ZNSt3__111__wrap_iterIPN5Catch3PtrINS1_16IReporterFactoryEEEEC2ES5_
FN:1381,_ZNSt3__111__wrap_iterIPN5Catch3PtrINS1_16TestCaseTracking8ITrackerEEEEC2ES6_
FN:1381,_ZNSt3__111__wrap_iterIPN5Catch14SectionEndInfoEEC1ES3_
FN:1381,_ZNSt3__111__wrap_iterIPKN5Catch11MessageInfoEEC2ES4_
FN:1381,_ZNSt3__111__wrap_iterIPKN5Catch14AssertionStatsEEC1ES4_
FN:1381,_ZNSt3__111__wrap_iterIPKN5Catch8TestCaseEEC2ES4_
FN:1381,_ZNSt3__111__wrap_iterIPN5Catch3PtrINS1_22CumulativeReporterBase11SectionNodeEEEEC2ES6_
FN:1381,_ZNSt3__111__wrap_iterIPKcEC2ES2_
FN:1381,_ZNSt3__111__wrap_iterIPKNS_12basic_stringIcNS_11char_traitsIcEENS_9allocatorIcEEEEEC2ES8_
FN:1381,_ZNSt3__111__wrap_iterIPKNS_12basic_stringIcNS_11char_traitsIcEENS_9allocatorIcEEEEEC1ES8_
FN:1381,_ZNSt3__111__wrap_iterIPN5Catch3PtrINS1_16TestCaseTracking8ITrackerEEEEC1ES6_
FN:1381,_ZNSt3__111__wrap_iterIPN5Catch8TestCaseEEC2ES3_
FN:1381,_ZNSt3__111__wrap_iterIPKN5Catch15ConsoleReporter13SummaryColumnEEC2ES5_
FN:1381,_ZNSt3__111__wrap_iterIPPN5Catch14IGeneratorInfoEEC1ES4_
FN:1381,_ZNSt3__111__wrap_iterIPKPKN5Catch20IExceptionTranslatorEEC1ES6_
FN:1381,_ZNSt3__111__wrap_iterIPN5Catch3PtrINS1_18IStreamingReporterEEEEC2ES5_
FN:1381,_ZNSt3__111__wrap_iterIPKN5Catch3PtrINS1_8TestSpec7PatternEEEEC1ES7_
FN:1381,_ZNSt3__111__wrap_iterIPKN5Catch5Clara11CommandLineINS1_10ConfigDataEE3ArgEEC2ES8_
FN:1381,_ZNSt3__111__wrap_iterIPNS_12basic_stringIcNS_11char_traitsIcEENS_9allocatorIcEEEEEC2ES7_
FN:1381,_ZNSt3__111__wrap_iterIPN5Catch3PtrINS1_18IStreamingReporterEEEEC1ES5_
FN:1381,_ZNSt3__111__wrap_iterIPPN5Catch14IGeneratorInfoEEC2ES4_
FN:1381,_ZNSt3__111__wrap_iterIPKN5Catch3PtrINS1_22CumulativeReporterBase11SectionNodeEEEEC1ES7_
FN:1381,_ZNSt3__111__wrap_iterIPKcEC1ES2_
FN:1381,_ZNSt3__111__wrap_iterIPKN5Catch3PtrINS1_22CumulativeReporterBase4NodeINS1_13TestCaseStatsENS3_11SectionNodeEEEEEEC2ESA_
FN:1386,_ZNSt3__16vectorIN5Catch11SectionInfoENS_9allocatorIS2_EEED1Ev
FN:1386,_ZNSt3__16vectorIN5Catch3PtrINS1_22CumulativeReporterBase4NodeINS1_14TestGroupStatsENS4_INS1_13TestCaseStatsENS3_11SectionNodeEEEEEEENS_9allocatorISA_EEED2Ev
FN:1386,_ZNSt3__16vectorIPKN5Catch8Matchers4Impl11MatcherBaseINS_12basic_stringIcNS_11char_traitsIcEENS_9allocatorIcEEEESA_EENS8_ISD_EEED2Ev
FN:1386,_ZNSt3__16vectorIN5Catch14AssertionStatsENS_9allocatorIS2_EEED2Ev
FN:1386,_ZNSt3__16vectorIN5Catch3PtrINS1_22CumulativeReporterBase11SectionNodeEEENS_9allocatorIS5_EEED2Ev
FN:1386,_ZNSt3__16vectorIN5Catch5Clara11CommandLineINS1_10ConfigDataEE3ArgENS_9allocatorIS6_EEED1Ev
FN:1386,_ZNSt3__16vectorIN5Catch14SectionEndInfoENS_9allocatorIS2_EEED1Ev
FN:1386,_ZNSt3__16vectorINS0_IN5Catch3PtrINS1_22CumulativeReporterBase11SectionNodeEEENS_9allocatorIS5_EEEENS6_IS8_EEED1Ev
FN:1386,_ZNSt3__16vectorIN5Catch3PtrINS1_18IStreamingReporterEEENS_9allocatorIS4_EEED2Ev
FN:1386,_ZNSt3__16vectorIN5Catch3PtrINS1_8TestSpec7PatternEEENS_9allocatorIS5_EEED1Ev
FN:1386,_ZNSt3__16vectorIPKN5Catch20IExceptionTranslatorENS_9allocatorIS4_EEED2Ev
FN:1386,_ZNSt3__16vectorIPKN5Catch20IExceptionTranslatorENS_9allocatorIS4_EEED1Ev
FN:1386,_ZNSt3__16vectorIN5Catch3PtrINS1_22CumulativeReporterBase4NodeINS1_13TestCaseStatsENS3_11SectionNodeEEEEENS_9allocatorIS8_EEED2Ev
FN:1386,_ZNSt3__16vectorIN5Catch3PtrINS1_16IReporterFactoryEEENS_9allocatorIS4_EEED1Ev
FN:1386,_ZNSt3__16vectorIN5Catch3PtrINS1_16TestCaseTracking8ITrackerEEENS_9allocatorIS5_EEED1Ev
FN:1386,_ZNSt3__16vectorIN5Catch3PtrINS1_16TestCaseTracking8ITrackerEEENS_9allocatorIS5_EEED2Ev
FN:1386,_ZNSt3__16vectorIPKN5Catch8Matchers4Impl11MatcherBaseINS_12basic_stringIcNS_11char_traitsIcEENS_9allocatorIcEEEESA_EENS8_ISD_EEED1Ev
FN:1386,_ZNSt3__16vectorImNS_9allocatorImEEED2Ev
FN:1386,_ZNSt3__16vectorIN5Catch3PtrINS1_16IReporterFactoryEEENS_9allocatorIS4_EEED2Ev
FN:1386,_ZNSt3__16vectorINS_12basic_stringIcNS_11char_traitsIcEENS_9allocatorIcEEEENS4_IS6_EEED2Ev
FN:1386,_ZNSt3__16vectorIN5Catch14SectionEndInfoENS_9allocatorIS2_EEED2Ev
FN:1386,_ZNSt3__16vectorIN5Catch15ConsoleReporter13SummaryColumnENS_9allocatorIS3_EEED1Ev
FN:1386,_ZNSt3__16vectorIN5Catch8TestSpec6FilterENS_9allocatorIS3_EEED2Ev
FN:1386,_ZNSt3__16vectorIN5Catch3PtrINS1_22CumulativeReporterBase4NodeINS1_12TestRunStatsENS4_INS1_14TestGroupStatsENS4_INS1_13TestCaseStatsENS3_11SectionNodeEEEEEEEEENS_9allocatorISC_EEED2Ev
FN:1386,_ZNSt3__16vectorINS0_IN5Catch3PtrINS1_22CumulativeReporterBase11SectionNodeEEENS_9allocatorIS5_EEEENS6_IS8_EEED2Ev
FN:1386,_ZNSt3__16vectorIN5Catch11SectionInfoENS_9allocatorIS2_EEED2Ev
FN:1386,_ZNSt3__16vectorIN5Catch5Clara6Parser5TokenENS_9allocatorIS4_EEED1Ev
FN:1386,_ZNSt3__16vectorIN5Catch11MessageInfoENS_9allocatorIS2_EEED2Ev
FN:1386,_ZNSt3__16vectorIPN5Catch16TestCaseTracking8ITrackerENS_9allocatorIS4_EEED2Ev
FN:1386,_ZNSt3__16vectorIN5Catch3PtrINS1_22CumulativeReporterBase4NodeINS1_13TestCaseStatsENS3_11SectionNodeEEEEENS_9allocatorIS8_EEED1Ev
FN:1386,_ZNSt3__16vectorIPN5Catch14IGeneratorInfoENS_9allocatorIS3_EEED2Ev
FN:1386,_ZNSt3__16vectorIN5Catch3PtrINS1_22CumulativeReporterBase4NodeINS1_12TestRunStatsENS4_INS1_14TestGroupStatsENS4_INS1_13TestCaseStatsENS3_11SectionNodeEEEEEEEEENS_9allocatorISC_EEED1Ev
FN:1386,_ZNSt3__16vectorIPN5Catch16TestCaseTracking8ITrackerENS_9allocatorIS4_EEED1Ev
FN:1386,_ZNSt3__16vectorIN5Catch14AssertionStatsENS_9allocatorIS2_EEED1Ev
FN:1386,_ZNSt3__16vectorIN5Catch15ConsoleReporter13SummaryColumnENS_9allocatorIS3_EEED2Ev
FN:1386,_ZNSt3__16vectorIN5Catch3PtrINS1_22CumulativeReporterBase11SectionNodeEEENS_9allocatorIS5_EEED1Ev
FN:1386,_ZNSt3__16vectorIN5Catch5Clara11CommandLineINS1_10ConfigDataEE3ArgENS_9allocatorIS6_EEED2Ev
FN:1386,_ZNSt3__16vectorImNS_9allocatorImEEED1Ev
FN:1386,_ZNSt3__16vectorIN5Catch11MessageInfoENS_9allocatorIS2_EEED1Ev
FN:1386,_ZNSt3__16vectorIN5Catch8TestSpec6FilterENS_9allocatorIS3_EEED1Ev
FN:1386,_ZNSt3__16vectorIN5Catch3PtrINS1_18IStreamingReporterEEENS_9allocatorIS4_EEED1Ev
FN:1386,_ZNSt3__16vectorIN5Catch3PtrINS1_8TestSpec7PatternEEENS_9allocatorIS5_EEED2Ev
FN:1386,_ZNSt3__16vectorIPN5Catch14IGeneratorInfoENS_9allocatorIS3_EEED1Ev
FN:1386,_ZNSt3__16vectorIN5Catch5Clara6Parser5TokenENS_9allocatorIS4_EEED2Ev
FN:1386,_ZNSt3__16vectorIN5Catch3PtrINS1_22CumulativeReporterBase4NodeINS1_14TestGroupStatsENS4_INS1_13TestCaseStatsENS3_11SectionNodeEEEEEEENS_9allocatorISA_EEED1Ev
FN:1386,_ZNSt3__16vectorINS_12basic_stringIcNS_11char_traitsIcEENS_9allocatorIcEEEENS4_IS6_EEED1Ev
FN:1465,_ZNSt3__1eqIPKN5Catch14AssertionStatsES4_EEbRKNS_11__wrap_iterIT_EERKNS5_IT0_EE
FN:1465,_ZNSt3__1eqIPKN5Catch3PtrINS1_16TestCaseTracking8ITrackerEEEPS5_EEbRKNS_11__wrap_iterIT_EERKNS9_IT0_EE
FN:1465,_ZNSt3__1eqIPN5Catch3PtrINS1_16TestCaseTracking8ITrackerEEES6_EEbRKNS_11__wrap_iterIT_EERKNS7_IT0_EE
FN:1465,_ZNSt3__1eqIPKN5Catch3PtrINS1_8TestSpec7PatternEEES7_EEbRKNS_11__wrap_iterIT_EERKNS8_IT0_EE
FN:1465,_ZNSt3__1eqIPKNS_12basic_stringIcNS_11char_traitsIcEENS_9allocatorIcEEEEPS6_EEbRKNS_11__wrap_iterIT_EERKNSA_IT0_EE
FN:1465,_ZNSt3__1eqIPKN5Catch5Clara11CommandLineINS1_10ConfigDataEE3ArgES8_EEbRKNS_11__wrap_iterIT_EERKNS9_IT0_EE
FN:1465,_ZNSt3__1eqIPcS1_EEbRKNS_11__wrap_iterIT_EERKNS2_IT0_EE
FN:1465,_ZNSt3__1eqIPKPN5Catch14IGeneratorInfoES5_EEbRKNS_11__wrap_iterIT_EERKNS6_IT0_EE
FN:1465,_ZNSt3__1eqIPKN5Catch3PtrINS1_18IStreamingReporterEEES6_EEbRKNS_11__wrap_iterIT_EERKNS7_IT0_EE
FN:1465,_ZNSt3__1eqIPKN5Catch3PtrINS1_16IReporterFactoryEEES6_EEbRKNS_11__wrap_iterIT_EERKNS7_IT0_EE
FN:1465,_ZNSt3__1eqIPKN5Catch11MessageInfoES4_EEbRKNS_11__wrap_iterIT_EERKNS5_IT0_EE
FN:1465,_ZNSt3__1eqIPKN5Catch8TestCaseES4_EEbRKNS_11__wrap_iterIT_EERKNS5_IT0_EE
FN:1465,_ZNSt3__1eqIPKN5Catch3PtrINS1_22CumulativeReporterBase4NodeINS1_13TestCaseStatsENS3_11SectionNodeEEEEESA_EEbRKNS_11__wrap_iterIT_EERKNSB_IT0_EE
FN:1465,_ZNSt3__1eqIPKNS_12basic_stringIcNS_11char_traitsIcEENS_9allocatorIcEEEES8_EEbRKNS_11__wrap_iterIT_EERKNS9_IT0_EE
FN:1465,_ZNSt3__1eqIPKcS2_EEbRKNS_11__wrap_iterIT_EERKNS3_IT0_EE
FN:1465,_ZNSt3__1eqIPNS_12basic_stringIcNS_11char_traitsIcEENS_9allocatorIcEEEES7_EEbRKNS_11__wrap_iterIT_EERKNS8_IT0_EE
FN:1465,_ZNSt3__1eqIPN5Catch11MessageInfoES3_EEbRKNS_11__wrap_iterIT_EERKNS4_IT0_EE
FN:1465,_ZNSt3__1eqIPKN5Catch15ConsoleReporter13SummaryColumnES5_EEbRKNS_11__wrap_iterIT_EERKNS6_IT0_EE
FN:1465,_ZNSt3__1eqIPKN5Catch11SectionInfoES4_EEbRKNS_11__wrap_iterIT_EERKNS5_IT0_EE
FN:1465,_ZNSt3__1eqIPKN5Catch14SectionEndInfoES4_EEbRKNS_11__wrap_iterIT_EERKNS5_IT0_EE
FN:1465,_ZNSt3__1eqIPKN5Catch11MessageInfoEPS2_EEbRKNS_11__wrap_iterIT_EERKNS6_IT0_EE
FN:1465,_ZNSt3__1eqIPKN5Catch3PtrINS1_22CumulativeReporterBase11SectionNodeEEEPS5_EEbRKNS_11__wrap_iterIT_EERKNS9_IT0_EE
FN:1465,_ZNSt3__1eqIPN5Catch3PtrINS1_22CumulativeReporterBase11SectionNodeEEES6_EEbRKNS_11__wrap_iterIT_EERKNS7_IT0_EE
FN:1465,_ZNSt3__1eqIPKN5Catch8TestSpec6FilterES5_EEbRKNS_11__wrap_iterIT_EERKNS6_IT0_EE
FN:1465,_ZNSt3__1eqIPKN5Catch3PtrINS1_22CumulativeReporterBase11SectionNodeEEES7_EEbRKNS_11__wrap_iterIT_EERKNS8_IT0_EE
FN:1465,_ZNSt3__1eqIPKPKN5Catch20IExceptionTranslatorES6_EEbRKNS_11__wrap_iterIT_EERKNS7_IT0_EE
FN:1473,_ZNSt3__1ltIPKcS2_EEbRKNS_11__wrap_iterIT_EERKNS3_IT0_EE
FN:1473,_ZNSt3__1ltIPN5Catch8TestCaseES3_EEbRKNS_11__wrap_iterIT_EERKNS4_IT0_EE
FN:1485,_ZNSt3__1neIPKN5Catch11MessageInfoEPS2_EEbRKNS_11__wrap_iterIT_EERKNS6_IT0_EE
FN:1485,_ZNSt3__1neIPKNS_12basic_stringIcNS_11char_traitsIcEENS_9allocatorIcEEEEPS6_EEbRKNS_11__wrap_iterIT_EERKNSA_IT0_EE
FN:1485,_ZNSt3__1neIPKN5Catch3PtrINS1_16TestCaseTracking8ITrackerEEEPS5_EEbRKNS_11__wrap_iterIT_EERKNS9_IT0_EE
FN:1517,_ZNSt3__1neIPKN5Catch14SectionEndInfoEEEbRKNS_11__wrap_iterIT_EES9_
FN:1517,_ZNSt3__1neIPNS_12basic_stringIcNS_11char_traitsIcEENS_9allocatorIcEEEEEEbRKNS_11__wrap_iterIT_EESC_
FN:1517,_ZNSt3__1neIPKN5Catch8TestCaseEEEbRKNS_11__wrap_iterIT_EES9_
FN:1517,_ZNSt3__1neIPN5Catch3PtrINS1_22CumulativeReporterBase11SectionNodeEEEEEbRKNS_11__wrap_iterIT_EESB_
FN:1517,_ZNSt3__1neIPKN5Catch5Clara11CommandLineINS1_10ConfigDataEE3ArgEEEbRKNS_11__wrap_iterIT_EESD_
FN:1517,_ZNSt3__1neIPKPN5Catch14IGeneratorInfoEEEbRKNS_11__wrap_iterIT_EESA_
FN:1517,_ZNSt3__1neIPKN5Catch3PtrINS1_22CumulativeReporterBase4NodeINS1_13TestCaseStatsENS3_11SectionNodeEEEEEEEbRKNS_11__wrap_iterIT_EESF_
FN:1517,_ZNSt3__1neIPN5Catch3PtrINS1_16TestCaseTracking8ITrackerEEEEEbRKNS_11__wrap_iterIT_EESB_
FN:1517,_ZNSt3__1neIPcEEbRKNS_11__wrap_iterIT_EES6_
FN:1517,_ZNSt3__1neIPKN5Catch3PtrINS1_18IStreamingReporterEEEEEbRKNS_11__wrap_iterIT_EESB_
FN:1517,_ZNSt3__1neIPKN5Catch14AssertionStatsEEEbRKNS_11__wrap_iterIT_EES9_
FN:1517,_ZNSt3__1neIPKN5Catch11SectionInfoEEEbRKNS_11__wrap_iterIT_EES9_
FN:1517,_ZNSt3__1neIPKN5Catch15ConsoleReporter13SummaryColumnEEEbRKNS_11__wrap_iterIT_EESA_
FN:1517,_ZNSt3__1neIPKN5Catch3PtrINS1_8TestSpec7PatternEEEEEbRKNS_11__wrap_iterIT_EESC_
FN:1517,_ZNSt3__1neIPN5Catch11MessageInfoEEEbRKNS_11__wrap_iterIT_EES8_
FN:1517,_ZNSt3__1neIPKN5Catch3PtrINS1_16IReporterFactoryEEEEEbRKNS_11__wrap_iterIT_EESB_
FN:1517,_ZNSt3__1neIPKN5Catch11MessageInfoEEEbRKNS_11__wrap_iterIT_EES9_
FN:1517,_ZNSt3__1neIPKN5Catch3PtrINS1_22CumulativeReporterBase11SectionNodeEEEEEbRKNS_11__wrap_iterIT_EESC_
FN:1517,_ZNSt3__1neIPKN5Catch8TestSpec6FilterEEEbRKNS_11__wrap_iterIT_EESA_
FN:1517,_ZNSt3__1neIPKNS_12basic_stringIcNS_11char_traitsIcEENS_9allocatorIcEEEEEEbRKNS_11__wrap_iterIT_EESD_
FN:1517,_ZNSt3__1neIPKcEEbRKNS_11__wrap_iterIT_EES7_
FN:1517,_ZNSt3__1neIPKPKN5Catch20IExceptionTranslatorEEEbRKNS_11__wrap_iterIT_EESB_
FN:1525,_ZNSt3__1gtIPKcEEbRKNS_11__wrap_iterIT_EES7_
FN:1563,_ZNSt3__1miIPKNS_12basic_stringIcNS_11char_traitsIcEENS_9allocatorIcEEEES8_EENS_11__wrap_iterIT_E15difference_typeERKSB_RKNS9_IT0_EE
FN:1563,_ZNSt3__1miIPKNS_12basic_stringIcNS_11char_traitsIcEENS_9allocatorIcEEEEPS6_EENS_11__wrap_iterIT_E15difference_typeERKSC_RKNSA_IT0_EE
FN:1563,_ZNSt3__1miIPKN5Catch11MessageInfoES4_EENS_11__wrap_iterIT_E15difference_typeERKS7_RKNS5_IT0_EE
FN:1563,_ZNSt3__1miIPN5Catch8TestCaseES3_EENS_11__wrap_iterIT_E15difference_typeERKS6_RKNS4_IT0_EE
FN:1563,_ZNSt3__1miIPKN5Catch11MessageInfoEPS2_EENS_11__wrap_iterIT_E15difference_typeERKS8_RKNS6_IT0_EE
FN:1563,_ZNSt3__1miIPKcS2_EENS_11__wrap_iterIT_E15difference_typeERKS5_RKNS3_IT0_EE
FNDA:0,_ZNSt3__19__advanceINS_21__tree_const_iteratorINS_12basic_stringIcNS_11char_traitsIcEENS_9allocatorIcEEEEPNS_11__tree_nodeIS7_PvEElEEEEvRT_NS_15iterator_traitsISD_E15difference_typeENS_26bidirectional_iterator_tagE
FNDA:0,_ZNSt3__19__advanceINS_11__wrap_iterIPKNS_12basic_stringIcNS_11char_traitsIcEENS_9allocatorIcEEEEEEEEvRT_NS_15iterator_traitsISB_E15difference_typeENS_26random_access_iterator_tagE
FNDA:0,_ZNSt3__19__advanceIPN5Catch3PtrINS1_8TestSpec7PatternEEEEEvRT_NS_15iterator_traitsIS7_E15difference_typeENS_26random_access_iterator_tagE
FNDA:0,_ZNSt3__19__advanceIPN5Catch8TestSpec6FilterEEEvRT_NS_15iterator_traitsIS5_E15difference_typeENS_26random_access_iterator_tagE
FNDA:0,_ZNSt3__19__advanceIPN5Catch5Clara6Parser5TokenEEEvRT_NS_15iterator_traitsIS6_E15difference_typeENS_26random_access_iterator_tagE
FNDA:0,_ZNSt3__19__advanceIPN5Catch8TestCaseEEEvRT_NS_15iterator_traitsIS4_E15difference_typeENS_26random_access_iterator_tagE
FNDA:0,_ZNSt3__17advanceINS_11__wrap_iterIPKNS_12basic_stringIcNS_11char_traitsIcEENS_9allocatorIcEEEEEEEEvRT_NS_15iterator_traitsISB_E15difference_typeE
FNDA:0,_ZNSt3__17advanceIPN5Catch3PtrINS1_8TestSpec7PatternEEEEEvRT_NS_15iterator_traitsIS7_E15difference_typeE
FNDA:0,_ZNSt3__17advanceIPN5Catch8TestSpec6FilterEEEvRT_NS_15iterator_traitsIS5_E15difference_typeE
FNDA:0,_ZNSt3__17advanceIPN5Catch5Clara6Parser5TokenEEEvRT_NS_15iterator_traitsIS6_E15difference_typeE
FNDA:0,_ZNSt3__17advanceIPN5Catch8TestCaseEEEvRT_NS_15iterator_traitsIS4_E15difference_typeE
FNDA:0,_ZNSt3__17advanceINS_21__tree_const_iteratorINS_12basic_stringIcNS_11char_traitsIcEENS_9allocatorIcEEEEPNS_11__tree_nodeIS7_PvEElEEEEvRT_NS_15iterator_traitsISD_E15difference_typeE
FNDA:0,_ZNSt3__110__distanceINS_11__wrap_iterIPKNS_12basic_stringIcNS_11char_traitsIcEENS_9allocatorIcEEEEEEEENS_15iterator_traitsIT_E15difference_typeESC_SC_NS_26random_access_iterator_tagE
FNDA:1,_ZNSt3__110__distanceIPN5Catch3PtrINS1_8TestSpec7PatternEEEEENS_15iterator_traitsIT_E15difference_typeES8_S8_NS_26random_access_iterator_tagE
FNDA:1,_ZNSt3__110__distanceIPN5Catch8TestSpec6FilterEEENS_15iterator_traitsIT_E15difference_typeES6_S6_NS_26random_access_iterator_tagE
FNDA:3,_ZNSt3__110__distanceIPN5Catch5Clara6Parser5TokenEEENS_15iterator_traitsIT_E15difference_typeES7_S7_NS_26random_access_iterator_tagE
FNDA:0,_ZNSt3__110__distanceINS_11__wrap_iterIPKcEEEENS_15iterator_traitsIT_E15difference_typeES6_S6_NS_26random_access_iterator_tagE
FNDA:1,_ZNSt3__110__distanceIPN5Catch8TestCaseEEENS_15iterator_traitsIT_E15difference_typeES5_S5_NS_26random_access_iterator_tagE
FNDA:0,_ZNSt3__110__distanceINS_11__wrap_iterIPKN5Catch11MessageInfoEEEEENS_15iterator_traitsIT_E15difference_typeES8_S8_NS_26random_access_iterator_tagE
FNDA:1,_ZNSt3__110__distanceIPcEENS_15iterator_traitsIT_E15difference_typeES3_S3_NS_26random_access_iterator_tagE
FNDA:0,_ZNSt3__18distanceINS_11__wrap_iterIPKNS_12basic_stringIcNS_11char_traitsIcEENS_9allocatorIcEEEEEEEENS_15iterator_traitsIT_E15difference_typeESC_SC_
FNDA:1,_ZNSt3__18distanceIPN5Catch3PtrINS1_8TestSpec7PatternEEEEENS_15iterator_traitsIT_E15difference_typeES8_S8_
FNDA:1,_ZNSt3__18distanceIPN5Catch8TestSpec6FilterEEENS_15iterator_traitsIT_E15difference_typeES6_S6_
FNDA:3,_ZNSt3__18distanceIPN5Catch5Clara6Parser5TokenEEENS_15iterator_traitsIT_E15difference_typeES7_S7_
FNDA:0,_ZNSt3__18distanceINS_11__wrap_iterIPKcEEEENS_15iterator_traitsIT_E15difference_typeES6_S6_
FNDA:1,_ZNSt3__18distanceIPN5Catch8TestCaseEEENS_15iterator_traitsIT_E15difference_typeES5_S5_
FNDA:0,_ZNSt3__18distanceINS_11__wrap_iterIPKN5Catch11MessageInfoEEEEENS_15iterator_traitsIT_E15difference_typeES8_S8_
FNDA:1,_ZNSt3__18distanceIPcEENS_15iterator_traitsIT_E15difference_typeES3_S3_
FNDA:0,_ZNSt3__14nextINS_21__tree_const_iteratorINS_12basic_stringIcNS_11char_traitsIcEENS_9allocatorIcEEEEPNS_11__tree_nodeIS7_PvEElEEEET_SD_NS_15iterator_traitsISD_E15difference_typeEPNS_9enable_ifIXsr19__is_input_iteratorISD_EE5valueEvE4typeE
FNDA:36,_ZNSt3__116reverse_iteratorINS_11__wrap_iterIPN5Catch14SectionEndInfoEEEEC1ES5_
FNDA:36,_ZNSt3__116reverse_iteratorINS_11__wrap_iterIPN5Catch14SectionEndInfoEEEEC2ES5_
FNDA:0,_ZNSt3__116reverse_iteratorINS_11__wrap_iterIPKcEEEC1ES4_
FNDA:0,_ZNSt3__116reverse_iteratorINS_11__wrap_iterIPKcEEEC2ES4_
FNDA:36,_ZNSt3__116reverse_iteratorINS_11__wrap_iterIPKN5Catch14SectionEndInfoEEEEC1INS1_IPS3_EEEERKNS0_IT_EE
FNDA:36,_ZNSt3__116reverse_iteratorINS_11__wrap_iterIPKN5Catch14SectionEndInfoEEEEC2INS1_IPS3_EEEERKNS0_IT_EE
FNDA:72,_ZNKSt3__116reverse_iteratorINS_11__wrap_iterIPN5Catch14SectionEndInfoEEEE4baseEv
FNDA:36,_ZNKSt3__116reverse_iteratorINS_11__wrap_iterIPKN5Catch14SectionEndInfoEEEE4baseEv
FNDA:0,_ZNKSt3__116reverse_iteratorINS_11__wrap_iterIPKcEEE4baseEv
FNDA:0,_ZNKSt3__116reverse_iteratorINS_11__wrap_iterIPKN5Catch14SectionEndInfoEEEEdeEv
FNDA:0,_ZNKSt3__116reverse_iteratorINS_11__wrap_iterIPKcEEEdeEv
FNDA:0,_ZNSt3__116reverse_iteratorINS_11__wrap_iterIPKN5Catch14SectionEndInfoEEEEppEv
FNDA:0,_ZNSt3__116reverse_iteratorINS_11__wrap_iterIPKcEEEppEv
FNDA:18,_ZNSt3__1neINS_11__wrap_iterIPKN5Catch14SectionEndInfoEEES6_EEbRKNS_16reverse_iteratorIT_EERKNS7_IT0_EE
FNDA:0,_ZNSt3__1neINS_11__wrap_iterIPKcEES4_EEbRKNS_16reverse_iteratorIT_EERKNS5_IT0_EE
FNDA:30,_ZNSt3__119ostreambuf_iteratorIcNS_11char_traitsIcEEEC1ERNS_13basic_ostreamIcS2_EE
FNDA:30,_ZNSt3__119ostreambuf_iteratorIcNS_11char_traitsIcEEEC2ERNS_13basic_ostreamIcS2_EE
FNDA:30,_ZNKSt3__119ostreambuf_iteratorIcNS_11char_traitsIcEEE6failedEv
FNDA:0,_ZNSt3__111__wrap_iterIPKN5Catch5Clara11CommandLineINS1_10ConfigDataEE3ArgEEC1Ev
FNDA:0,_ZNSt3__111__wrap_iterIPKN5Catch5Clara11CommandLineINS1_10ConfigDataEE3ArgEEC2Ev
FNDA:2,_ZNSt3__111__wrap_iterIPKNS_12basic_stringIcNS_11char_traitsIcEENS_9allocatorIcEEEEEC1IPS6_EERKNS0_IT_EEPNS_9enable_ifIXsr14is_convertibleISC_S8_EE5valueEvE4typeE
FNDA:2,_ZNSt3__111__wrap_iterIPKN5Catch3PtrINS1_16IReporterFactoryEEEEC1IPS4_EERKNS0_IT_EEPNS_9enable_ifIXsr14is_convertibleISA_S6_EE5valueEvE4typeE
FNDA:0,_ZNSt3__111__wrap_iterIPKN5Catch11MessageInfoEEC1IPS2_EERKNS0_IT_EEPNS_9enable_ifIXsr14is_convertibleIS8_S4_EE5valueEvE4typeE
FNDA:0,_ZNSt3__111__wrap_iterIPKN5Catch11MessageInfoEEC2IPS2_EERKNS0_IT_EEPNS_9enable_ifIXsr14is_convertibleIS8_S4_EE5valueEvE4typeE
FNDA:72,_ZNSt3__111__wrap_iterIPKN5Catch14SectionEndInfoEEC1IPS2_EERKNS0_IT_EEPNS_9enable_ifIXsr14is_convertibleIS8_S4_EE5valueEvE4typeE
FNDA:72,_ZNSt3__111__wrap_iterIPKN5Catch14SectionEndInfoEEC2IPS2_EERKNS0_IT_EEPNS_9enable_ifIXsr14is_convertibleIS8_S4_EE5valueEvE4typeE
FNDA:2,_ZNSt3__111__wrap_iterIPKPKN5Catch20IExceptionTranslatorEEC1IPS4_EERKNS0_IT_EEPNS_9enable_ifIXsr14is_convertibleISA_S6_EE5valueEvE4typeE
FNDA:2,_ZNSt3__111__wrap_iterIPKPKN5Catch20IExceptionTranslatorEEC2IPS4_EERKNS0_IT_EEPNS_9enable_ifIXsr14is_convertibleISA_S6_EE5valueEvE4typeE
FNDA:0,_ZNSt3__111__wrap_iterIPKPN5Catch14IGeneratorInfoEEC1IPS3_EERKNS0_IT_EEPNS_9enable_ifIXsr14is_convertibleIS9_S5_EE5valueEvE4typeE
FNDA:0,_ZNSt3__111__wrap_iterIPKPN5Catch14IGeneratorInfoEEC2IPS3_EERKNS0_IT_EEPNS_9enable_ifIXsr14is_convertibleIS9_S5_EE5valueEvE4typeE
FNDA:0,_ZNSt3__111__wrap_iterIPKN5Catch3PtrINS1_18IStreamingReporterEEEEC1IPS4_EERKNS0_IT_EEPNS_9enable_ifIXsr14is_convertibleISA_S6_EE5valueEvE4typeE
FNDA:0,_ZNSt3__111__wrap_iterIPKN5Catch3PtrINS1_18IStreamingReporterEEEEC2IPS4_EERKNS0_IT_EEPNS_9enable_ifIXsr14is_convertibleISA_S6_EE5valueEvE4typeE
FNDA:0,_ZNSt3__111__wrap_iterIPKN5Catch8TestCaseEEC1IPS2_EERKNS0_IT_EEPNS_9enable_ifIXsr14is_convertibleIS8_S4_EE5valueEvE4typeE
FNDA:0,_ZNSt3__111__wrap_iterIPKN5Catch8TestCaseEEC2IPS2_EERKNS0_IT_EEPNS_9enable_ifIXsr14is_convertibleIS8_S4_EE5valueEvE4typeE
FNDA:188,_ZNSt3__111__wrap_iterIPKN5Catch3PtrINS1_16TestCaseTracking8ITrackerEEEEC1IPS5_EERKNS0_IT_EEPNS_9enable_ifIXsr14is_convertibleISB_S7_EE5valueEvE4typeE
FNDA:188,_ZNSt3__111__wrap_iterIPKN5Catch3PtrINS1_16TestCaseTracking8ITrackerEEEEC2IPS5_EERKNS0_IT_EEPNS_9enable_ifIXsr14is_convertibleISB_S7_EE5valueEvE4typeE
FNDA:0,_ZNSt3__111__wrap_iterIPKN5Catch3PtrINS1_22CumulativeReporterBase11SectionNodeEEEEC1IPS5_EERKNS0_IT_EEPNS_9enable_ifIXsr14is_convertibleISB_S7_EE5valueEvE4typeE
FNDA:0,_ZNSt3__111__wrap_iterIPKN5Catch3PtrINS1_22CumulativeReporterBase11SectionNodeEEEEC2IPS5_EERKNS0_IT_EEPNS_9enable_ifIXsr14is_convertibleISB_S7_EE5valueEvE4typeE
FNDA:0,_ZNSt3__111__wrap_iterIPKN5Catch11SectionInfoEEC1IPS2_EERKNS0_IT_EEPNS_9enable_ifIXsr14is_convertibleIS8_S4_EE5valueEvE4typeE
FNDA:0,_ZNSt3__111__wrap_iterIPKN5Catch11SectionInfoEEC2IPS2_EERKNS0_IT_EEPNS_9enable_ifIXsr14is_convertibleIS8_S4_EE5valueEvE4typeE
FNDA:2,_ZNSt3__111__wrap_iterIPKNS_12basic_stringIcNS_11char_traitsIcEENS_9allocatorIcEEEEEC2IPS6_EERKNS0_IT_EEPNS_9enable_ifIXsr14is_convertibleISC_S8_EE5valueEvE4typeE
FNDA:2,_ZNSt3__111__wrap_iterIPKN5Catch3PtrINS1_16IReporterFactoryEEEEC2IPS4_EERKNS0_IT_EEPNS_9enable_ifIXsr14is_convertibleISA_S6_EE5valueEvE4typeE
FNDA:1,_ZNKSt3__111__wrap_iterIPKNS_12basic_stringIcNS_11char_traitsIcEENS_9allocatorIcEEEEEdeEv
FNDA:0,_ZNKSt3__111__wrap_iterIPKN5Catch3PtrINS1_16IReporterFactoryEEEEdeEv
FNDA:3,_ZNKSt3__111__wrap_iterIPKN5Catch8TestCaseEEdeEv
FNDA:0,_ZNKSt3__111__wrap_iterIPN5Catch11MessageInfoEEdeEv
FNDA:0,_ZNKSt3__111__wrap_iterIPKN5Catch14SectionEndInfoEEdeEv
FNDA:1,_ZNKSt3__111__wrap_iterIPKN5Catch3PtrINS1_8TestSpec7PatternEEEEdeEv
FNDA:0,_ZNKSt3__111__wrap_iterIPKPKN5Catch20IExceptionTranslatorEEdeEv
FNDA:0,_ZNKSt3__111__wrap_iterIPKPN5Catch14IGeneratorInfoEEdeEv
FNDA:0,_ZNKSt3__111__wrap_iterIPKN5Catch3PtrINS1_18IStreamingReporterEEEEdeEv
FNDA:0,_ZNKSt3__111__wrap_iterIPKN5Catch5Clara11CommandLineINS1_10ConfigDataEE3ArgEEdeEv
FNDA:2,_ZNKSt3__111__wrap_iterIPKcEdeEv
FNDA:381,_ZNKSt3__111__wrap_iterIPN5Catch3PtrINS1_16TestCaseTracking8ITrackerEEEEdeEv
FNDA:0,_ZNKSt3__111__wrap_iterIPN5Catch8TestCaseEEdeEv
FNDA:0,_ZNKSt3__111__wrap_iterIPKN5Catch3PtrINS1_22CumulativeReporterBase11SectionNodeEEEEdeEv
FNDA:0,_ZNKSt3__111__wrap_iterIPN5Catch3PtrINS1_22CumulativeReporterBase11SectionNodeEEEEdeEv
FNDA:0,_ZNKSt3__111__wrap_iterIPKN5Catch3PtrINS1_22CumulativeReporterBase4NodeINS1_13TestCaseStatsENS3_11SectionNodeEEEEEEdeEv
FNDA:0,_ZNKSt3__111__wrap_iterIPKN5Catch14AssertionStatsEEdeEv
FNDA:0,_ZNKSt3__111__wrap_iterIPNS_12basic_stringIcNS_11char_traitsIcEENS_9allocatorIcEEEEEdeEv
FNDA:2,_ZNKSt3__111__wrap_iterIPcEdeEv
FNDA:0,_ZNKSt3__111__wrap_iterIPKN5Catch8TestCaseEEptEv
FNDA:0,_ZNKSt3__111__wrap_iterIPKN5Catch11MessageInfoEEptEv
FNDA:1,_ZNKSt3__111__wrap_iterIPKN5Catch8TestSpec6FilterEEptEv
FNDA:27,_ZNKSt3__111__wrap_iterIPKN5Catch5Clara11CommandLineINS1_10ConfigDataEE3ArgEEptEv
FNDA:163,_ZNKSt3__111__wrap_iterIPKN5Catch3PtrINS1_16TestCaseTracking8ITrackerEEEEptEv
FNDA:0,_ZNKSt3__111__wrap_iterIPKN5Catch11SectionInfoEEptEv
FNDA:0,_ZNKSt3__111__wrap_iterIPNS_12basic_stringIcNS_11char_traitsIcEENS_9allocatorIcEEEEEptEv
FNDA:0,_ZNKSt3__111__wrap_iterIPKN5Catch15ConsoleReporter13SummaryColumnEEptEv
FNDA:1,_ZNSt3__111__wrap_iterIPKNS_12basic_stringIcNS_11char_traitsIcEENS_9allocatorIcEEEEEppEv
FNDA:0,_ZNSt3__111__wrap_iterIPKN5Catch3PtrINS1_16IReporterFactoryEEEEppEv
FNDA:2,_ZNSt3__111__wrap_iterIPKN5Catch8TestCaseEEppEv
FNDA:0,_ZNSt3__111__wrap_iterIPKN5Catch11MessageInfoEEppEv
FNDA:0,_ZNSt3__111__wrap_iterIPN5Catch11MessageInfoEEppEv
FNDA:0,_ZNSt3__111__wrap_iterIPKN5Catch8TestSpec6FilterEEppEv
FNDA:1,_ZNSt3__111__wrap_iterIPKN5Catch3PtrINS1_8TestSpec7PatternEEEEppEv
FNDA:0,_ZNSt3__111__wrap_iterIPKPKN5Catch20IExceptionTranslatorEEppEv
FNDA:0,_ZNSt3__111__wrap_iterIPKPN5Catch14IGeneratorInfoEEppEv
FNDA:0,_ZNSt3__111__wrap_iterIPKN5Catch3PtrINS1_18IStreamingReporterEEEEppEv
FNDA:27,_ZNSt3__111__wrap_iterIPKN5Catch5Clara11CommandLineINS1_10ConfigDataEE3ArgEEppEv
FNDA:0,_ZNSt3__111__wrap_iterIPKcEppEv
FNDA:218,_ZNSt3__111__wrap_iterIPN5Catch3PtrINS1_16TestCaseTracking8ITrackerEEEEppEv
FNDA:0,_ZNSt3__111__wrap_iterIPN5Catch8TestCaseEEppEv
FNDA:0,_ZNSt3__111__wrap_iterIPN5Catch3PtrINS1_22CumulativeReporterBase11SectionNodeEEEEppEv
FNDA:0,_ZNSt3__111__wrap_iterIPKN5Catch3PtrINS1_22CumulativeReporterBase4NodeINS1_13TestCaseStatsENS3_11SectionNodeEEEEEEppEv
FNDA:0,_ZNSt3__111__wrap_iterIPKN5Catch3PtrINS1_22CumulativeReporterBase11SectionNodeEEEEppEv
FNDA:0,_ZNSt3__111__wrap_iterIPKN5Catch14AssertionStatsEEppEv
FNDA:0,_ZNSt3__111__wrap_iterIPKN5Catch11SectionInfoEEppEv
FNDA:0,_ZNSt3__111__wrap_iterIPNS_12basic_stringIcNS_11char_traitsIcEENS_9allocatorIcEEEEEppEv
FNDA:0,_ZNSt3__111__wrap_iterIPKN5Catch15ConsoleReporter13SummaryColumnEEppEv
FNDA:2,_ZNSt3__111__wrap_iterIPcEppEv
FNDA:0,_ZNSt3__111__wrap_iterIPKN5Catch14SectionEndInfoEEmmEv
FNDA:0,_ZNSt3__111__wrap_iterIPKcEmmEv
FNDA:0,_ZNSt3__111__wrap_iterIPN5Catch8TestCaseEEmmEv
FNDA:0,_ZNKSt3__111__wrap_iterIPKPKN5Catch20IExceptionTranslatorEEplEl
FNDA:0,_ZNKSt3__111__wrap_iterIPKcEplEl
FNDA:0,_ZNKSt3__111__wrap_iterIPN5Catch8TestCaseEEplEl
FNDA:0,_ZNKSt3__111__wrap_iterIPN5Catch11SectionInfoEEplEl
FNDA:0,_ZNSt3__111__wrap_iterIPKNS_12basic_stringIcNS_11char_traitsIcEENS_9allocatorIcEEEEEpLEl
FNDA:0,_ZNSt3__111__wrap_iterIPKPKN5Catch20IExceptionTranslatorEEpLEl
FNDA:0,_ZNSt3__111__wrap_iterIPKcEpLEl
FNDA:0,_ZNSt3__111__wrap_iterIPN5Catch8TestCaseEEpLEl
FNDA:0,_ZNSt3__111__wrap_iterIPN5Catch11SectionInfoEEpLEl
FNDA:0,_ZNKSt3__111__wrap_iterIPKcEmiEl
FNDA:4,_ZNKSt3__111__wrap_iterIPKNS_12basic_stringIcNS_11char_traitsIcEENS_9allocatorIcEEEEE4baseEv
FNDA:2,_ZNKSt3__111__wrap_iterIPNS_12basic_stringIcNS_11char_traitsIcEENS_9allocatorIcEEEEE4baseEv
FNDA:0,_ZNKSt3__111__wrap_iterIPKN5Catch11MessageInfoEE4baseEv
FNDA:0,_ZNKSt3__111__wrap_iterIPN5Catch11MessageInfoEE4baseEv
FNDA:72,_ZNKSt3__111__wrap_iterIPN5Catch14SectionEndInfoEE4baseEv
FNDA:36,_ZNKSt3__111__wrap_iterIPKN5Catch14SectionEndInfoEE4baseEv
FNDA:2,_ZNKSt3__111__wrap_iterIPKN5Catch8TestSpec6FilterEE4baseEv
FNDA:4,_ZNKSt3__111__wrap_iterIPKN5Catch3PtrINS1_8TestSpec7PatternEEEE4baseEv
FNDA:2,_ZNKSt3__111__wrap_iterIPPKN5Catch20IExceptionTranslatorEE4baseEv
FNDA:2,_ZNKSt3__111__wrap_iterIPKPKN5Catch20IExceptionTranslatorEE4baseEv
FNDA:0,_ZNKSt3__111__wrap_iterIPPN5Catch14IGeneratorInfoEE4baseEv
FNDA:0,_ZNKSt3__111__wrap_iterIPKPN5Catch14IGeneratorInfoEE4baseEv
FNDA:0,_ZNKSt3__111__wrap_iterIPN5Catch3PtrINS1_18IStreamingReporterEEEE4baseEv
FNDA:0,_ZNKSt3__111__wrap_iterIPKN5Catch3PtrINS1_18IStreamingReporterEEEE4baseEv
FNDA:56,_ZNKSt3__111__wrap_iterIPKN5Catch5Clara11CommandLineINS1_10ConfigDataEE3ArgEE4baseEv
FNDA:2,_ZNKSt3__111__wrap_iterIPKcE4baseEv
FNDA:0,_ZNKSt3__111__wrap_iterIPN5Catch8TestCaseEE4baseEv
FNDA:1188,_ZNKSt3__111__wrap_iterIPN5Catch3PtrINS1_16TestCaseTracking8ITrackerEEEE4baseEv
FNDA:188,_ZNKSt3__111__wrap_iterIPKN5Catch3PtrINS1_16TestCaseTracking8ITrackerEEEE4baseEv
FNDA:0,_ZNKSt3__111__wrap_iterIPN5Catch3PtrINS1_22CumulativeReporterBase11SectionNodeEEEE4baseEv
FNDA:0,_ZNKSt3__111__wrap_iterIPKN5Catch3PtrINS1_22CumulativeReporterBase11SectionNodeEEEE4baseEv
FNDA:0,_ZNKSt3__111__wrap_iterIPKN5Catch3PtrINS1_22CumulativeReporterBase4NodeINS1_13TestCaseStatsENS3_11SectionNodeEEEEEE4baseEv
FNDA:0,_ZNKSt3__111__wrap_iterIPKN5Catch14AssertionStatsEE4baseEv
FNDA:0,_ZNKSt3__111__wrap_iterIPN5Catch11SectionInfoEE4baseEv
FNDA:0,_ZNKSt3__111__wrap_iterIPKN5Catch11SectionInfoEE4baseEv
FNDA:0,_ZNKSt3__111__wrap_iterIPKN5Catch15ConsoleReporter13SummaryColumnEE4baseEv
FNDA:4,_ZNKSt3__111__wrap_iterIPcE4baseEv
FNDA:8,_ZNKSt3__111__wrap_iterIPKN5Catch8TestCaseEE4baseEv
FNDA:2,_ZNKSt3__111__wrap_iterIPN5Catch3PtrINS1_16IReporterFactoryEEEE4baseEv
FNDA:2,_ZNKSt3__111__wrap_iterIPKN5Catch3PtrINS1_16IReporterFactoryEEEE4baseEv
FNDA:2,_ZNSt3__111__wrap_iterIPNS_12basic_stringIcNS_11char_traitsIcEENS_9allocatorIcEEEEEC1ES7_
FNDA:2,_ZNSt3__111__wrap_iterIPNS_12basic_stringIcNS_11char_traitsIcEENS_9allocatorIcEEEEEC2ES7_
FNDA:0,_ZNSt3__111__wrap_iterIPKNS_12basic_stringIcNS_11char_traitsIcEENS_9allocatorIcEEEEEC1ES8_
FNDA:0,_ZNSt3__111__wrap_iterIPKNS_12basic_stringIcNS_11char_traitsIcEENS_9allocatorIcEEEEEC2ES8_
FNDA:0,_ZNSt3__111__wrap_iterIPN5Catch11MessageInfoEEC1ES3_
FNDA:0,_ZNSt3__111__wrap_iterIPN5Catch11MessageInfoEEC2ES3_
FNDA:36,_ZNSt3__111__wrap_iterIPN5Catch14SectionEndInfoEEC1ES3_
FNDA:36,_ZNSt3__111__wrap_iterIPN5Catch14SectionEndInfoEEC2ES3_
FNDA:2,_ZNSt3__111__wrap_iterIPKN5Catch8TestSpec6FilterEEC1ES5_
FNDA:2,_ZNSt3__111__wrap_iterIPKN5Catch8TestSpec6FilterEEC2ES5_
FNDA:2,_ZNSt3__111__wrap_iterIPKN5Catch3PtrINS1_8TestSpec7PatternEEEEC1ES7_
FNDA:2,_ZNSt3__111__wrap_iterIPKN5Catch3PtrINS1_8TestSpec7PatternEEEEC2ES7_
FNDA:0,_ZNSt3__111__wrap_iterIPKPKN5Catch20IExceptionTranslatorEEC1ES6_
FNDA:0,_ZNSt3__111__wrap_iterIPKPKN5Catch20IExceptionTranslatorEEC2ES6_
FNDA:2,_ZNSt3__111__wrap_iterIPPKN5Catch20IExceptionTranslatorEEC1ES5_
FNDA:2,_ZNSt3__111__wrap_iterIPPKN5Catch20IExceptionTranslatorEEC2ES5_
FNDA:0,_ZNSt3__111__wrap_iterIPPN5Catch14IGeneratorInfoEEC1ES4_
FNDA:0,_ZNSt3__111__wrap_iterIPPN5Catch14IGeneratorInfoEEC2ES4_
FNDA:0,_ZNSt3__111__wrap_iterIPN5Catch3PtrINS1_18IStreamingReporterEEEEC1ES5_
FNDA:0,_ZNSt3__111__wrap_iterIPN5Catch3PtrINS1_18IStreamingReporterEEEEC2ES5_
FNDA:2,_ZNSt3__111__wrap_iterIPKN5Catch5Clara11CommandLineINS1_10ConfigDataEE3ArgEEC1ES8_
FNDA:2,_ZNSt3__111__wrap_iterIPKN5Catch5Clara11CommandLineINS1_10ConfigDataEE3ArgEEC2ES8_
FNDA:0,_ZNSt3__111__wrap_iterIPN5Catch8TestCaseEEC1ES3_
FNDA:0,_ZNSt3__111__wrap_iterIPN5Catch8TestCaseEEC2ES3_
FNDA:564,_ZNSt3__111__wrap_iterIPN5Catch3PtrINS1_16TestCaseTracking8ITrackerEEEEC1ES6_
FNDA:564,_ZNSt3__111__wrap_iterIPN5Catch3PtrINS1_16TestCaseTracking8ITrackerEEEEC2ES6_
FNDA:0,_ZNSt3__111__wrap_iterIPN5Catch3PtrINS1_22CumulativeReporterBase11SectionNodeEEEEC1ES6_
FNDA:0,_ZNSt3__111__wrap_iterIPN5Catch3PtrINS1_22CumulativeReporterBase11SectionNodeEEEEC2ES6_
FNDA:0,_ZNSt3__111__wrap_iterIPKN5Catch3PtrINS1_22CumulativeReporterBase4NodeINS1_13TestCaseStatsENS3_11SectionNodeEEEEEEC1ESA_
FNDA:0,_ZNSt3__111__wrap_iterIPKN5Catch3PtrINS1_22CumulativeReporterBase4NodeINS1_13TestCaseStatsENS3_11SectionNodeEEEEEEC2ESA_
FNDA:0,_ZNSt3__111__wrap_iterIPKN5Catch14AssertionStatsEEC1ES4_
FNDA:0,_ZNSt3__111__wrap_iterIPKN5Catch14AssertionStatsEEC2ES4_
FNDA:0,_ZNSt3__111__wrap_iterIPKN5Catch3PtrINS1_22CumulativeReporterBase11SectionNodeEEEEC1ES7_
FNDA:0,_ZNSt3__111__wrap_iterIPKN5Catch3PtrINS1_22CumulativeReporterBase11SectionNodeEEEEC2ES7_
FNDA:0,_ZNSt3__111__wrap_iterIPN5Catch11SectionInfoEEC1ES3_
FNDA:0,_ZNSt3__111__wrap_iterIPN5Catch11SectionInfoEEC2ES3_
FNDA:0,_ZNSt3__111__wrap_iterIPKN5Catch15ConsoleReporter13SummaryColumnEEC1ES5_
FNDA:0,_ZNSt3__111__wrap_iterIPKN5Catch15ConsoleReporter13SummaryColumnEEC2ES5_
FNDA:3,_ZNSt3__111__wrap_iterIPcEC1ES1_
FNDA:3,_ZNSt3__111__wrap_iterIPcEC2ES1_
FNDA:3,_ZNSt3__111__wrap_iterIPKcEC1ES2_
FNDA:3,_ZNSt3__111__wrap_iterIPKcEC2ES2_
FNDA:2,_ZNSt3__111__wrap_iterIPN5Catch3PtrINS1_16IReporterFactoryEEEEC1ES5_
FNDA:2,_ZNSt3__111__wrap_iterIPN5Catch3PtrINS1_16IReporterFactoryEEEEC2ES5_
FNDA:4,_ZNSt3__111__wrap_iterIPKN5Catch8TestCaseEEC1ES4_
FNDA:4,_ZNSt3__111__wrap_iterIPKN5Catch8TestCaseEEC2ES4_
FNDA:0,_ZNSt3__111__wrap_iterIPKN5Catch11MessageInfoEEC1ES4_
FNDA:0,_ZNSt3__111__wrap_iterIPKN5Catch11MessageInfoEEC2ES4_
FNDA:121,_ZNSt3__16vectorINS_12basic_stringIcNS_11char_traitsIcEENS_9allocatorIcEEEENS4_IS6_EEED1Ev
FNDA:2,_ZNSt3__16vectorIN5Catch3PtrINS1_16IReporterFactoryEEENS_9allocatorIS4_EEED1Ev
FNDA:1,_ZNSt3__16vectorIN5Catch11MessageInfoENS_9allocatorIS2_EEED1Ev
FNDA:0,_ZNSt3__16vectorIN5Catch14AssertionStatsENS_9allocatorIS2_EEED1Ev
FNDA:0,_ZNSt3__16vectorIN5Catch3PtrINS1_22CumulativeReporterBase11SectionNodeEEENS_9allocatorIS5_EEED1Ev
FNDA:0,_ZNSt3__16vectorIN5Catch3PtrINS1_22CumulativeReporterBase4NodeINS1_12TestRunStatsENS4_INS1_14TestGroupStatsENS4_INS1_13TestCaseStatsENS3_11SectionNodeEEEEEEEEENS_9allocatorISC_EEED1Ev
FNDA:0,_ZNSt3__16vectorIN5Catch3PtrINS1_22CumulativeReporterBase4NodeINS1_14TestGroupStatsENS4_INS1_13TestCaseStatsENS3_11SectionNodeEEEEEEENS_9allocatorISA_EEED1Ev
FNDA:0,_ZNSt3__16vectorIN5Catch3PtrINS1_22CumulativeReporterBase4NodeINS1_13TestCaseStatsENS3_11SectionNodeEEEEENS_9allocatorIS8_EEED1Ev
FNDA:0,_ZNSt3__16vectorINS0_IN5Catch3PtrINS1_22CumulativeReporterBase11SectionNodeEEENS_9allocatorIS5_EEEENS6_IS8_EEED1Ev
FNDA:1,_ZNSt3__16vectorIN5Catch11SectionInfoENS_9allocatorIS2_EEED1Ev
FNDA:26,_ZNSt3__16vectorIN5Catch3PtrINS1_16TestCaseTracking8ITrackerEEENS_9allocatorIS5_EEED1Ev
FNDA:121,_ZNSt3__16vectorINS_12basic_stringIcNS_11char_traitsIcEENS_9allocatorIcEEEENS4_IS6_EEED2Ev
FNDA:2,_ZNSt3__16vectorIN5Catch3PtrINS1_16IReporterFactoryEEENS_9allocatorIS4_EEED2Ev
FNDA:1,_ZNSt3__16vectorIPN5Catch16TestCaseTracking8ITrackerENS_9allocatorIS4_EEED1Ev
FNDA:1,_ZNSt3__16vectorIN5Catch14SectionEndInfoENS_9allocatorIS2_EEED1Ev
FNDA:1,_ZNSt3__16vectorIPN5Catch16TestCaseTracking8ITrackerENS_9allocatorIS4_EEED2Ev
FNDA:1,_ZNSt3__16vectorIN5Catch14SectionEndInfoENS_9allocatorIS2_EEED2Ev
FNDA:5,_ZNSt3__16vectorIN5Catch3PtrINS1_8TestSpec7PatternEEENS_9allocatorIS5_EEED1Ev
FNDA:5,_ZNSt3__16vectorIN5Catch3PtrINS1_8TestSpec7PatternEEENS_9allocatorIS5_EEED2Ev
FNDA:1,_ZNSt3__16vectorImNS_9allocatorImEEED1Ev
FNDA:1,_ZNSt3__16vectorImNS_9allocatorImEEED2Ev
FNDA:4,_ZNSt3__16vectorIN5Catch8TestSpec6FilterENS_9allocatorIS3_EEED1Ev
FNDA:4,_ZNSt3__16vectorIN5Catch8TestSpec6FilterENS_9allocatorIS3_EEED2Ev
FNDA:1,_ZNSt3__16vectorIPKN5Catch20IExceptionTranslatorENS_9allocatorIS4_EEED1Ev
FNDA:1,_ZNSt3__16vectorIPKN5Catch20IExceptionTranslatorENS_9allocatorIS4_EEED2Ev
FNDA:0,_ZNSt3__16vectorIPN5Catch14IGeneratorInfoENS_9allocatorIS3_EEED1Ev
FNDA:0,_ZNSt3__16vectorIPN5Catch14IGeneratorInfoENS_9allocatorIS3_EEED2Ev
FNDA:0,_ZNSt3__16vectorIPKN5Catch8Matchers4Impl11MatcherBaseINS_12basic_stringIcNS_11char_traitsIcEENS_9allocatorIcEEEESA_EENS8_ISD_EEED1Ev
FNDA:0,_ZNSt3__16vectorIPKN5Catch8Matchers4Impl11MatcherBaseINS_12basic_stringIcNS_11char_traitsIcEENS_9allocatorIcEEEESA_EENS8_ISD_EEED2Ev
FNDA:0,_ZNSt3__16vectorIN5Catch3PtrINS1_18IStreamingReporterEEENS_9allocatorIS4_EEED1Ev
FNDA:0,_ZNSt3__16vectorIN5Catch3PtrINS1_18IStreamingReporterEEENS_9allocatorIS4_EEED2Ev
FNDA:1,_ZNSt3__16vectorIN5Catch11MessageInfoENS_9allocatorIS2_EEED2Ev
FNDA:0,_ZNSt3__16vectorIN5Catch14AssertionStatsENS_9allocatorIS2_EEED2Ev
FNDA:0,_ZNSt3__16vectorIN5Catch3PtrINS1_22CumulativeReporterBase11SectionNodeEEENS_9allocatorIS5_EEED2Ev
FNDA:0,_ZNSt3__16vectorIN5Catch3PtrINS1_22CumulativeReporterBase4NodeINS1_12TestRunStatsENS4_INS1_14TestGroupStatsENS4_INS1_13TestCaseStatsENS3_11SectionNodeEEEEEEEEENS_9allocatorISC_EEED2Ev
FNDA:0,_ZNSt3__16vectorIN5Catch3PtrINS1_22CumulativeReporterBase4NodeINS1_14TestGroupStatsENS4_INS1_13TestCaseStatsENS3_11SectionNodeEEEEEEENS_9allocatorISA_EEED2Ev
FNDA:0,_ZNSt3__16vectorIN5Catch3PtrINS1_22CumulativeReporterBase4NodeINS1_13TestCaseStatsENS3_11SectionNodeEEEEENS_9allocatorIS8_EEED2Ev
FNDA:0,_ZNSt3__16vectorINS0_IN5Catch3PtrINS1_22CumulativeReporterBase11SectionNodeEEENS_9allocatorIS5_EEEENS6_IS8_EEED2Ev
FNDA:1,_ZNSt3__16vectorIN5Catch11SectionInfoENS_9allocatorIS2_EEED2Ev
FNDA:26,_ZNSt3__16vectorIN5Catch3PtrINS1_16TestCaseTracking8ITrackerEEENS_9allocatorIS5_EEED2Ev
FNDA:6,_ZNSt3__16vectorIN5Catch5Clara6Parser5TokenENS_9allocatorIS4_EEED1Ev
FNDA:1,_ZNSt3__16vectorIN5Catch5Clara11CommandLineINS1_10ConfigDataEE3ArgENS_9allocatorIS6_EEED1Ev
FNDA:1,_ZNSt3__16vectorIN5Catch5Clara11CommandLineINS1_10ConfigDataEE3ArgENS_9allocatorIS6_EEED2Ev
FNDA:6,_ZNSt3__16vectorIN5Catch5Clara6Parser5TokenENS_9allocatorIS4_EEED2Ev
FNDA:0,_ZNSt3__16vectorIN5Catch15ConsoleReporter13SummaryColumnENS_9allocatorIS3_EEED1Ev
FNDA:0,_ZNSt3__16vectorIN5Catch15ConsoleReporter13SummaryColumnENS_9allocatorIS3_EEED2Ev
FNDA:0,_ZNSt3__1eqIPN5Catch11MessageInfoES3_EEbRKNS_11__wrap_iterIT_EERKNS4_IT0_EE
FNDA:18,_ZNSt3__1eqIPKN5Catch14SectionEndInfoES4_EEbRKNS_11__wrap_iterIT_EERKNS5_IT0_EE
FNDA:1,_ZNSt3__1eqIPKN5Catch8TestSpec6FilterES5_EEbRKNS_11__wrap_iterIT_EERKNS6_IT0_EE
FNDA:2,_ZNSt3__1eqIPKN5Catch3PtrINS1_8TestSpec7PatternEEES7_EEbRKNS_11__wrap_iterIT_EERKNS8_IT0_EE
FNDA:1,_ZNSt3__1eqIPKPKN5Catch20IExceptionTranslatorES6_EEbRKNS_11__wrap_iterIT_EERKNS7_IT0_EE
FNDA:0,_ZNSt3__1eqIPKPN5Catch14IGeneratorInfoES5_EEbRKNS_11__wrap_iterIT_EERKNS6_IT0_EE
FNDA:0,_ZNSt3__1eqIPKN5Catch3PtrINS1_18IStreamingReporterEEES6_EEbRKNS_11__wrap_iterIT_EERKNS7_IT0_EE
FNDA:28,_ZNSt3__1eqIPKN5Catch5Clara11CommandLineINS1_10ConfigDataEE3ArgES8_EEbRKNS_11__wrap_iterIT_EERKNS9_IT0_EE
FNDA:0,_ZNSt3__1eqIPKNS_12basic_stringIcNS_11char_traitsIcEENS_9allocatorIcEEEEPS6_EEbRKNS_11__wrap_iterIT_EERKNSA_IT0_EE
FNDA:1,_ZNSt3__1eqIPKcS2_EEbRKNS_11__wrap_iterIT_EERKNS3_IT0_EE
FNDA:406,_ZNSt3__1eqIPN5Catch3PtrINS1_16TestCaseTracking8ITrackerEEES6_EEbRKNS_11__wrap_iterIT_EERKNS7_IT0_EE
FNDA:188,_ZNSt3__1eqIPKN5Catch3PtrINS1_16TestCaseTracking8ITrackerEEEPS5_EEbRKNS_11__wrap_iterIT_EERKNS9_IT0_EE
FNDA:0,_ZNSt3__1eqIPKN5Catch3PtrINS1_22CumulativeReporterBase11SectionNodeEEEPS5_EEbRKNS_11__wrap_iterIT_EERKNS9_IT0_EE
FNDA:0,_ZNSt3__1eqIPN5Catch3PtrINS1_22CumulativeReporterBase11SectionNodeEEES6_EEbRKNS_11__wrap_iterIT_EERKNS7_IT0_EE
FNDA:0,_ZNSt3__1eqIPKN5Catch3PtrINS1_22CumulativeReporterBase4NodeINS1_13TestCaseStatsENS3_11SectionNodeEEEEESA_EEbRKNS_11__wrap_iterIT_EERKNSB_IT0_EE
FNDA:0,_ZNSt3__1eqIPKN5Catch14AssertionStatsES4_EEbRKNS_11__wrap_iterIT_EERKNS5_IT0_EE
FNDA:0,_ZNSt3__1eqIPKN5Catch3PtrINS1_22CumulativeReporterBase11SectionNodeEEES7_EEbRKNS_11__wrap_iterIT_EERKNS8_IT0_EE
FNDA:0,_ZNSt3__1eqIPKN5Catch11SectionInfoES4_EEbRKNS_11__wrap_iterIT_EERKNS5_IT0_EE
FNDA:0,_ZNSt3__1eqIPNS_12basic_stringIcNS_11char_traitsIcEENS_9allocatorIcEEEES7_EEbRKNS_11__wrap_iterIT_EERKNS8_IT0_EE
FNDA:0,_ZNSt3__1eqIPKN5Catch15ConsoleReporter13SummaryColumnES5_EEbRKNS_11__wrap_iterIT_EERKNS6_IT0_EE
FNDA:0,_ZNSt3__1eqIPKN5Catch11MessageInfoEPS2_EEbRKNS_11__wrap_iterIT_EERKNS6_IT0_EE
FNDA:2,_ZNSt3__1eqIPKNS_12basic_stringIcNS_11char_traitsIcEENS_9allocatorIcEEEES8_EEbRKNS_11__wrap_iterIT_EERKNS9_IT0_EE
FNDA:2,_ZNSt3__1eqIPcS1_EEbRKNS_11__wrap_iterIT_EERKNS2_IT0_EE
FNDA:4,_ZNSt3__1eqIPKN5Catch8TestCaseES4_EEbRKNS_11__wrap_iterIT_EERKNS5_IT0_EE
FNDA:1,_ZNSt3__1eqIPKN5Catch3PtrINS1_16IReporterFactoryEEES6_EEbRKNS_11__wrap_iterIT_EERKNS7_IT0_EE
FNDA:0,_ZNSt3__1eqIPKN5Catch11MessageInfoES4_EEbRKNS_11__wrap_iterIT_EERKNS5_IT0_EE
FNDA:0,_ZNSt3__1ltIPKcS2_EEbRKNS_11__wrap_iterIT_EERKNS3_IT0_EE
FNDA:0,_ZNSt3__1ltIPN5Catch8TestCaseES3_EEbRKNS_11__wrap_iterIT_EERKNS4_IT0_EE
FNDA:0,_ZNSt3__1neIPKNS_12basic_stringIcNS_11char_traitsIcEENS_9allocatorIcEEEEPS6_EEbRKNS_11__wrap_iterIT_EERKNSA_IT0_EE
FNDA:188,_ZNSt3__1neIPKN5Catch3PtrINS1_16TestCaseTracking8ITrackerEEEPS5_EEbRKNS_11__wrap_iterIT_EERKNS9_IT0_EE
FNDA:0,_ZNSt3__1neIPKN5Catch11MessageInfoEPS2_EEbRKNS_11__wrap_iterIT_EERKNS6_IT0_EE
FNDA:2,_ZNSt3__1neIPKNS_12basic_stringIcNS_11char_traitsIcEENS_9allocatorIcEEEEEEbRKNS_11__wrap_iterIT_EESD_
FNDA:1,_ZNSt3__1neIPKN5Catch3PtrINS1_16IReporterFactoryEEEEEbRKNS_11__wrap_iterIT_EESB_
FNDA:4,_ZNSt3__1neIPKN5Catch8TestCaseEEEbRKNS_11__wrap_iterIT_EES9_
FNDA:0,_ZNSt3__1neIPKN5Catch11MessageInfoEEEbRKNS_11__wrap_iterIT_EES9_
FNDA:0,_ZNSt3__1neIPN5Catch11MessageInfoEEEbRKNS_11__wrap_iterIT_EES8_
FNDA:18,_ZNSt3__1neIPKN5Catch14SectionEndInfoEEEbRKNS_11__wrap_iterIT_EES9_
FNDA:1,_ZNSt3__1neIPKN5Catch8TestSpec6FilterEEEbRKNS_11__wrap_iterIT_EESA_
FNDA:2,_ZNSt3__1neIPKN5Catch3PtrINS1_8TestSpec7PatternEEEEEbRKNS_11__wrap_iterIT_EESC_
FNDA:1,_ZNSt3__1neIPKPKN5Catch20IExceptionTranslatorEEEbRKNS_11__wrap_iterIT_EESB_
FNDA:0,_ZNSt3__1neIPKPN5Catch14IGeneratorInfoEEEbRKNS_11__wrap_iterIT_EESA_
FNDA:0,_ZNSt3__1neIPKN5Catch3PtrINS1_18IStreamingReporterEEEEEbRKNS_11__wrap_iterIT_EESB_
FNDA:28,_ZNSt3__1neIPKN5Catch5Clara11CommandLineINS1_10ConfigDataEE3ArgEEEbRKNS_11__wrap_iterIT_EESD_
FNDA:1,_ZNSt3__1neIPKcEEbRKNS_11__wrap_iterIT_EES7_
FNDA:406,_ZNSt3__1neIPN5Catch3PtrINS1_16TestCaseTracking8ITrackerEEEEEbRKNS_11__wrap_iterIT_EESB_
FNDA:0,_ZNSt3__1neIPN5Catch3PtrINS1_22CumulativeReporterBase11SectionNodeEEEEEbRKNS_11__wrap_iterIT_EESB_
FNDA:0,_ZNSt3__1neIPKN5Catch3PtrINS1_22CumulativeReporterBase4NodeINS1_13TestCaseStatsENS3_11SectionNodeEEEEEEEbRKNS_11__wrap_iterIT_EESF_
FNDA:0,_ZNSt3__1neIPKN5Catch3PtrINS1_22CumulativeReporterBase11SectionNodeEEEEEbRKNS_11__wrap_iterIT_EESC_
FNDA:0,_ZNSt3__1neIPKN5Catch14AssertionStatsEEEbRKNS_11__wrap_iterIT_EES9_
FNDA:0,_ZNSt3__1neIPKN5Catch11SectionInfoEEEbRKNS_11__wrap_iterIT_EES9_
FNDA:0,_ZNSt3__1neIPNS_12basic_stringIcNS_11char_traitsIcEENS_9allocatorIcEEEEEEbRKNS_11__wrap_iterIT_EESC_
FNDA:0,_ZNSt3__1neIPKN5Catch15ConsoleReporter13SummaryColumnEEEbRKNS_11__wrap_iterIT_EESA_
FNDA:2,_ZNSt3__1neIPcEEbRKNS_11__wrap_iterIT_EES6_
FNDA:0,_ZNSt3__1gtIPKcEEbRKNS_11__wrap_iterIT_EES7_
FNDA:0,_ZNSt3__1miIPKNS_12basic_stringIcNS_11char_traitsIcEENS_9allocatorIcEEEEPS6_EENS_11__wrap_iterIT_E15difference_typeERKSC_RKNSA_IT0_EE
FNDA:0,_ZNSt3__1miIPKNS_12basic_stringIcNS_11char_traitsIcEENS_9allocatorIcEEEES8_EENS_11__wrap_iterIT_E15difference_typeERKSB_RKNS9_IT0_EE
FNDA:0,_ZNSt3__1miIPKN5Catch11MessageInfoEPS2_EENS_11__wrap_iterIT_E15difference_typeERKS8_RKNS6_IT0_EE
FNDA:0,_ZNSt3__1miIPKN5Catch11MessageInfoES4_EENS_11__wrap_iterIT_E15difference_typeERKS7_RKNS5_IT0_EE
FNDA:0,_ZNSt3__1miIPKcS2_EENS_11__wrap_iterIT_E15difference_typeERKS5_RKNS3_IT0_EE
FNDA:0,_ZNSt3__1miIPN5Catch8TestCaseES3_EENS_11__wrap_iterIT_E15difference_typeERKS6_RKNS4_IT0_EE
FNF:317
FNH:133
DA:545,0
DA:546,0
DA:547,0
DA:549,0
DA:550,0
DA:551,0
DA:558,0
DA:559,0
DA:566,0
DA:567,0
DA:585,7
DA:593,7
DA:603,0
DA:604,0
DA:639,72
DA:642,72
DA:648,108
DA:650,0
DA:654,0
DA:694,18
DA:1011,90
DA:1023,30
DA:1274,0
DA:1278,0
DA:1281,266
DA:1282,266
DA:1286,532
DA:1316,390
DA:1324,191
DA:1332,251
DA:1333,251
DA:1343,0
DA:1344,0
DA:1349,0
DA:1356,0
DA:1357,0
DA:1360,0
DA:1372,1574
DA:1381,1244
DA:1386,342
DA:1467,654
DA:1479,0
DA:1487,188
DA:1519,466
DA:1527,0
DA:1569,0
LF:46
LH:21
end_of_record
SF:/Library/Developer/CommandLineTools/usr/include/c++/v1/limits
FN:212,_ZNSt3__123__libcpp_numeric_limitsIiLb1EE3maxEv
FN:212,_ZNSt3__123__libcpp_numeric_limitsIlLb1EE3maxEv
FN:449,_ZNSt3__114numeric_limitsIlE3maxEv
FN:449,_ZNSt3__114numeric_limitsIiE3maxEv
FNDA:120,_ZNSt3__123__libcpp_numeric_limitsIlLb1EE3maxEv
FNDA:0,_ZNSt3__123__libcpp_numeric_limitsIiLb1EE3maxEv
FNDA:120,_ZNSt3__114numeric_limitsIlE3maxEv
FNDA:0,_ZNSt3__114numeric_limitsIiE3maxEv
FNF:4
FNH:2
DA:212,240
DA:449,240
LF:2
LH:2
end_of_record
SF:/Library/Developer/CommandLineTools/usr/include/c++/v1/locale
FN:1326,_ZNSt3__116__pad_and_outputIcNS_11char_traitsIcEEEENS_19ostreambuf_iteratorIT_T0_EES6_PKS4_S8_S8_RNS_8ios_baseES4_
FNDA:30,_ZNSt3__116__pad_and_outputIcNS_11char_traitsIcEEEENS_19ostreambuf_iteratorIT_T0_EES6_PKS4_S8_S8_RNS_8ios_baseES4_
FNF:1
FNH:1
DA:1330,30
DA:1331,0
DA:1332,30
DA:1333,30
DA:1334,30
DA:1335,0
DA:1337,30
DA:1338,30
DA:1339,30
DA:1341,0
DA:1343,0
DA:1344,0
DA:1346,0
DA:1347,30
DA:1349,0
DA:1350,0
DA:1352,0
DA:1353,0
DA:1355,0
DA:1356,30
DA:1357,30
DA:1359,28
DA:1361,0
DA:1362,0
DA:1364,28
DA:1365,30
DA:1366,30
DA:1367,30
LF:28
LH:15
end_of_record
SF:/Library/Developer/CommandLineTools/usr/include/c++/v1/map
FN:468,_ZNSt3__119__map_value_compareINS_12basic_stringIcNS_11char_traitsIcEENS_9allocatorIcEEEENS_12__value_typeIS6_PN5Catch18IGeneratorsForTestEEENS_4lessIS6_EELb1EEC2ESD_
FN:468,_ZNSt3__119__map_value_compareINS_12basic_stringIcNS_11char_traitsIcEENS_9allocatorIcEEEENS_12__value_typeIS6_N5Catch8TagAliasEEENS_4lessIS6_EELb1EEC1ESC_
FN:468,_ZNSt3__119__map_value_compareINS_12basic_stringIcNS_11char_traitsIcEENS_9allocatorIcEEEENS_12__value_typeIS6_PN5Catch14IGeneratorInfoEEENS_4lessIS6_EELb1EEC2ESD_
FN:468,_ZNSt3__119__map_value_compareINS_12basic_stringIcNS_11char_traitsIcEENS_9allocatorIcEEEENS_12__value_typeIS6_PN5Catch14IGeneratorInfoEEENS_4lessIS6_EELb1EEC1ESD_
FN:468,_ZNSt3__119__map_value_compareINS_12basic_stringIcNS_11char_traitsIcEENS_9allocatorIcEEEENS_12__value_typeIS6_PN5Catch18IGeneratorsForTestEEENS_4lessIS6_EELb1EEC1ESD_
FN:468,_ZNSt3__119__map_value_compareINS_12basic_stringIcNS_11char_traitsIcEENS_9allocatorIcEEEENS_12__value_typeIS6_N5Catch8TagAliasEEENS_4lessIS6_EELb1EEC2ESC_
FN:468,_ZNSt3__119__map_value_compareINS_12basic_stringIcNS_11char_traitsIcEENS_9allocatorIcEEEENS_12__value_typeIS6_N5Catch7TagInfoEEENS_4lessIS6_EELb1EEC1ESC_
FN:468,_ZNSt3__119__map_value_compareINS_12basic_stringIcNS_11char_traitsIcEENS_9allocatorIcEEEENS_12__value_typeIS6_N5Catch7TagInfoEEENS_4lessIS6_EELb1EEC2ESC_
FN:468,_ZNSt3__119__map_value_compareIiNS_12__value_typeIiN5Catch5Clara11CommandLineINS2_10ConfigDataEE3ArgEEENS_4lessIiEELb1EEC2ESA_
FN:468,_ZNSt3__119__map_value_compareIiNS_12__value_typeIiN5Catch5Clara11CommandLineINS2_10ConfigDataEE3ArgEEENS_4lessIiEELb1EEC1ESA_
FN:468,_ZNSt3__119__map_value_compareINS_12basic_stringIcNS_11char_traitsIcEENS_9allocatorIcEEEENS_12__value_typeIS6_N5Catch3PtrINS8_16IReporterFactoryEEEEENS_4lessIS6_EELb1EEC1ESE_
FN:468,_ZNSt3__119__map_value_compareINS_12basic_stringIcNS_11char_traitsIcEENS_9allocatorIcEEEENS_12__value_typeIS6_N5Catch3PtrINS8_16IReporterFactoryEEEEENS_4lessIS6_EELb1EEC2ESE_
FN:477,_ZNKSt3__119__map_value_compareINS_12basic_stringIcNS_11char_traitsIcEENS_9allocatorIcEEEENS_12__value_typeIS6_N5Catch8TagAliasEEENS_4lessIS6_EELb1EEclERKSA_RKS6_
FN:477,_ZNKSt3__119__map_value_compareINS_12basic_stringIcNS_11char_traitsIcEENS_9allocatorIcEEEENS_12__value_typeIS6_PN5Catch14IGeneratorInfoEEENS_4lessIS6_EELb1EEclERKSB_RKS6_
FN:477,_ZNKSt3__119__map_value_compareIiNS_12__value_typeIiN5Catch5Clara11CommandLineINS2_10ConfigDataEE3ArgEEENS_4lessIiEELb1EEclERKS8_RKi
FN:477,_ZNKSt3__119__map_value_compareINS_12basic_stringIcNS_11char_traitsIcEENS_9allocatorIcEEEENS_12__value_typeIS6_N5Catch7TagInfoEEENS_4lessIS6_EELb1EEclERKSA_RKS6_
FN:477,_ZNKSt3__119__map_value_compareINS_12basic_stringIcNS_11char_traitsIcEENS_9allocatorIcEEEENS_12__value_typeIS6_N5Catch3PtrINS8_16IReporterFactoryEEEEENS_4lessIS6_EELb1EEclERKSC_RKS6_
FN:477,_ZNKSt3__119__map_value_compareINS_12basic_stringIcNS_11char_traitsIcEENS_9allocatorIcEEEENS_12__value_typeIS6_PN5Catch18IGeneratorsForTestEEENS_4lessIS6_EELb1EEclERKSB_RKS6_
FN:480,_ZNKSt3__119__map_value_compareINS_12basic_stringIcNS_11char_traitsIcEENS_9allocatorIcEEEENS_12__value_typeIS6_PN5Catch18IGeneratorsForTestEEENS_4lessIS6_EELb1EEclERKS6_RKSB_
FN:480,_ZNKSt3__119__map_value_compareIiNS_12__value_typeIiN5Catch5Clara11CommandLineINS2_10ConfigDataEE3ArgEEENS_4lessIiEELb1EEclERKiRKS8_
FN:480,_ZNKSt3__119__map_value_compareINS_12basic_stringIcNS_11char_traitsIcEENS_9allocatorIcEEEENS_12__value_typeIS6_N5Catch7TagInfoEEENS_4lessIS6_EELb1EEclERKS6_RKSA_
FN:480,_ZNKSt3__119__map_value_compareINS_12basic_stringIcNS_11char_traitsIcEENS_9allocatorIcEEEENS_12__value_typeIS6_N5Catch8TagAliasEEENS_4lessIS6_EELb1EEclERKS6_RKSA_
FN:480,_ZNKSt3__119__map_value_compareINS_12basic_stringIcNS_11char_traitsIcEENS_9allocatorIcEEEENS_12__value_typeIS6_PN5Catch14IGeneratorInfoEEENS_4lessIS6_EELb1EEclERKS6_RKSB_
FN:480,_ZNKSt3__119__map_value_compareINS_12basic_stringIcNS_11char_traitsIcEENS_9allocatorIcEEEENS_12__value_typeIS6_N5Catch3PtrINS8_16IReporterFactoryEEEEENS_4lessIS6_EELb1EEclERKS6_RKSC_
FN:703,_ZNSt3__114__map_iteratorINS_15__tree_iteratorINS_12__value_typeINS_12basic_stringIcNS_11char_traitsIcEENS_9allocatorIcEEEEN5Catch3PtrINS9_16IReporterFactoryEEEEEPNS_11__tree_nodeISD_PvEElEEEC1ESI_
FN:703,_ZNSt3__114__map_iteratorINS_15__tree_iteratorINS_12__value_typeINS_12basic_stringIcNS_11char_traitsIcEENS_9allocatorIcEEEEN5Catch7TagInfoEEEPNS_11__tree_nodeISB_PvEElEEEC1ESG_
FN:703,_ZNSt3__114__map_iteratorINS_15__tree_iteratorINS_12__value_typeINS_12basic_stringIcNS_11char_traitsIcEENS_9allocatorIcEEEEPN5Catch18IGeneratorsForTestEEEPNS_11__tree_nodeISC_PvEElEEEC1ESH_
FN:703,_ZNSt3__114__map_iteratorINS_15__tree_iteratorINS_12__value_typeINS_12basic_stringIcNS_11char_traitsIcEENS_9allocatorIcEEEEPN5Catch14IGeneratorInfoEEEPNS_11__tree_nodeISC_PvEElEEEC1ESH_
FN:703,_ZNSt3__114__map_iteratorINS_15__tree_iteratorINS_12__value_typeINS_12basic_stringIcNS_11char_traitsIcEENS_9allocatorIcEEEEPN5Catch14IGeneratorInfoEEEPNS_11__tree_nodeISC_PvEElEEEC2ESH_
FN:703,_ZNSt3__114__map_iteratorINS_15__tree_iteratorINS_12__value_typeINS_12basic_stringIcNS_11char_traitsIcEENS_9allocatorIcEEEEN5Catch3PtrINS9_16IReporterFactoryEEEEEPNS_11__tree_nodeISD_PvEElEEEC2ESI_
FN:703,_ZNSt3__114__map_iteratorINS_15__tree_iteratorINS_12__value_typeINS_12basic_stringIcNS_11char_traitsIcEENS_9allocatorIcEEEEN5Catch8TagAliasEEEPNS_11__tree_nodeISB_PvEElEEEC2ESG_
FN:703,_ZNSt3__114__map_iteratorINS_15__tree_iteratorINS_12__value_typeINS_12basic_stringIcNS_11char_traitsIcEENS_9allocatorIcEEEEN5Catch7TagInfoEEEPNS_11__tree_nodeISB_PvEElEEEC2ESG_
FN:703,_ZNSt3__114__map_iteratorINS_15__tree_iteratorINS_12__value_typeINS_12basic_stringIcNS_11char_traitsIcEENS_9allocatorIcEEEEPN5Catch18IGeneratorsForTestEEEPNS_11__tree_nodeISC_PvEElEEEC2ESH_
FN:703,_ZNSt3__114__map_iteratorINS_15__tree_iteratorINS_12__value_typeINS_12basic_stringIcNS_11char_traitsIcEENS_9allocatorIcEEEEN5Catch8TagAliasEEEPNS_11__tree_nodeISB_PvEElEEEC1ESG_
FN:708,_ZNKSt3__114__map_iteratorINS_15__tree_iteratorINS_12__value_typeINS_12basic_stringIcNS_11char_traitsIcEENS_9allocatorIcEEEEN5Catch7TagInfoEEEPNS_11__tree_nodeISB_PvEElEEEptEv
FN:731,_ZNSt3__1eqERKNS_14__map_iteratorINS_15__tree_iteratorINS_12__value_typeINS_12basic_stringIcNS_11char_traitsIcEENS_9allocatorIcEEEEN5Catch7TagInfoEEEPNS_11__tree_nodeISB_PvEElEEEESJ_
FN:759,_ZNSt3__120__map_const_iteratorINS_21__tree_const_iteratorINS_12__value_typeINS_12basic_stringIcNS_11char_traitsIcEENS_9allocatorIcEEEEN5Catch3PtrINS9_16IReporterFactoryEEEEEPNS_11__tree_nodeISD_PvEElEEEC1Ev
FN:759,_ZNSt3__120__map_const_iteratorINS_21__tree_const_iteratorINS_12__value_typeINS_12basic_stringIcNS_11char_traitsIcEENS_9allocatorIcEEEEN5Catch3PtrINS9_16IReporterFactoryEEEEEPNS_11__tree_nodeISD_PvEElEEEC2Ev
FN:762,_ZNSt3__120__map_const_iteratorINS_21__tree_const_iteratorINS_12__value_typeINS_12basic_stringIcNS_11char_traitsIcEENS_9allocatorIcEEEEN5Catch8TagAliasEEEPNS_11__tree_nodeISB_PvEElEEEC2ESG_
FN:762,_ZNSt3__120__map_const_iteratorINS_21__tree_const_iteratorINS_12__value_typeINS_12basic_stringIcNS_11char_traitsIcEENS_9allocatorIcEEEEN5Catch3PtrINS9_16IReporterFactoryEEEEEPNS_11__tree_nodeISD_PvEElEEEC2ESI_
FN:762,_ZNSt3__120__map_const_iteratorINS_21__tree_const_iteratorINS_12__value_typeINS_12basic_stringIcNS_11char_traitsIcEENS_9allocatorIcEEEEN5Catch3PtrINS9_16IReporterFactoryEEEEEPNS_11__tree_nodeISD_PvEElEEEC1ESI_
FN:762,_ZNSt3__120__map_const_iteratorINS_21__tree_const_iteratorINS_12__value_typeINS_12basic_stringIcNS_11char_traitsIcEENS_9allocatorIcEEEEN5Catch8TagAliasEEEPNS_11__tree_nodeISB_PvEElEEEC1ESG_
FN:762,_ZNSt3__120__map_const_iteratorINS_21__tree_const_iteratorINS_12__value_typeIiN5Catch5Clara11CommandLineINS3_10ConfigDataEE3ArgEEEPNS_11__tree_nodeIS9_PvEElEEEC2ESE_
FN:762,_ZNSt3__120__map_const_iteratorINS_21__tree_const_iteratorINS_12__value_typeIiN5Catch5Clara11CommandLineINS3_10ConfigDataEE3ArgEEEPNS_11__tree_nodeIS9_PvEElEEEC1ESE_
FN:764,_ZNSt3__120__map_const_iteratorINS_21__tree_const_iteratorINS_12__value_typeINS_12basic_stringIcNS_11char_traitsIcEENS_9allocatorIcEEEEPN5Catch18IGeneratorsForTestEEEPNS_11__tree_nodeISC_PvEElEEEC2ENS_14__map_iteratorINS_15__tree_iteratorISC_SG_lEEEE
FN:764,_ZNSt3__120__map_const_iteratorINS_21__tree_const_iteratorINS_12__value_typeINS_12basic_stringIcNS_11char_traitsIcEENS_9allocatorIcEEEEPN5Catch14IGeneratorInfoEEEPNS_11__tree_nodeISC_PvEElEEEC2ENS_14__map_iteratorINS_15__tree_iteratorISC_SG_lEEEE
FN:764,_ZNSt3__120__map_const_iteratorINS_21__tree_const_iteratorINS_12__value_typeINS_12basic_stringIcNS_11char_traitsIcEENS_9allocatorIcEEEEPN5Catch18IGeneratorsForTestEEEPNS_11__tree_nodeISC_PvEElEEEC1ENS_14__map_iteratorINS_15__tree_iteratorISC_SG_lEEEE
FN:764,_ZNSt3__120__map_const_iteratorINS_21__tree_const_iteratorINS_12__value_typeINS_12basic_stringIcNS_11char_traitsIcEENS_9allocatorIcEEEEN5Catch7TagInfoEEEPNS_11__tree_nodeISB_PvEElEEEC1ENS_14__map_iteratorINS_15__tree_iteratorISB_SF_lEEEE
FN:764,_ZNSt3__120__map_const_iteratorINS_21__tree_const_iteratorINS_12__value_typeINS_12basic_stringIcNS_11char_traitsIcEENS_9allocatorIcEEEEPN5Catch14IGeneratorInfoEEEPNS_11__tree_nodeISC_PvEElEEEC1ENS_14__map_iteratorINS_15__tree_iteratorISC_SG_lEEEE
FN:764,_ZNSt3__120__map_const_iteratorINS_21__tree_const_iteratorINS_12__value_typeINS_12basic_stringIcNS_11char_traitsIcEENS_9allocatorIcEEEEN5Catch7TagInfoEEEPNS_11__tree_nodeISB_PvEElEEEC2ENS_14__map_iteratorINS_15__tree_iteratorISB_SF_lEEEE
FN:771,_ZNKSt3__120__map_const_iteratorINS_21__tree_const_iteratorINS_12__value_typeIiN5Catch5Clara11CommandLineINS3_10ConfigDataEE3ArgEEEPNS_11__tree_nodeIS9_PvEElEEEptEv
FN:771,_ZNKSt3__120__map_const_iteratorINS_21__tree_const_iteratorINS_12__value_typeINS_12basic_stringIcNS_11char_traitsIcEENS_9allocatorIcEEEEN5Catch3PtrINS9_16IReporterFactoryEEEEEPNS_11__tree_nodeISD_PvEElEEEptEv
FN:771,_ZNKSt3__120__map_const_iteratorINS_21__tree_const_iteratorINS_12__value_typeINS_12basic_stringIcNS_11char_traitsIcEENS_9allocatorIcEEEEN5Catch7TagInfoEEEPNS_11__tree_nodeISB_PvEElEEEptEv
FN:771,_ZNKSt3__120__map_const_iteratorINS_21__tree_const_iteratorINS_12__value_typeINS_12basic_stringIcNS_11char_traitsIcEENS_9allocatorIcEEEEPN5Catch18IGeneratorsForTestEEEPNS_11__tree_nodeISC_PvEElEEEptEv
FN:771,_ZNKSt3__120__map_const_iteratorINS_21__tree_const_iteratorINS_12__value_typeINS_12basic_stringIcNS_11char_traitsIcEENS_9allocatorIcEEEEN5Catch8TagAliasEEEPNS_11__tree_nodeISB_PvEElEEEptEv
FN:771,_ZNKSt3__120__map_const_iteratorINS_21__tree_const_iteratorINS_12__value_typeINS_12basic_stringIcNS_11char_traitsIcEENS_9allocatorIcEEEEPN5Catch14IGeneratorInfoEEEPNS_11__tree_nodeISC_PvEElEEEptEv
FN:774,_ZNSt3__120__map_const_iteratorINS_21__tree_const_iteratorINS_12__value_typeINS_12basic_stringIcNS_11char_traitsIcEENS_9allocatorIcEEEEPN5Catch18IGeneratorsForTestEEEPNS_11__tree_nodeISC_PvEElEEEppEv
FN:774,_ZNSt3__120__map_const_iteratorINS_21__tree_const_iteratorINS_12__value_typeINS_12basic_stringIcNS_11char_traitsIcEENS_9allocatorIcEEEEN5Catch3PtrINS9_16IReporterFactoryEEEEEPNS_11__tree_nodeISD_PvEElEEEppEv
FN:774,_ZNSt3__120__map_const_iteratorINS_21__tree_const_iteratorINS_12__value_typeINS_12basic_stringIcNS_11char_traitsIcEENS_9allocatorIcEEEEN5Catch7TagInfoEEEPNS_11__tree_nodeISB_PvEElEEEppEv
FN:774,_ZNSt3__120__map_const_iteratorINS_21__tree_const_iteratorINS_12__value_typeINS_12basic_stringIcNS_11char_traitsIcEENS_9allocatorIcEEEEN5Catch8TagAliasEEEPNS_11__tree_nodeISB_PvEElEEEppEv
FN:794,_ZNSt3__1eqERKNS_20__map_const_iteratorINS_21__tree_const_iteratorINS_12__value_typeINS_12basic_stringIcNS_11char_traitsIcEENS_9allocatorIcEEEEPN5Catch14IGeneratorInfoEEEPNS_11__tree_nodeISC_PvEElEEEESK_
FN:794,_ZNSt3__1eqERKNS_20__map_const_iteratorINS_21__tree_const_iteratorINS_12__value_typeINS_12basic_stringIcNS_11char_traitsIcEENS_9allocatorIcEEEEN5Catch3PtrINS9_16IReporterFactoryEEEEEPNS_11__tree_nodeISD_PvEElEEEESL_
FN:797,_ZNSt3__1neERKNS_20__map_const_iteratorINS_21__tree_const_iteratorINS_12__value_typeINS_12basic_stringIcNS_11char_traitsIcEENS_9allocatorIcEEEEN5Catch8TagAliasEEEPNS_11__tree_nodeISB_PvEElEEEESJ_
FN:797,_ZNSt3__1neERKNS_20__map_const_iteratorINS_21__tree_const_iteratorINS_12__value_typeIiN5Catch5Clara11CommandLineINS3_10ConfigDataEE3ArgEEEPNS_11__tree_nodeIS9_PvEElEEEESH_
FN:797,_ZNSt3__1neERKNS_20__map_const_iteratorINS_21__tree_const_iteratorINS_12__value_typeINS_12basic_stringIcNS_11char_traitsIcEENS_9allocatorIcEEEEPN5Catch18IGeneratorsForTestEEEPNS_11__tree_nodeISC_PvEElEEEESK_
FN:797,_ZNSt3__1neERKNS_20__map_const_iteratorINS_21__tree_const_iteratorINS_12__value_typeINS_12basic_stringIcNS_11char_traitsIcEENS_9allocatorIcEEEEN5Catch7TagInfoEEEPNS_11__tree_nodeISB_PvEElEEEESJ_
FN:797,_ZNSt3__1neERKNS_20__map_const_iteratorINS_21__tree_const_iteratorINS_12__value_typeINS_12basic_stringIcNS_11char_traitsIcEENS_9allocatorIcEEEEN5Catch3PtrINS9_16IReporterFactoryEEEEEPNS_11__tree_nodeISD_PvEElEEEESL_
FN:800,_ZNSt3__13mapINS_12basic_stringIcNS_11char_traitsIcEENS_9allocatorIcEEEEPN5Catch14IGeneratorInfoENS_4lessIS6_EENS4_INS_4pairIKS6_S9_EEEEED1Ev
FN:800,_ZNSt3__13mapINS_12basic_stringIcNS_11char_traitsIcEENS_9allocatorIcEEEEPN5Catch14IGeneratorInfoENS_4lessIS6_EENS4_INS_4pairIKS6_S9_EEEEED2Ev
FN:807,_ZNSt3__13mapIiN5Catch5Clara11CommandLineINS1_10ConfigDataEE3ArgENS_4lessIiEENS_9allocatorINS_4pairIKiS6_EEEEED1Ev
FN:807,_ZNSt3__13mapIiN5Catch5Clara11CommandLineINS1_10ConfigDataEE3ArgENS_4lessIiEENS_9allocatorINS_4pairIKiS6_EEEEED2Ev
FN:860,_ZNSt3__13mapINS_12basic_stringIcNS_11char_traitsIcEENS_9allocatorIcEEEEN5Catch3PtrINS7_16IReporterFactoryEEENS_4lessIS6_EENS4_INS_4pairIKS6_SA_EEEEEC2Ev
FN:860,_ZNSt3__13mapINS_12basic_stringIcNS_11char_traitsIcEENS_9allocatorIcEEEEN5Catch8TagAliasENS_4lessIS6_EENS4_INS_4pairIKS6_S8_EEEEEC2Ev
FN:860,_ZNSt3__13mapINS_12basic_stringIcNS_11char_traitsIcEENS_9allocatorIcEEEEN5Catch3PtrINS7_16IReporterFactoryEEENS_4lessIS6_EENS4_INS_4pairIKS6_SA_EEEEEC1Ev
FN:860,_ZNSt3__13mapINS_12basic_stringIcNS_11char_traitsIcEENS_9allocatorIcEEEEPN5Catch18IGeneratorsForTestENS_4lessIS6_EENS4_INS_4pairIKS6_S9_EEEEEC2Ev
FN:860,_ZNSt3__13mapINS_12basic_stringIcNS_11char_traitsIcEENS_9allocatorIcEEEEN5Catch8TagAliasENS_4lessIS6_EENS4_INS_4pairIKS6_S8_EEEEEC1Ev
FN:860,_ZNSt3__13mapINS_12basic_stringIcNS_11char_traitsIcEENS_9allocatorIcEEEEN5Catch7TagInfoENS_4lessIS6_EENS4_INS_4pairIKS6_S8_EEEEEC2Ev
FN:860,_ZNSt3__13mapINS_12basic_stringIcNS_11char_traitsIcEENS_9allocatorIcEEEEPN5Catch14IGeneratorInfoENS_4lessIS6_EENS4_INS_4pairIKS6_S9_EEEEEC2Ev
FN:860,_ZNSt3__13mapINS_12basic_stringIcNS_11char_traitsIcEENS_9allocatorIcEEEEPN5Catch18IGeneratorsForTestENS_4lessIS6_EENS4_INS_4pairIKS6_S9_EEEEEC1Ev
FN:860,_ZNSt3__13mapIiN5Catch5Clara11CommandLineINS1_10ConfigDataEE3ArgENS_4lessIiEENS_9allocatorINS_4pairIKiS6_EEEEEC1Ev
FN:860,_ZNSt3__13mapIiN5Catch5Clara11CommandLineINS1_10ConfigDataEE3ArgENS_4lessIiEENS_9allocatorINS_4pairIKiS6_EEEEEC2Ev
FN:860,_ZNSt3__13mapINS_12basic_stringIcNS_11char_traitsIcEENS_9allocatorIcEEEEN5Catch7TagInfoENS_4lessIS6_EENS4_INS_4pairIKS6_S8_EEEEEC1Ev
FN:860,_ZNSt3__13mapINS_12basic_stringIcNS_11char_traitsIcEENS_9allocatorIcEEEEPN5Catch14IGeneratorInfoENS_4lessIS6_EENS4_INS_4pairIKS6_S9_EEEEEC1Ev
FN:992,_ZNSt3__13mapINS_12basic_stringIcNS_11char_traitsIcEENS_9allocatorIcEEEEPN5Catch18IGeneratorsForTestENS_4lessIS6_EENS4_INS_4pairIKS6_S9_EEEEE5beginEv
FN:992,_ZNSt3__13mapINS_12basic_stringIcNS_11char_traitsIcEENS_9allocatorIcEEEEN5Catch7TagInfoENS_4lessIS6_EENS4_INS_4pairIKS6_S8_EEEEE5beginEv
FN:994,_ZNKSt3__13mapINS_12basic_stringIcNS_11char_traitsIcEENS_9allocatorIcEEEEN5Catch3PtrINS7_16IReporterFactoryEEENS_4lessIS6_EENS4_INS_4pairIKS6_SA_EEEEE5beginEv
FN:994,_ZNKSt3__13mapINS_12basic_stringIcNS_11char_traitsIcEENS_9allocatorIcEEEEN5Catch8TagAliasENS_4lessIS6_EENS4_INS_4pairIKS6_S8_EEEEE5beginEv
FN:996,_ZNSt3__13mapINS_12basic_stringIcNS_11char_traitsIcEENS_9allocatorIcEEEEN5Catch7TagInfoENS_4lessIS6_EENS4_INS_4pairIKS6_S8_EEEEE3endEv
FN:996,_ZNSt3__13mapINS_12basic_stringIcNS_11char_traitsIcEENS_9allocatorIcEEEEPN5Catch14IGeneratorInfoENS_4lessIS6_EENS4_INS_4pairIKS6_S9_EEEEE3endEv
FN:996,_ZNSt3__13mapINS_12basic_stringIcNS_11char_traitsIcEENS_9allocatorIcEEEEPN5Catch18IGeneratorsForTestENS_4lessIS6_EENS4_INS_4pairIKS6_S9_EEEEE3endEv
FN:998,_ZNKSt3__13mapINS_12basic_stringIcNS_11char_traitsIcEENS_9allocatorIcEEEEN5Catch3PtrINS7_16IReporterFactoryEEENS_4lessIS6_EENS4_INS_4pairIKS6_SA_EEEEE3endEv
FN:998,_ZNKSt3__13mapINS_12basic_stringIcNS_11char_traitsIcEENS_9allocatorIcEEEEN5Catch8TagAliasENS_4lessIS6_EENS4_INS_4pairIKS6_S8_EEEEE3endEv
FN:998,_ZNKSt3__13mapIiN5Catch5Clara11CommandLineINS1_10ConfigDataEE3ArgENS_4lessIiEENS_9allocatorINS_4pairIKiS6_EEEEE3endEv
FN:1022,_ZNKSt3__13mapIiN5Catch5Clara11CommandLineINS1_10ConfigDataEE3ArgENS_4lessIiEENS_9allocatorINS_4pairIKiS6_EEEEE5emptyEv
FN:1024,_ZNKSt3__13mapINS_12basic_stringIcNS_11char_traitsIcEENS_9allocatorIcEEEEN5Catch3PtrINS7_16IReporterFactoryEEENS_4lessIS6_EENS4_INS_4pairIKS6_SA_EEEEE4sizeEv
FN:1024,_ZNKSt3__13mapINS_12basic_stringIcNS_11char_traitsIcEENS_9allocatorIcEEEEN5Catch7TagInfoENS_4lessIS6_EENS4_INS_4pairIKS6_S8_EEEEE4sizeEv
FN:1072,_ZNSt3__13mapINS_12basic_stringIcNS_11char_traitsIcEENS_9allocatorIcEEEEN5Catch3PtrINS7_16IReporterFactoryEEENS_4lessIS6_EENS4_INS_4pairIKS6_SA_EEEEE6insertERKSF_
FN:1072,_ZNSt3__13mapINS_12basic_stringIcNS_11char_traitsIcEENS_9allocatorIcEEEEPN5Catch14IGeneratorInfoENS_4lessIS6_EENS4_INS_4pairIKS6_S9_EEEEE6insertERKSE_
FN:1072,_ZNSt3__13mapINS_12basic_stringIcNS_11char_traitsIcEENS_9allocatorIcEEEEN5Catch7TagInfoENS_4lessIS6_EENS4_INS_4pairIKS6_S8_EEEEE6insertERKSD_
FN:1072,_ZNSt3__13mapINS_12basic_stringIcNS_11char_traitsIcEENS_9allocatorIcEEEEPN5Catch18IGeneratorsForTestENS_4lessIS6_EENS4_INS_4pairIKS6_S9_EEEEE6insertERKSE_
FN:1072,_ZNSt3__13mapINS_12basic_stringIcNS_11char_traitsIcEENS_9allocatorIcEEEEN5Catch8TagAliasENS_4lessIS6_EENS4_INS_4pairIKS6_S8_EEEEE6insertERKSD_
FN:1220,_ZNSt3__13mapINS_12basic_stringIcNS_11char_traitsIcEENS_9allocatorIcEEEEPN5Catch14IGeneratorInfoENS_4lessIS6_EENS4_INS_4pairIKS6_S9_EEEEE4findERSD_
FN:1220,_ZNSt3__13mapINS_12basic_stringIcNS_11char_traitsIcEENS_9allocatorIcEEEEPN5Catch18IGeneratorsForTestENS_4lessIS6_EENS4_INS_4pairIKS6_S9_EEEEE4findERSD_
FN:1220,_ZNSt3__13mapINS_12basic_stringIcNS_11char_traitsIcEENS_9allocatorIcEEEEN5Catch7TagInfoENS_4lessIS6_EENS4_INS_4pairIKS6_S8_EEEEE4findERSC_
FN:1222,_ZNKSt3__13mapINS_12basic_stringIcNS_11char_traitsIcEENS_9allocatorIcEEEEN5Catch8TagAliasENS_4lessIS6_EENS4_INS_4pairIKS6_S8_EEEEE4findERSC_
FN:1222,_ZNKSt3__13mapINS_12basic_stringIcNS_11char_traitsIcEENS_9allocatorIcEEEEN5Catch3PtrINS7_16IReporterFactoryEEENS_4lessIS6_EENS4_INS_4pairIKS6_SA_EEEEE4findERSE_
FN:1222,_ZNKSt3__13mapIiN5Catch5Clara11CommandLineINS1_10ConfigDataEE3ArgENS_4lessIiEENS_9allocatorINS_4pairIKiS6_EEEEE4findERSB_
FNDA:1,_ZNSt3__119__map_value_compareINS_12basic_stringIcNS_11char_traitsIcEENS_9allocatorIcEEEENS_12__value_typeIS6_N5Catch3PtrINS8_16IReporterFactoryEEEEENS_4lessIS6_EELb1EEC1ESE_
FNDA:1,_ZNSt3__119__map_value_compareINS_12basic_stringIcNS_11char_traitsIcEENS_9allocatorIcEEEENS_12__value_typeIS6_N5Catch3PtrINS8_16IReporterFactoryEEEEENS_4lessIS6_EELb1EEC2ESE_
FNDA:1,_ZNSt3__119__map_value_compareINS_12basic_stringIcNS_11char_traitsIcEENS_9allocatorIcEEEENS_12__value_typeIS6_N5Catch8TagAliasEEENS_4lessIS6_EELb1EEC1ESC_
FNDA:1,_ZNSt3__119__map_value_compareINS_12basic_stringIcNS_11char_traitsIcEENS_9allocatorIcEEEENS_12__value_typeIS6_N5Catch8TagAliasEEENS_4lessIS6_EELb1EEC2ESC_
FNDA:1,_ZNSt3__119__map_value_compareINS_12basic_stringIcNS_11char_traitsIcEENS_9allocatorIcEEEENS_12__value_typeIS6_PN5Catch18IGeneratorsForTestEEENS_4lessIS6_EELb1EEC1ESD_
FNDA:1,_ZNSt3__119__map_value_compareINS_12basic_stringIcNS_11char_traitsIcEENS_9allocatorIcEEEENS_12__value_typeIS6_PN5Catch18IGeneratorsForTestEEENS_4lessIS6_EELb1EEC2ESD_
FNDA:0,_ZNSt3__119__map_value_compareINS_12basic_stringIcNS_11char_traitsIcEENS_9allocatorIcEEEENS_12__value_typeIS6_PN5Catch14IGeneratorInfoEEENS_4lessIS6_EELb1EEC1ESD_
FNDA:0,_ZNSt3__119__map_value_compareINS_12basic_stringIcNS_11char_traitsIcEENS_9allocatorIcEEEENS_12__value_typeIS6_PN5Catch14IGeneratorInfoEEENS_4lessIS6_EELb1EEC2ESD_
FNDA:1,_ZNSt3__119__map_value_compareIiNS_12__value_typeIiN5Catch5Clara11CommandLineINS2_10ConfigDataEE3ArgEEENS_4lessIiEELb1EEC1ESA_
FNDA:1,_ZNSt3__119__map_value_compareIiNS_12__value_typeIiN5Catch5Clara11CommandLineINS2_10ConfigDataEE3ArgEEENS_4lessIiEELb1EEC2ESA_
FNDA:0,_ZNSt3__119__map_value_compareINS_12basic_stringIcNS_11char_traitsIcEENS_9allocatorIcEEEENS_12__value_typeIS6_N5Catch7TagInfoEEENS_4lessIS6_EELb1EEC1ESC_
FNDA:0,_ZNSt3__119__map_value_compareINS_12basic_stringIcNS_11char_traitsIcEENS_9allocatorIcEEEENS_12__value_typeIS6_N5Catch7TagInfoEEENS_4lessIS6_EELb1EEC2ESC_
FNDA:3,_ZNKSt3__119__map_value_compareINS_12basic_stringIcNS_11char_traitsIcEENS_9allocatorIcEEEENS_12__value_typeIS6_N5Catch3PtrINS8_16IReporterFactoryEEEEENS_4lessIS6_EELb1EEclERKSC_RKS6_
FNDA:0,_ZNKSt3__119__map_value_compareINS_12basic_stringIcNS_11char_traitsIcEENS_9allocatorIcEEEENS_12__value_typeIS6_PN5Catch18IGeneratorsForTestEEENS_4lessIS6_EELb1EEclERKSB_RKS6_
FNDA:0,_ZNKSt3__119__map_value_compareINS_12basic_stringIcNS_11char_traitsIcEENS_9allocatorIcEEEENS_12__value_typeIS6_PN5Catch14IGeneratorInfoEEENS_4lessIS6_EELb1EEclERKSB_RKS6_
FNDA:0,_ZNKSt3__119__map_value_compareIiNS_12__value_typeIiN5Catch5Clara11CommandLineINS2_10ConfigDataEE3ArgEEENS_4lessIiEELb1EEclERKS8_RKi
FNDA:0,_ZNKSt3__119__map_value_compareINS_12basic_stringIcNS_11char_traitsIcEENS_9allocatorIcEEEENS_12__value_typeIS6_N5Catch7TagInfoEEENS_4lessIS6_EELb1EEclERKSA_RKS6_
FNDA:0,_ZNKSt3__119__map_value_compareINS_12basic_stringIcNS_11char_traitsIcEENS_9allocatorIcEEEENS_12__value_typeIS6_N5Catch8TagAliasEEENS_4lessIS6_EELb1EEclERKSA_RKS6_
FNDA:6,_ZNKSt3__119__map_value_compareINS_12basic_stringIcNS_11char_traitsIcEENS_9allocatorIcEEEENS_12__value_typeIS6_N5Catch3PtrINS8_16IReporterFactoryEEEEENS_4lessIS6_EELb1EEclERKS6_RKSC_
FNDA:0,_ZNKSt3__119__map_value_compareINS_12basic_stringIcNS_11char_traitsIcEENS_9allocatorIcEEEENS_12__value_typeIS6_PN5Catch18IGeneratorsForTestEEENS_4lessIS6_EELb1EEclERKS6_RKSB_
FNDA:0,_ZNKSt3__119__map_value_compareINS_12basic_stringIcNS_11char_traitsIcEENS_9allocatorIcEEEENS_12__value_typeIS6_PN5Catch14IGeneratorInfoEEENS_4lessIS6_EELb1EEclERKS6_RKSB_
FNDA:0,_ZNKSt3__119__map_value_compareIiNS_12__value_typeIiN5Catch5Clara11CommandLineINS2_10ConfigDataEE3ArgEEENS_4lessIiEELb1EEclERKiRKS8_
FNDA:0,_ZNKSt3__119__map_value_compareINS_12basic_stringIcNS_11char_traitsIcEENS_9allocatorIcEEEENS_12__value_typeIS6_N5Catch7TagInfoEEENS_4lessIS6_EELb1EEclERKS6_RKSA_
FNDA:0,_ZNKSt3__119__map_value_compareINS_12basic_stringIcNS_11char_traitsIcEENS_9allocatorIcEEEENS_12__value_typeIS6_N5Catch8TagAliasEEENS_4lessIS6_EELb1EEclERKS6_RKSA_
FNDA:4,_ZNSt3__114__map_iteratorINS_15__tree_iteratorINS_12__value_typeINS_12basic_stringIcNS_11char_traitsIcEENS_9allocatorIcEEEEN5Catch3PtrINS9_16IReporterFactoryEEEEEPNS_11__tree_nodeISD_PvEElEEEC1ESI_
FNDA:4,_ZNSt3__114__map_iteratorINS_15__tree_iteratorINS_12__value_typeINS_12basic_stringIcNS_11char_traitsIcEENS_9allocatorIcEEEEN5Catch3PtrINS9_16IReporterFactoryEEEEEPNS_11__tree_nodeISD_PvEElEEEC2ESI_
FNDA:4,_ZNSt3__114__map_iteratorINS_15__tree_iteratorINS_12__value_typeINS_12basic_stringIcNS_11char_traitsIcEENS_9allocatorIcEEEEPN5Catch18IGeneratorsForTestEEEPNS_11__tree_nodeISC_PvEElEEEC1ESH_
FNDA:4,_ZNSt3__114__map_iteratorINS_15__tree_iteratorINS_12__value_typeINS_12basic_stringIcNS_11char_traitsIcEENS_9allocatorIcEEEEPN5Catch18IGeneratorsForTestEEEPNS_11__tree_nodeISC_PvEElEEEC2ESH_
FNDA:0,_ZNSt3__114__map_iteratorINS_15__tree_iteratorINS_12__value_typeINS_12basic_stringIcNS_11char_traitsIcEENS_9allocatorIcEEEEPN5Catch14IGeneratorInfoEEEPNS_11__tree_nodeISC_PvEElEEEC1ESH_
FNDA:0,_ZNSt3__114__map_iteratorINS_15__tree_iteratorINS_12__value_typeINS_12basic_stringIcNS_11char_traitsIcEENS_9allocatorIcEEEEPN5Catch14IGeneratorInfoEEEPNS_11__tree_nodeISC_PvEElEEEC2ESH_
FNDA:0,_ZNSt3__114__map_iteratorINS_15__tree_iteratorINS_12__value_typeINS_12basic_stringIcNS_11char_traitsIcEENS_9allocatorIcEEEEN5Catch7TagInfoEEEPNS_11__tree_nodeISB_PvEElEEEC1ESG_
FNDA:0,_ZNSt3__114__map_iteratorINS_15__tree_iteratorINS_12__value_typeINS_12basic_stringIcNS_11char_traitsIcEENS_9allocatorIcEEEEN5Catch7TagInfoEEEPNS_11__tree_nodeISB_PvEElEEEC2ESG_
FNDA:0,_ZNSt3__114__map_iteratorINS_15__tree_iteratorINS_12__value_typeINS_12basic_stringIcNS_11char_traitsIcEENS_9allocatorIcEEEEN5Catch8TagAliasEEEPNS_11__tree_nodeISB_PvEElEEEC1ESG_
FNDA:0,_ZNSt3__114__map_iteratorINS_15__tree_iteratorINS_12__value_typeINS_12basic_stringIcNS_11char_traitsIcEENS_9allocatorIcEEEEN5Catch8TagAliasEEEPNS_11__tree_nodeISB_PvEElEEEC2ESG_
FNDA:0,_ZNKSt3__114__map_iteratorINS_15__tree_iteratorINS_12__value_typeINS_12basic_stringIcNS_11char_traitsIcEENS_9allocatorIcEEEEN5Catch7TagInfoEEEPNS_11__tree_nodeISB_PvEElEEEptEv
FNDA:0,_ZNSt3__1eqERKNS_14__map_iteratorINS_15__tree_iteratorINS_12__value_typeINS_12basic_stringIcNS_11char_traitsIcEENS_9allocatorIcEEEEN5Catch7TagInfoEEEPNS_11__tree_nodeISB_PvEElEEEESJ_
FNDA:0,_ZNSt3__120__map_const_iteratorINS_21__tree_const_iteratorINS_12__value_typeINS_12basic_stringIcNS_11char_traitsIcEENS_9allocatorIcEEEEN5Catch3PtrINS9_16IReporterFactoryEEEEEPNS_11__tree_nodeISD_PvEElEEEC1Ev
FNDA:0,_ZNSt3__120__map_const_iteratorINS_21__tree_const_iteratorINS_12__value_typeINS_12basic_stringIcNS_11char_traitsIcEENS_9allocatorIcEEEEN5Catch3PtrINS9_16IReporterFactoryEEEEEPNS_11__tree_nodeISD_PvEElEEEC2Ev
FNDA:2,_ZNSt3__120__map_const_iteratorINS_21__tree_const_iteratorINS_12__value_typeINS_12basic_stringIcNS_11char_traitsIcEENS_9allocatorIcEEEEN5Catch3PtrINS9_16IReporterFactoryEEEEEPNS_11__tree_nodeISD_PvEElEEEC1ESI_
FNDA:2,_ZNSt3__120__map_const_iteratorINS_21__tree_const_iteratorINS_12__value_typeINS_12basic_stringIcNS_11char_traitsIcEENS_9allocatorIcEEEEN5Catch3PtrINS9_16IReporterFactoryEEEEEPNS_11__tree_nodeISD_PvEElEEEC2ESI_
FNDA:0,_ZNSt3__120__map_const_iteratorINS_21__tree_const_iteratorINS_12__value_typeIiN5Catch5Clara11CommandLineINS3_10ConfigDataEE3ArgEEEPNS_11__tree_nodeIS9_PvEElEEEC1ESE_
FNDA:0,_ZNSt3__120__map_const_iteratorINS_21__tree_const_iteratorINS_12__value_typeIiN5Catch5Clara11CommandLineINS3_10ConfigDataEE3ArgEEEPNS_11__tree_nodeIS9_PvEElEEEC2ESE_
FNDA:2,_ZNSt3__120__map_const_iteratorINS_21__tree_const_iteratorINS_12__value_typeINS_12basic_stringIcNS_11char_traitsIcEENS_9allocatorIcEEEEN5Catch8TagAliasEEEPNS_11__tree_nodeISB_PvEElEEEC1ESG_
FNDA:2,_ZNSt3__120__map_const_iteratorINS_21__tree_const_iteratorINS_12__value_typeINS_12basic_stringIcNS_11char_traitsIcEENS_9allocatorIcEEEEN5Catch8TagAliasEEEPNS_11__tree_nodeISB_PvEElEEEC2ESG_
FNDA:4,_ZNSt3__120__map_const_iteratorINS_21__tree_const_iteratorINS_12__value_typeINS_12basic_stringIcNS_11char_traitsIcEENS_9allocatorIcEEEEPN5Catch18IGeneratorsForTestEEEPNS_11__tree_nodeISC_PvEElEEEC1ENS_14__map_iteratorINS_15__tree_iteratorISC_SG_lEEEE
FNDA:4,_ZNSt3__120__map_const_iteratorINS_21__tree_const_iteratorINS_12__value_typeINS_12basic_stringIcNS_11char_traitsIcEENS_9allocatorIcEEEEPN5Catch18IGeneratorsForTestEEEPNS_11__tree_nodeISC_PvEElEEEC2ENS_14__map_iteratorINS_15__tree_iteratorISC_SG_lEEEE
FNDA:0,_ZNSt3__120__map_const_iteratorINS_21__tree_const_iteratorINS_12__value_typeINS_12basic_stringIcNS_11char_traitsIcEENS_9allocatorIcEEEEPN5Catch14IGeneratorInfoEEEPNS_11__tree_nodeISC_PvEElEEEC1ENS_14__map_iteratorINS_15__tree_iteratorISC_SG_lEEEE
FNDA:0,_ZNSt3__120__map_const_iteratorINS_21__tree_const_iteratorINS_12__value_typeINS_12basic_stringIcNS_11char_traitsIcEENS_9allocatorIcEEEEPN5Catch14IGeneratorInfoEEEPNS_11__tree_nodeISC_PvEElEEEC2ENS_14__map_iteratorINS_15__tree_iteratorISC_SG_lEEEE
FNDA:0,_ZNSt3__120__map_const_iteratorINS_21__tree_const_iteratorINS_12__value_typeINS_12basic_stringIcNS_11char_traitsIcEENS_9allocatorIcEEEEN5Catch7TagInfoEEEPNS_11__tree_nodeISB_PvEElEEEC1ENS_14__map_iteratorINS_15__tree_iteratorISB_SF_lEEEE
FNDA:0,_ZNSt3__120__map_const_iteratorINS_21__tree_const_iteratorINS_12__value_typeINS_12basic_stringIcNS_11char_traitsIcEENS_9allocatorIcEEEEN5Catch7TagInfoEEEPNS_11__tree_nodeISB_PvEElEEEC2ENS_14__map_iteratorINS_15__tree_iteratorISB_SF_lEEEE
FNDA:0,_ZNKSt3__120__map_const_iteratorINS_21__tree_const_iteratorINS_12__value_typeINS_12basic_stringIcNS_11char_traitsIcEENS_9allocatorIcEEEEN5Catch8TagAliasEEEPNS_11__tree_nodeISB_PvEElEEEptEv
FNDA:1,_ZNKSt3__120__map_const_iteratorINS_21__tree_const_iteratorINS_12__value_typeINS_12basic_stringIcNS_11char_traitsIcEENS_9allocatorIcEEEEN5Catch3PtrINS9_16IReporterFactoryEEEEEPNS_11__tree_nodeISD_PvEElEEEptEv
FNDA:0,_ZNKSt3__120__map_const_iteratorINS_21__tree_const_iteratorINS_12__value_typeINS_12basic_stringIcNS_11char_traitsIcEENS_9allocatorIcEEEEPN5Catch18IGeneratorsForTestEEEPNS_11__tree_nodeISC_PvEElEEEptEv
FNDA:0,_ZNKSt3__120__map_const_iteratorINS_21__tree_const_iteratorINS_12__value_typeINS_12basic_stringIcNS_11char_traitsIcEENS_9allocatorIcEEEEPN5Catch14IGeneratorInfoEEEPNS_11__tree_nodeISC_PvEElEEEptEv
FNDA:0,_ZNKSt3__120__map_const_iteratorINS_21__tree_const_iteratorINS_12__value_typeIiN5Catch5Clara11CommandLineINS3_10ConfigDataEE3ArgEEEPNS_11__tree_nodeIS9_PvEElEEEptEv
FNDA:0,_ZNKSt3__120__map_const_iteratorINS_21__tree_const_iteratorINS_12__value_typeINS_12basic_stringIcNS_11char_traitsIcEENS_9allocatorIcEEEEN5Catch7TagInfoEEEPNS_11__tree_nodeISB_PvEElEEEptEv
FNDA:0,_ZNSt3__120__map_const_iteratorINS_21__tree_const_iteratorINS_12__value_typeINS_12basic_stringIcNS_11char_traitsIcEENS_9allocatorIcEEEEN5Catch8TagAliasEEEPNS_11__tree_nodeISB_PvEElEEEppEv
FNDA:0,_ZNSt3__120__map_const_iteratorINS_21__tree_const_iteratorINS_12__value_typeINS_12basic_stringIcNS_11char_traitsIcEENS_9allocatorIcEEEEPN5Catch18IGeneratorsForTestEEEPNS_11__tree_nodeISC_PvEElEEEppEv
FNDA:0,_ZNSt3__120__map_const_iteratorINS_21__tree_const_iteratorINS_12__value_typeINS_12basic_stringIcNS_11char_traitsIcEENS_9allocatorIcEEEEN5Catch7TagInfoEEEPNS_11__tree_nodeISB_PvEElEEEppEv
FNDA:0,_ZNSt3__120__map_const_iteratorINS_21__tree_const_iteratorINS_12__value_typeINS_12basic_stringIcNS_11char_traitsIcEENS_9allocatorIcEEEEN5Catch3PtrINS9_16IReporterFactoryEEEEEPNS_11__tree_nodeISD_PvEElEEEppEv
FNDA:1,_ZNSt3__1eqERKNS_20__map_const_iteratorINS_21__tree_const_iteratorINS_12__value_typeINS_12basic_stringIcNS_11char_traitsIcEENS_9allocatorIcEEEEN5Catch3PtrINS9_16IReporterFactoryEEEEEPNS_11__tree_nodeISD_PvEElEEEESL_
FNDA:0,_ZNSt3__1eqERKNS_20__map_const_iteratorINS_21__tree_const_iteratorINS_12__value_typeINS_12basic_stringIcNS_11char_traitsIcEENS_9allocatorIcEEEEPN5Catch14IGeneratorInfoEEEPNS_11__tree_nodeISC_PvEElEEEESK_
FNDA:1,_ZNSt3__1neERKNS_20__map_const_iteratorINS_21__tree_const_iteratorINS_12__value_typeINS_12basic_stringIcNS_11char_traitsIcEENS_9allocatorIcEEEEN5Catch8TagAliasEEEPNS_11__tree_nodeISB_PvEElEEEESJ_
FNDA:2,_ZNSt3__1neERKNS_20__map_const_iteratorINS_21__tree_const_iteratorINS_12__value_typeINS_12basic_stringIcNS_11char_traitsIcEENS_9allocatorIcEEEEPN5Catch18IGeneratorsForTestEEEPNS_11__tree_nodeISC_PvEElEEEESK_
FNDA:0,_ZNSt3__1neERKNS_20__map_const_iteratorINS_21__tree_const_iteratorINS_12__value_typeIiN5Catch5Clara11CommandLineINS3_10ConfigDataEE3ArgEEEPNS_11__tree_nodeIS9_PvEElEEEESH_
FNDA:0,_ZNSt3__1neERKNS_20__map_const_iteratorINS_21__tree_const_iteratorINS_12__value_typeINS_12basic_stringIcNS_11char_traitsIcEENS_9allocatorIcEEEEN5Catch7TagInfoEEEPNS_11__tree_nodeISB_PvEElEEEESJ_
FNDA:0,_ZNSt3__1neERKNS_20__map_const_iteratorINS_21__tree_const_iteratorINS_12__value_typeINS_12basic_stringIcNS_11char_traitsIcEENS_9allocatorIcEEEEN5Catch3PtrINS9_16IReporterFactoryEEEEEPNS_11__tree_nodeISD_PvEElEEEESL_
FNDA:0,_ZNSt3__13mapINS_12basic_stringIcNS_11char_traitsIcEENS_9allocatorIcEEEEPN5Catch14IGeneratorInfoENS_4lessIS6_EENS4_INS_4pairIKS6_S9_EEEEED1Ev
FNDA:0,_ZNSt3__13mapINS_12basic_stringIcNS_11char_traitsIcEENS_9allocatorIcEEEEPN5Catch14IGeneratorInfoENS_4lessIS6_EENS4_INS_4pairIKS6_S9_EEEEED2Ev
FNDA:1,_ZNSt3__13mapIiN5Catch5Clara11CommandLineINS1_10ConfigDataEE3ArgENS_4lessIiEENS_9allocatorINS_4pairIKiS6_EEEEED1Ev
FNDA:1,_ZNSt3__13mapIiN5Catch5Clara11CommandLineINS1_10ConfigDataEE3ArgENS_4lessIiEENS_9allocatorINS_4pairIKiS6_EEEEED2Ev
FNDA:1,_ZNSt3__13mapINS_12basic_stringIcNS_11char_traitsIcEENS_9allocatorIcEEEEN5Catch3PtrINS7_16IReporterFactoryEEENS_4lessIS6_EENS4_INS_4pairIKS6_SA_EEEEEC1Ev
FNDA:1,_ZNSt3__13mapINS_12basic_stringIcNS_11char_traitsIcEENS_9allocatorIcEEEEN5Catch3PtrINS7_16IReporterFactoryEEENS_4lessIS6_EENS4_INS_4pairIKS6_SA_EEEEEC2Ev
FNDA:1,_ZNSt3__13mapINS_12basic_stringIcNS_11char_traitsIcEENS_9allocatorIcEEEEN5Catch8TagAliasENS_4lessIS6_EENS4_INS_4pairIKS6_S8_EEEEEC1Ev
FNDA:1,_ZNSt3__13mapINS_12basic_stringIcNS_11char_traitsIcEENS_9allocatorIcEEEEN5Catch8TagAliasENS_4lessIS6_EENS4_INS_4pairIKS6_S8_EEEEEC2Ev
FNDA:1,_ZNSt3__13mapINS_12basic_stringIcNS_11char_traitsIcEENS_9allocatorIcEEEEPN5Catch18IGeneratorsForTestENS_4lessIS6_EENS4_INS_4pairIKS6_S9_EEEEEC1Ev
FNDA:1,_ZNSt3__13mapINS_12basic_stringIcNS_11char_traitsIcEENS_9allocatorIcEEEEPN5Catch18IGeneratorsForTestENS_4lessIS6_EENS4_INS_4pairIKS6_S9_EEEEEC2Ev
FNDA:0,_ZNSt3__13mapINS_12basic_stringIcNS_11char_traitsIcEENS_9allocatorIcEEEEPN5Catch14IGeneratorInfoENS_4lessIS6_EENS4_INS_4pairIKS6_S9_EEEEEC1Ev
FNDA:0,_ZNSt3__13mapINS_12basic_stringIcNS_11char_traitsIcEENS_9allocatorIcEEEEPN5Catch14IGeneratorInfoENS_4lessIS6_EENS4_INS_4pairIKS6_S9_EEEEEC2Ev
FNDA:1,_ZNSt3__13mapIiN5Catch5Clara11CommandLineINS1_10ConfigDataEE3ArgENS_4lessIiEENS_9allocatorINS_4pairIKiS6_EEEEEC1Ev
FNDA:1,_ZNSt3__13mapIiN5Catch5Clara11CommandLineINS1_10ConfigDataEE3ArgENS_4lessIiEENS_9allocatorINS_4pairIKiS6_EEEEEC2Ev
FNDA:0,_ZNSt3__13mapINS_12basic_stringIcNS_11char_traitsIcEENS_9allocatorIcEEEEN5Catch7TagInfoENS_4lessIS6_EENS4_INS_4pairIKS6_S8_EEEEEC1Ev
FNDA:0,_ZNSt3__13mapINS_12basic_stringIcNS_11char_traitsIcEENS_9allocatorIcEEEEN5Catch7TagInfoENS_4lessIS6_EENS4_INS_4pairIKS6_S8_EEEEEC2Ev
FNDA:1,_ZNSt3__13mapINS_12basic_stringIcNS_11char_traitsIcEENS_9allocatorIcEEEEPN5Catch18IGeneratorsForTestENS_4lessIS6_EENS4_INS_4pairIKS6_S9_EEEEE5beginEv
FNDA:0,_ZNSt3__13mapINS_12basic_stringIcNS_11char_traitsIcEENS_9allocatorIcEEEEN5Catch7TagInfoENS_4lessIS6_EENS4_INS_4pairIKS6_S8_EEEEE5beginEv
FNDA:1,_ZNKSt3__13mapINS_12basic_stringIcNS_11char_traitsIcEENS_9allocatorIcEEEEN5Catch8TagAliasENS_4lessIS6_EENS4_INS_4pairIKS6_S8_EEEEE5beginEv
FNDA:0,_ZNKSt3__13mapINS_12basic_stringIcNS_11char_traitsIcEENS_9allocatorIcEEEEN5Catch3PtrINS7_16IReporterFactoryEEENS_4lessIS6_EENS4_INS_4pairIKS6_SA_EEEEE5beginEv
FNDA:2,_ZNSt3__13mapINS_12basic_stringIcNS_11char_traitsIcEENS_9allocatorIcEEEEPN5Catch18IGeneratorsForTestENS_4lessIS6_EENS4_INS_4pairIKS6_S9_EEEEE3endEv
FNDA:0,_ZNSt3__13mapINS_12basic_stringIcNS_11char_traitsIcEENS_9allocatorIcEEEEPN5Catch14IGeneratorInfoENS_4lessIS6_EENS4_INS_4pairIKS6_S9_EEEEE3endEv
FNDA:0,_ZNSt3__13mapINS_12basic_stringIcNS_11char_traitsIcEENS_9allocatorIcEEEEN5Catch7TagInfoENS_4lessIS6_EENS4_INS_4pairIKS6_S8_EEEEE3endEv
FNDA:1,_ZNKSt3__13mapINS_12basic_stringIcNS_11char_traitsIcEENS_9allocatorIcEEEEN5Catch8TagAliasENS_4lessIS6_EENS4_INS_4pairIKS6_S8_EEEEE3endEv
FNDA:1,_ZNKSt3__13mapINS_12basic_stringIcNS_11char_traitsIcEENS_9allocatorIcEEEEN5Catch3PtrINS7_16IReporterFactoryEEENS_4lessIS6_EENS4_INS_4pairIKS6_SA_EEEEE3endEv
FNDA:0,_ZNKSt3__13mapIiN5Catch5Clara11CommandLineINS1_10ConfigDataEE3ArgENS_4lessIiEENS_9allocatorINS_4pairIKiS6_EEEEE3endEv
FNDA:0,_ZNKSt3__13mapIiN5Catch5Clara11CommandLineINS1_10ConfigDataEE3ArgENS_4lessIiEENS_9allocatorINS_4pairIKiS6_EEEEE5emptyEv
FNDA:0,_ZNKSt3__13mapINS_12basic_stringIcNS_11char_traitsIcEENS_9allocatorIcEEEEN5Catch7TagInfoENS_4lessIS6_EENS4_INS_4pairIKS6_S8_EEEEE4sizeEv
FNDA:0,_ZNKSt3__13mapINS_12basic_stringIcNS_11char_traitsIcEENS_9allocatorIcEEEEN5Catch3PtrINS7_16IReporterFactoryEEENS_4lessIS6_EENS4_INS_4pairIKS6_SA_EEEEE4sizeEv
FNDA:0,_ZNSt3__13mapINS_12basic_stringIcNS_11char_traitsIcEENS_9allocatorIcEEEEN5Catch8TagAliasENS_4lessIS6_EENS4_INS_4pairIKS6_S8_EEEEE6insertERKSD_
FNDA:4,_ZNSt3__13mapINS_12basic_stringIcNS_11char_traitsIcEENS_9allocatorIcEEEEN5Catch3PtrINS7_16IReporterFactoryEEENS_4lessIS6_EENS4_INS_4pairIKS6_SA_EEEEE6insertERKSF_
FNDA:0,_ZNSt3__13mapINS_12basic_stringIcNS_11char_traitsIcEENS_9allocatorIcEEEEPN5Catch18IGeneratorsForTestENS_4lessIS6_EENS4_INS_4pairIKS6_S9_EEEEE6insertERKSE_
FNDA:0,_ZNSt3__13mapINS_12basic_stringIcNS_11char_traitsIcEENS_9allocatorIcEEEEPN5Catch14IGeneratorInfoENS_4lessIS6_EENS4_INS_4pairIKS6_S9_EEEEE6insertERKSE_
FNDA:0,_ZNSt3__13mapINS_12basic_stringIcNS_11char_traitsIcEENS_9allocatorIcEEEEN5Catch7TagInfoENS_4lessIS6_EENS4_INS_4pairIKS6_S8_EEEEE6insertERKSD_
FNDA:1,_ZNSt3__13mapINS_12basic_stringIcNS_11char_traitsIcEENS_9allocatorIcEEEEPN5Catch18IGeneratorsForTestENS_4lessIS6_EENS4_INS_4pairIKS6_S9_EEEEE4findERSD_
FNDA:0,_ZNSt3__13mapINS_12basic_stringIcNS_11char_traitsIcEENS_9allocatorIcEEEEPN5Catch14IGeneratorInfoENS_4lessIS6_EENS4_INS_4pairIKS6_S9_EEEEE4findERSD_
FNDA:0,_ZNSt3__13mapINS_12basic_stringIcNS_11char_traitsIcEENS_9allocatorIcEEEEN5Catch7TagInfoENS_4lessIS6_EENS4_INS_4pairIKS6_S8_EEEEE4findERSC_
FNDA:0,_ZNKSt3__13mapINS_12basic_stringIcNS_11char_traitsIcEENS_9allocatorIcEEEEN5Catch8TagAliasENS_4lessIS6_EENS4_INS_4pairIKS6_S8_EEEEE4findERSC_
FNDA:1,_ZNKSt3__13mapINS_12basic_stringIcNS_11char_traitsIcEENS_9allocatorIcEEEEN5Catch3PtrINS7_16IReporterFactoryEEENS_4lessIS6_EENS4_INS_4pairIKS6_SA_EEEEE4findERSE_
FNDA:0,_ZNKSt3__13mapIiN5Catch5Clara11CommandLineINS1_10ConfigDataEE3ArgENS_4lessIiEENS_9allocatorINS_4pairIKiS6_EEEEE4findERSB_
FNF:107
FNH:42
DA:470,8
DA:478,3
DA:481,6
DA:703,16
DA:708,0
DA:732,0
DA:759,0
DA:762,8
DA:766,8
DA:771,1
DA:774,0
DA:795,1
DA:798,3
DA:800,0
DA:807,2
DA:865,8
DA:992,1
DA:994,1
DA:996,2
DA:998,2
DA:1022,0
DA:1024,0
DA:1072,4
DA:1220,1
DA:1222,1
LF:25
LH:18
end_of_record
SF:/Library/Developer/CommandLineTools/usr/include/c++/v1/memory
FN:968,_ZNSt3__114pointer_traitsIPKNS_12__value_typeINS_12basic_stringIcNS_11char_traitsIcEENS_9allocatorIcEEEEPN5Catch14IGeneratorInfoEEEE10pointer_toERSC_
FN:968,_ZNSt3__114pointer_traitsIPKNS_4pairIKNS_12basic_stringIcNS_11char_traitsIcEENS_9allocatorIcEEEEPN5Catch18IGeneratorsForTestEEEE10pointer_toERSD_
FN:968,_ZNSt3__114pointer_traitsIPKN5Catch8TestCaseEE10pointer_toERS3_
FN:968,_ZNSt3__114pointer_traitsIPKNS_12__value_typeINS_12basic_stringIcNS_11char_traitsIcEENS_9allocatorIcEEEEN5Catch3PtrINS8_16IReporterFactoryEEEEEE10pointer_toERSD_
FN:968,_ZNSt3__114pointer_traitsIPKwE10pointer_toERS1_
FN:968,_ZNSt3__114pointer_traitsIPNS_4pairIKNS_12basic_stringIcNS_11char_traitsIcEENS_9allocatorIcEEEEN5Catch7TagInfoEEEE10pointer_toERSB_
FN:968,_ZNSt3__114pointer_traitsIPKcE10pointer_toERS1_
FN:968,_ZNSt3__114pointer_traitsIPKNS_4pairIKNS_12basic_stringIcNS_11char_traitsIcEENS_9allocatorIcEEEEPN5Catch14IGeneratorInfoEEEE10pointer_toERSD_
FN:968,_ZNSt3__114pointer_traitsIPKNS_12__value_typeINS_12basic_stringIcNS_11char_traitsIcEENS_9allocatorIcEEEEPN5Catch18IGeneratorsForTestEEEE10pointer_toERSC_
FN:968,_ZNSt3__114pointer_traitsIPKNS_4pairIKNS_12basic_stringIcNS_11char_traitsIcEENS_9allocatorIcEEEEN5Catch7TagInfoEEEE10pointer_toERSC_
FN:968,_ZNSt3__114pointer_traitsIPKNS_4pairIKiN5Catch5Clara11CommandLineINS3_10ConfigDataEE3ArgEEEE10pointer_toERSA_
FN:968,_ZNSt3__114pointer_traitsIPKNS_4pairIKNS_12basic_stringIcNS_11char_traitsIcEENS_9allocatorIcEEEEN5Catch3PtrINS9_16IReporterFactoryEEEEEE10pointer_toERSE_
FN:968,_ZNSt3__114pointer_traitsIPKNS_4pairIKNS_12basic_stringIcNS_11char_traitsIcEENS_9allocatorIcEEEEN5Catch8TagAliasEEEE10pointer_toERSC_
FN:968,_ZNSt3__114pointer_traitsIPNS_15__tree_end_nodeIPNS_16__tree_node_baseIPvEEEEE10pointer_toERS6_
FN:968,_ZNSt3__114pointer_traitsIPKNS_12__value_typeIiN5Catch5Clara11CommandLineINS2_10ConfigDataEE3ArgEEEE10pointer_toERS9_
FN:968,_ZNSt3__114pointer_traitsIPcE10pointer_toERc
FN:968,_ZNSt3__114pointer_traitsIPKNS_12__value_typeINS_12basic_stringIcNS_11char_traitsIcEENS_9allocatorIcEEEEN5Catch7TagInfoEEEE10pointer_toERSB_
FN:968,_ZNSt3__114pointer_traitsIPNS_12__value_typeINS_12basic_stringIcNS_11char_traitsIcEENS_9allocatorIcEEEEN5Catch7TagInfoEEEE10pointer_toERSA_
FN:968,_ZNSt3__114pointer_traitsIPKNS_12__value_typeINS_12basic_stringIcNS_11char_traitsIcEENS_9allocatorIcEEEEN5Catch8TagAliasEEEE10pointer_toERSB_
FN:1103,_ZNSt3__116__to_raw_pointerIN5Catch3PtrINS1_22CumulativeReporterBase11SectionNodeEEEEEPT_S7_
FN:1103,_ZNSt3__116__to_raw_pointerIN5Catch15ConsoleReporter13SummaryColumnEEEPT_S5_
FN:1103,_ZNSt3__116__to_raw_pointerImEEPT_S2_
FN:1103,_ZNSt3__116__to_raw_pointerIN5Catch14AssertionStatsEEEPT_S4_
FN:1103,_ZNSt3__116__to_raw_pointerIN5Catch5Clara6Parser5TokenEEEPT_S6_
FN:1103,_ZNSt3__116__to_raw_pointerIN5Catch11SectionInfoEEEPT_S4_
FN:1103,_ZNSt3__116__to_raw_pointerIN5Catch3PtrINS1_16IReporterFactoryEEEEEPT_S6_
FN:1103,_ZNSt3__116__to_raw_pointerIN5Catch8TestSpec6FilterEEEPT_S5_
FN:1103,_ZNSt3__116__to_raw_pointerIKcEEPT_S3_
FN:1103,_ZNSt3__116__to_raw_pointerIPKN5Catch8Matchers4Impl11MatcherBaseINS_12basic_stringIcNS_11char_traitsIcEENS_9allocatorIcEEEESA_EEEEPT_SF_
FN:1103,_ZNSt3__116__to_raw_pointerIN5Catch3PtrINS1_16TestCaseTracking8ITrackerEEEEEPT_S7_
FN:1103,_ZNSt3__116__to_raw_pointerIN5Catch5Clara11CommandLineINS1_10ConfigDataEE3ArgEEEPT_S8_
FN:1103,_ZNSt3__116__to_raw_pointerINS_6vectorIN5Catch3PtrINS2_22CumulativeReporterBase11SectionNodeEEENS_9allocatorIS6_EEEEEEPT_SB_
FN:1103,_ZNSt3__116__to_raw_pointerIPN5Catch14IGeneratorInfoEEEPT_S5_
FN:1103,_ZNSt3__116__to_raw_pointerIPKN5Catch20IExceptionTranslatorEEEPT_S6_
FN:1103,_ZNSt3__116__to_raw_pointerIKwEEPT_S3_
FN:1103,_ZNSt3__116__to_raw_pointerIN5Catch3PtrINS1_8TestSpec7PatternEEEEEPT_S7_
FN:1103,_ZNSt3__116__to_raw_pointerIN5Catch3PtrINS1_22CumulativeReporterBase4NodeINS1_14TestGroupStatsENS4_INS1_13TestCaseStatsENS3_11SectionNodeEEEEEEEEEPT_SC_
FN:1103,_ZNSt3__116__to_raw_pointerIN5Catch3PtrINS1_18IStreamingReporterEEEEEPT_S6_
FN:1103,_ZNSt3__116__to_raw_pointerINS_12basic_stringIcNS_11char_traitsIcEENS_9allocatorIcEEEEEEPT_S8_
FN:1103,_ZNSt3__116__to_raw_pointerIN5Catch14SectionEndInfoEEEPT_S4_
FN:1103,_ZNSt3__116__to_raw_pointerIN5Catch3PtrINS1_22CumulativeReporterBase4NodeINS1_13TestCaseStatsENS3_11SectionNodeEEEEEEEPT_SA_
FN:1103,_ZNSt3__116__to_raw_pointerIN5Catch8TestCaseEEEPT_S4_
FN:1103,_ZNSt3__116__to_raw_pointerIPN5Catch16TestCaseTracking8ITrackerEEEPT_S6_
FN:1103,_ZNSt3__116__to_raw_pointerIN5Catch11MessageInfoEEEPT_S4_
FN:1103,_ZNSt3__116__to_raw_pointerIN5Catch3PtrINS1_22CumulativeReporterBase4NodeINS1_12TestRunStatsENS4_INS1_14TestGroupStatsENS4_INS1_13TestCaseStatsENS3_11SectionNodeEEEEEEEEEEEPT_SE_
FN:1525,_ZNSt3__116allocator_traitsINS_9allocatorINS_11__tree_nodeINS_12__value_typeINS_12basic_stringIcNS_11char_traitsIcEENS1_IcEEEEN5Catch8TagAliasEEEPvEEEEE8allocateERSE_m
FN:1525,_ZNSt3__116allocator_traitsINS_9allocatorIN5Catch3PtrINS2_22CumulativeReporterBase11SectionNodeEEEEEE8allocateERS7_m
FN:1525,_ZNSt3__116allocator_traitsINS_9allocatorIPN5Catch14IGeneratorInfoEEEE8allocateERS5_m
FN:1525,_ZNSt3__116allocator_traitsINS_9allocatorINS_11__tree_nodeINS_12basic_stringIcNS_11char_traitsIcEENS1_IcEEEEPvEEEEE8allocateERSA_m
FN:1525,_ZNSt3__116allocator_traitsINS_9allocatorIN5Catch14AssertionStatsEEEE8allocateERS4_m
FN:1525,_ZNSt3__116allocator_traitsINS_9allocatorIN5Catch11MessageInfoEEEE8allocateERS4_m
FN:1525,_ZNSt3__116allocator_traitsINS_9allocatorIN5Catch3PtrINS2_18IStreamingReporterEEEEEE8allocateERS6_m
FN:1525,_ZNSt3__116allocator_traitsINS_9allocatorIN5Catch3PtrINS2_22CumulativeReporterBase4NodeINS2_14TestGroupStatsENS5_INS2_13TestCaseStatsENS4_11SectionNodeEEEEEEEEEE8allocateERSC_m
FN:1525,_ZNSt3__116allocator_traitsINS_9allocatorINS_11__tree_nodeINS_12__value_typeINS_12basic_stringIcNS_11char_traitsIcEENS1_IcEEEEPN5Catch14IGeneratorInfoEEEPvEEEEE8allocateERSF_m
FN:1525,_ZNSt3__116allocator_traitsINS_9allocatorIN5Catch5Clara11CommandLineINS2_10ConfigDataEE3ArgEEEE8allocateERS8_m
FN:1525,_ZNSt3__116allocator_traitsINS_9allocatorIN5Catch3PtrINS2_22CumulativeReporterBase4NodeINS2_12TestRunStatsENS5_INS2_14TestGroupStatsENS5_INS2_13TestCaseStatsENS4_11SectionNodeEEEEEEEEEEEE8allocateERSE_m
FN:1525,_ZNSt3__116allocator_traitsINS_9allocatorIN5Catch14SectionEndInfoEEEE8allocateERS4_m
FN:1525,_ZNSt3__116allocator_traitsINS_9allocatorIcEEE8allocateERS2_m
FN:1525,_ZNSt3__116allocator_traitsINS_9allocatorIN5Catch15ConsoleReporter13SummaryColumnEEEE8allocateERS5_m
FN:1525,_ZNSt3__116allocator_traitsINS_9allocatorIN5Catch3PtrINS2_16TestCaseTracking8ITrackerEEEEEE8allocateERS7_m
FN:1525,_ZNSt3__116allocator_traitsINS_9allocatorIN5Catch3PtrINS2_16IReporterFactoryEEEEEE8allocateERS6_m
FN:1525,_ZNSt3__116allocator_traitsINS_9allocatorIN5Catch3PtrINS2_22CumulativeReporterBase4NodeINS2_13TestCaseStatsENS4_11SectionNodeEEEEEEEE8allocateERSA_m
FN:1525,_ZNSt3__116allocator_traitsINS_9allocatorINS_11__tree_nodeINS_12__value_typeINS_12basic_stringIcNS_11char_traitsIcEENS1_IcEEEEN5Catch7TagInfoEEEPvEEEEE8allocateERSE_m
FN:1525,_ZNSt3__116allocator_traitsINS_9allocatorIPKN5Catch20IExceptionTranslatorEEEE8allocateERS6_m
FN:1525,_ZNSt3__116allocator_traitsINS_9allocatorINS_11__tree_nodeINS_12__value_typeINS_12basic_stringIcNS_11char_traitsIcEENS1_IcEEEEPN5Catch18IGeneratorsForTestEEEPvEEEEE8allocateERSF_m
FN:1525,_ZNSt3__116allocator_traitsINS_9allocatorIN5Catch8TestSpec6FilterEEEE8allocateERS5_m
FN:1525,_ZNSt3__116allocator_traitsINS_9allocatorIPN5Catch16TestCaseTracking8ITrackerEEEE8allocateERS6_m
FN:1525,_ZNSt3__116allocator_traitsINS_9allocatorIN5Catch8TestCaseEEEE8allocateERS4_m
FN:1525,_ZNSt3__116allocator_traitsINS_9allocatorINS_11__tree_nodeINS_12__value_typeINS_12basic_stringIcNS_11char_traitsIcEENS1_IcEEEEN5Catch3PtrINS9_16IReporterFactoryEEEEEPvEEEEE8allocateERSG_m
FN:1525,_ZNSt3__116allocator_traitsINS_9allocatorIN5Catch3PtrINS2_8TestSpec7PatternEEEEEE8allocateERS7_m
FN:1525,_ZNSt3__116allocator_traitsINS_9allocatorImEEE8allocateERS2_m
FN:1525,_ZNSt3__116allocator_traitsINS_9allocatorINS_12basic_stringIcNS_11char_traitsIcEENS1_IcEEEEEEE8allocateERS7_m
FN:1525,_ZNSt3__116allocator_traitsINS_9allocatorINS_11__tree_nodeIN5Catch8TestCaseEPvEEEEE8allocateERS7_m
FN:1525,_ZNSt3__116allocator_traitsINS_9allocatorIN5Catch11SectionInfoEEEE8allocateERS4_m
FN:1525,_ZNSt3__116allocator_traitsINS_9allocatorIN5Catch5Clara6Parser5TokenEEEE8allocateERS6_m
FN:1533,_ZNSt3__116allocator_traitsINS_9allocatorIN5Catch3PtrINS2_22CumulativeReporterBase4NodeINS2_13TestCaseStatsENS4_11SectionNodeEEEEEEEE10deallocateERSA_PS9_m
FN:1533,_ZNSt3__116allocator_traitsINS_9allocatorINS_6vectorIN5Catch3PtrINS3_22CumulativeReporterBase11SectionNodeEEENS1_IS7_EEEEEEE10deallocateERSA_PS9_m
FN:1533,_ZNSt3__116allocator_traitsINS_9allocatorINS_12basic_stringIcNS_11char_traitsIcEENS1_IcEEEEEEE10deallocateERS7_PS6_m
FN:1533,_ZNSt3__116allocator_traitsINS_9allocatorINS_11__tree_nodeIN5Catch8TestCaseEPvEEEEE10deallocateERS7_PS6_m
FN:1533,_ZNSt3__116allocator_traitsINS_9allocatorINS_11__tree_nodeINS_12__value_typeINS_12basic_stringIcNS_11char_traitsIcEENS1_IcEEEEN5Catch7TagInfoEEEPvEEEEE10deallocateERSE_PSD_m
FN:1533,_ZNSt3__116allocator_traitsINS_9allocatorIN5Catch8TestSpec6FilterEEEE10deallocateERS5_PS4_m
FN:1533,_ZNSt3__116allocator_traitsINS_9allocatorIN5Catch3PtrINS2_22CumulativeReporterBase4NodeINS2_14TestGroupStatsENS5_INS2_13TestCaseStatsENS4_11SectionNodeEEEEEEEEEE10deallocateERSC_PSB_m
FN:1533,_ZNSt3__116allocator_traitsINS_9allocatorIPKN5Catch20IExceptionTranslatorEEEE10deallocateERS6_PS5_m
FN:1533,_ZNSt3__116allocator_traitsINS_9allocatorIN5Catch3PtrINS2_22CumulativeReporterBase11SectionNodeEEEEEE10deallocateERS7_PS6_m
FN:1533,_ZNSt3__116allocator_traitsINS_9allocatorIN5Catch14SectionEndInfoEEEE10deallocateERS4_PS3_m
FN:1533,_ZNSt3__116allocator_traitsINS_9allocatorIN5Catch8TestCaseEEEE10deallocateERS4_PS3_m
FN:1533,_ZNSt3__116allocator_traitsINS_9allocatorIN5Catch15ConsoleReporter13SummaryColumnEEEE10deallocateERS5_PS4_m
FN:1533,_ZNSt3__116allocator_traitsINS_9allocatorIPN5Catch16TestCaseTracking8ITrackerEEEE10deallocateERS6_PS5_m
FN:1533,_ZNSt3__116allocator_traitsINS_9allocatorIPN5Catch14IGeneratorInfoEEEE10deallocateERS5_PS4_m
FN:1533,_ZNSt3__116allocator_traitsINS_9allocatorINS_11__tree_nodeINS_12basic_stringIcNS_11char_traitsIcEENS1_IcEEEEPvEEEEE10deallocateERSA_PS9_m
FN:1533,_ZNSt3__116allocator_traitsINS_9allocatorIN5Catch14AssertionStatsEEEE10deallocateERS4_PS3_m
FN:1533,_ZNSt3__116allocator_traitsINS_9allocatorIN5Catch3PtrINS2_16IReporterFactoryEEEEEE10deallocateERS6_PS5_m
FN:1533,_ZNSt3__116allocator_traitsINS_9allocatorINS_11__tree_nodeINS_12__value_typeIiN5Catch5Clara11CommandLineINS4_10ConfigDataEE3ArgEEEPvEEEEE10deallocateERSD_PSC_m
FN:1533,_ZNSt3__116allocator_traitsINS_9allocatorIN5Catch5Clara11CommandLineINS2_10ConfigDataEE3ArgEEEE10deallocateERS8_PS7_m
FN:1533,_ZNSt3__116allocator_traitsINS_9allocatorIN5Catch11MessageInfoEEEE10deallocateERS4_PS3_m
FN:1533,_ZNSt3__116allocator_traitsINS_9allocatorIN5Catch3PtrINS2_8TestSpec7PatternEEEEEE10deallocateERS7_PS6_m
FN:1533,_ZNSt3__116allocator_traitsINS_9allocatorINS_11__tree_nodeINS_12__value_typeINS_12basic_stringIcNS_11char_traitsIcEENS1_IcEEEEN5Catch8TagAliasEEEPvEEEEE10deallocateERSE_PSD_m
FN:1533,_ZNSt3__116allocator_traitsINS_9allocatorIPKN5Catch8Matchers4Impl11MatcherBaseINS_12basic_stringIcNS_11char_traitsIcEENS1_IcEEEESA_EEEEE10deallocateERSE_PSD_m
FN:1533,_ZNSt3__116allocator_traitsINS_9allocatorIN5Catch3PtrINS2_16TestCaseTracking8ITrackerEEEEEE10deallocateERS7_PS6_m
FN:1533,_ZNSt3__116allocator_traitsINS_9allocatorImEEE10deallocateERS2_Pmm
FN:1533,_ZNSt3__116allocator_traitsINS_9allocatorIN5Catch3PtrINS2_18IStreamingReporterEEEEEE10deallocateERS6_PS5_m
FN:1533,_ZNSt3__116allocator_traitsINS_9allocatorIN5Catch11SectionInfoEEEE10deallocateERS4_PS3_m
FN:1533,_ZNSt3__116allocator_traitsINS_9allocatorINS_11__tree_nodeINS_12__value_typeINS_12basic_stringIcNS_11char_traitsIcEENS1_IcEEEEPN5Catch14IGeneratorInfoEEEPvEEEEE10deallocateERSF_PSE_m
FN:1533,_ZNSt3__116allocator_traitsINS_9allocatorIN5Catch5Clara6Parser5TokenEEEE10deallocateERS6_PS5_m
FN:1533,_ZNSt3__116allocator_traitsINS_9allocatorIN5Catch3PtrINS2_22CumulativeReporterBase4NodeINS2_12TestRunStatsENS5_INS2_14TestGroupStatsENS5_INS2_13TestCaseStatsENS4_11SectionNodeEEEEEEEEEEEE10deallocateERSE_PSD_m
FN:1533,_ZNSt3__116allocator_traitsINS_9allocatorINS_11__tree_nodeINS_12__value_typeINS_12basic_stringIcNS_11char_traitsIcEENS1_IcEEEEN5Catch3PtrINS9_16IReporterFactoryEEEEEPvEEEEE10deallocateERSG_PSF_m
FN:1533,_ZNSt3__116allocator_traitsINS_9allocatorINS_11__tree_nodeINS_12__value_typeINS_12basic_stringIcNS_11char_traitsIcEENS1_IcEEEEPN5Catch18IGeneratorsForTestEEEPvEEEEE10deallocateERSF_PSE_m
FN:1545,_ZNSt3__116allocator_traitsINS_9allocatorINS_12basic_stringIcNS_11char_traitsIcEENS1_IcEEEEEEE9constructIS6_EEvRS7_PT_
FN:1551,_ZNSt3__116allocator_traitsINS_9allocatorIN5Catch8TestSpec6FilterEEEE9constructIS4_S4_EEvRS5_PT_RKT0_
FN:1551,_ZNSt3__116allocator_traitsINS_9allocatorIN5Catch8TestCaseEEEE9constructIS3_S3_EEvRS4_PT_RKT0_
FN:1551,_ZNSt3__116allocator_traitsINS_9allocatorINS_11__tree_nodeINS_12basic_stringIcNS_11char_traitsIcEENS1_IcEEEEPvEEEEE9constructIS7_S7_EEvRSA_PT_RKT0_
FN:1551,_ZNSt3__116allocator_traitsINS_9allocatorINS_11__tree_nodeINS_12__value_typeINS_12basic_stringIcNS_11char_traitsIcEENS1_IcEEEEN5Catch7TagInfoEEEPvEEEEE9constructINS_4pairIKS8_SA_EESJ_EEvRSE_PT_RKT0_
FN:1551,_ZNSt3__116allocator_traitsINS_9allocatorIPN5Catch14IGeneratorInfoEEEE9constructIS4_S4_EEvRS5_PT_RKT0_
FN:1551,_ZNSt3__116allocator_traitsINS_9allocatorIN5Catch11SectionInfoEEEE9constructIS3_S3_EEvRS4_PT_RKT0_
FN:1551,_ZNSt3__116allocator_traitsINS_9allocatorIN5Catch3PtrINS2_16TestCaseTracking8ITrackerEEEEEE9constructIS6_S6_EEvRS7_PT_RKT0_
FN:1551,_ZNSt3__116allocator_traitsINS_9allocatorIN5Catch3PtrINS2_22CumulativeReporterBase4NodeINS2_13TestCaseStatsENS4_11SectionNodeEEEEEEEE9constructIS9_S9_EEvRSA_PT_RKT0_
FN:1551,_ZNSt3__116allocator_traitsINS_9allocatorIPN5Catch16TestCaseTracking8ITrackerEEEE9constructIS5_S5_EEvRS6_PT_RKT0_
FN:1551,_ZNSt3__116allocator_traitsINS_9allocatorINS_11__tree_nodeINS_12__value_typeINS_12basic_stringIcNS_11char_traitsIcEENS1_IcEEEEN5Catch3PtrINS9_16IReporterFactoryEEEEEPvEEEEE9constructINS_4pairIKS8_SC_EESL_EEvRSG_PT_RKT0_
FN:1551,_ZNSt3__116allocator_traitsINS_9allocatorIN5Catch14AssertionStatsEEEE9constructIS3_S3_EEvRS4_PT_RKT0_
FN:1551,_ZNSt3__116allocator_traitsINS_9allocatorIN5Catch15ConsoleReporter13SummaryColumnEEEE9constructIS4_S4_EEvRS5_PT_RKT0_
FN:1551,_ZNSt3__116allocator_traitsINS_9allocatorINS_12basic_stringIcNS_11char_traitsIcEENS1_IcEEEEEEE9constructIS6_S6_EEvRS7_PT_RKT0_
FN:1551,_ZNSt3__116allocator_traitsINS_9allocatorImEEE9constructImmEEvRS2_PT_RKT0_
FN:1551,_ZNSt3__116allocator_traitsINS_9allocatorINS_11__tree_nodeIN5Catch8TestCaseEPvEEEEE9constructIS4_S4_EEvRS7_PT_RKT0_
FN:1551,_ZNSt3__116allocator_traitsINS_9allocatorIN5Catch5Clara6Parser5TokenEEEE9constructIS5_S5_EEvRS6_PT_RKT0_
FN:1551,_ZNSt3__116allocator_traitsINS_9allocatorIN5Catch3PtrINS2_22CumulativeReporterBase11SectionNodeEEEEEE9constructIS6_S6_EEvRS7_PT_RKT0_
FN:1551,_ZNSt3__116allocator_traitsINS_9allocatorIN5Catch3PtrINS2_16IReporterFactoryEEEEEE9constructIS5_S5_EEvRS6_PT_RKT0_
FN:1551,_ZNSt3__116allocator_traitsINS_9allocatorIN5Catch3PtrINS2_22CumulativeReporterBase4NodeINS2_14TestGroupStatsENS5_INS2_13TestCaseStatsENS4_11SectionNodeEEEEEEEEEE9constructISB_SB_EEvRSC_PT_RKT0_
FN:1551,_ZNSt3__116allocator_traitsINS_9allocatorINS_11__tree_nodeINS_12__value_typeINS_12basic_stringIcNS_11char_traitsIcEENS1_IcEEEEPN5Catch14IGeneratorInfoEEEPvEEEEE9constructINS_4pairIKS8_SB_EESK_EEvRSF_PT_RKT0_
FN:1551,_ZNSt3__116allocator_traitsINS_9allocatorIN5Catch3PtrINS2_22CumulativeReporterBase4NodeINS2_12TestRunStatsENS5_INS2_14TestGroupStatsENS5_INS2_13TestCaseStatsENS4_11SectionNodeEEEEEEEEEEEE9constructISD_SD_EEvRSE_PT_RKT0_
FN:1551,_ZNSt3__116allocator_traitsINS_9allocatorIN5Catch3PtrINS2_18IStreamingReporterEEEEEE9constructIS5_S5_EEvRS6_PT_RKT0_
FN:1551,_ZNSt3__116allocator_traitsINS_9allocatorIN5Catch14SectionEndInfoEEEE9constructIS3_S3_EEvRS4_PT_RKT0_
FN:1551,_ZNSt3__116allocator_traitsINS_9allocatorIN5Catch3PtrINS2_8TestSpec7PatternEEEEEE9constructIS6_S6_EEvRS7_PT_RKT0_
FN:1551,_ZNSt3__116allocator_traitsINS_9allocatorINS_11__tree_nodeINS_12__value_typeINS_12basic_stringIcNS_11char_traitsIcEENS1_IcEEEEPN5Catch18IGeneratorsForTestEEEPvEEEEE9constructINS_4pairIKS8_SB_EESK_EEvRSF_PT_RKT0_
FN:1551,_ZNSt3__116allocator_traitsINS_9allocatorINS_11__tree_nodeINS_12__value_typeINS_12basic_stringIcNS_11char_traitsIcEENS1_IcEEEEN5Catch8TagAliasEEEPvEEEEE9constructINS_4pairIKS8_SA_EESJ_EEvRSE_PT_RKT0_
FN:1551,_ZNSt3__116allocator_traitsINS_9allocatorIN5Catch11MessageInfoEEEE9constructIS3_S3_EEvRS4_PT_RKT0_
FN:1551,_ZNSt3__116allocator_traitsINS_9allocatorIN5Catch5Clara11CommandLineINS2_10ConfigDataEE3ArgEEEE9constructIS7_S7_EEvRS8_PT_RKT0_
FN:1551,_ZNSt3__116allocator_traitsINS_9allocatorIPKN5Catch20IExceptionTranslatorEEEE9constructIS5_S5_EEvRS6_PT_RKT0_
FN:1573,_ZNSt3__116allocator_traitsINS_9allocatorIN5Catch3PtrINS2_16TestCaseTracking8ITrackerEEEEEE7destroyIS6_EEvRS7_PT_
FN:1573,_ZNSt3__116allocator_traitsINS_9allocatorINS_11__tree_nodeINS_12__value_typeINS_12basic_stringIcNS_11char_traitsIcEENS1_IcEEEEPN5Catch14IGeneratorInfoEEEPvEEEEE7destroyINS_4pairIKS8_SB_EEEEvRSF_PT_
FN:1573,_ZNSt3__116allocator_traitsINS_9allocatorINS_11__tree_nodeINS_12__value_typeINS_12basic_stringIcNS_11char_traitsIcEENS1_IcEEEEN5Catch3PtrINS9_16IReporterFactoryEEEEEPvEEEEE7destroyINS_4pairIKS8_SC_EEEEvRSG_PT_
FN:1573,_ZNSt3__116allocator_traitsINS_9allocatorImEEE7destroyImEEvRS2_PT_
FN:1573,_ZNSt3__116allocator_traitsINS_9allocatorIN5Catch8TestCaseEEEE7destroyIS3_EEvRS4_PT_
FN:1573,_ZNSt3__116allocator_traitsINS_9allocatorIN5Catch3PtrINS2_22CumulativeReporterBase4NodeINS2_12TestRunStatsENS5_INS2_14TestGroupStatsENS5_INS2_13TestCaseStatsENS4_11SectionNodeEEEEEEEEEEEE7destroyISD_EEvRSE_PT_
FN:1573,_ZNSt3__116allocator_traitsINS_9allocatorIPKN5Catch20IExceptionTranslatorEEEE7destroyIS5_EEvRS6_PT_
FN:1573,_ZNSt3__116allocator_traitsINS_9allocatorINS_11__tree_nodeIN5Catch8TestCaseEPvEEEEE7destroyIS4_EEvRS7_PT_
FN:1573,_ZNSt3__116allocator_traitsINS_9allocatorINS_12basic_stringIcNS_11char_traitsIcEENS1_IcEEEEEEE7destroyIS6_EEvRS7_PT_
FN:1573,_ZNSt3__116allocator_traitsINS_9allocatorIPN5Catch14IGeneratorInfoEEEE7destroyIS4_EEvRS5_PT_
FN:1573,_ZNSt3__116allocator_traitsINS_9allocatorINS_6vectorIN5Catch3PtrINS3_22CumulativeReporterBase11SectionNodeEEENS1_IS7_EEEEEEE7destroyIS9_EEvRSA_PT_
FN:1573,_ZNSt3__116allocator_traitsINS_9allocatorIPN5Catch16TestCaseTracking8ITrackerEEEE7destroyIS5_EEvRS6_PT_
FN:1573,_ZNSt3__116allocator_traitsINS_9allocatorINS_11__tree_nodeINS_12basic_stringIcNS_11char_traitsIcEENS1_IcEEEEPvEEEEE7destroyIS7_EEvRSA_PT_
FN:1573,_ZNSt3__116allocator_traitsINS_9allocatorIN5Catch3PtrINS2_22CumulativeReporterBase4NodeINS2_14TestGroupStatsENS5_INS2_13TestCaseStatsENS4_11SectionNodeEEEEEEEEEE7destroyISB_EEvRSC_PT_
FN:1573,_ZNSt3__116allocator_traitsINS_9allocatorIN5Catch5Clara11CommandLineINS2_10ConfigDataEE3ArgEEEE7destroyIS7_EEvRS8_PT_
FN:1573,_ZNSt3__116allocator_traitsINS_9allocatorIN5Catch3PtrINS2_22CumulativeReporterBase11SectionNodeEEEEEE7destroyIS6_EEvRS7_PT_
FN:1573,_ZNSt3__116allocator_traitsINS_9allocatorINS_11__tree_nodeINS_12__value_typeINS_12basic_stringIcNS_11char_traitsIcEENS1_IcEEEEN5Catch8TagAliasEEEPvEEEEE7destroyINS_4pairIKS8_SA_EEEEvRSE_PT_
FN:1573,_ZNSt3__116allocator_traitsINS_9allocatorIN5Catch14AssertionStatsEEEE7destroyIS3_EEvRS4_PT_
FN:1573,_ZNSt3__116allocator_traitsINS_9allocatorIN5Catch8TestSpec6FilterEEEE7destroyIS4_EEvRS5_PT_
FN:1573,_ZNSt3__116allocator_traitsINS_9allocatorINS_11__tree_nodeINS_12__value_typeINS_12basic_stringIcNS_11char_traitsIcEENS1_IcEEEEN5Catch7TagInfoEEEPvEEEEE7destroyINS_4pairIKS8_SA_EEEEvRSE_PT_
FN:1573,_ZNSt3__116allocator_traitsINS_9allocatorIPKN5Catch8Matchers4Impl11MatcherBaseINS_12basic_stringIcNS_11char_traitsIcEENS1_IcEEEESA_EEEEE7destroyISD_EEvRSE_PT_
FN:1573,_ZNSt3__116allocator_traitsINS_9allocatorIN5Catch11SectionInfoEEEE7destroyIS3_EEvRS4_PT_
FN:1573,_ZNSt3__116allocator_traitsINS_9allocatorIN5Catch5Clara6Parser5TokenEEEE7destroyIS5_EEvRS6_PT_
FN:1573,_ZNSt3__116allocator_traitsINS_9allocatorINS_11__tree_nodeINS_12__value_typeINS_12basic_stringIcNS_11char_traitsIcEENS1_IcEEEEPN5Catch18IGeneratorsForTestEEEPvEEEEE7destroyINS_4pairIKS8_SB_EEEEvRSF_PT_
FN:1573,_ZNSt3__116allocator_traitsINS_9allocatorIN5Catch3PtrINS2_16IReporterFactoryEEEEEE7destroyIS5_EEvRS6_PT_
FN:1573,_ZNSt3__116allocator_traitsINS_9allocatorIN5Catch3PtrINS2_8TestSpec7PatternEEEEEE7destroyIS6_EEvRS7_PT_
FN:1573,_ZNSt3__116allocator_traitsINS_9allocatorIN5Catch15ConsoleReporter13SummaryColumnEEEE7destroyIS4_EEvRS5_PT_
FN:1573,_ZNSt3__116allocator_traitsINS_9allocatorIN5Catch14SectionEndInfoEEEE7destroyIS3_EEvRS4_PT_
FN:1573,_ZNSt3__116allocator_traitsINS_9allocatorIN5Catch3PtrINS2_18IStreamingReporterEEEEEE7destroyIS5_EEvRS6_PT_
FN:1573,_ZNSt3__116allocator_traitsINS_9allocatorIN5Catch11MessageInfoEEEE7destroyIS3_EEvRS4_PT_
FN:1573,_ZNSt3__116allocator_traitsINS_9allocatorINS_11__tree_nodeINS_12__value_typeIiN5Catch5Clara11CommandLineINS4_10ConfigDataEE3ArgEEEPvEEEEE7destroyINS_4pairIKiS9_EEEEvRSD_PT_
FN:1573,_ZNSt3__116allocator_traitsINS_9allocatorIN5Catch3PtrINS2_22CumulativeReporterBase4NodeINS2_13TestCaseStatsENS4_11SectionNodeEEEEEEEE7destroyIS9_EEvRSA_PT_
FN:1577,_ZNSt3__116allocator_traitsINS_9allocatorImEEE8max_sizeERKS2_
FN:1577,_ZNSt3__116allocator_traitsINS_9allocatorIN5Catch8TestCaseEEEE8max_sizeERKS4_
FN:1577,_ZNSt3__116allocator_traitsINS_9allocatorIN5Catch3PtrINS2_22CumulativeReporterBase4NodeINS2_13TestCaseStatsENS4_11SectionNodeEEEEEEEE8max_sizeERKSA_
FN:1577,_ZNSt3__116allocator_traitsINS_9allocatorIN5Catch11SectionInfoEEEE8max_sizeERKS4_
FN:1577,_ZNSt3__116allocator_traitsINS_9allocatorIN5Catch3PtrINS2_16TestCaseTracking8ITrackerEEEEEE8max_sizeERKS7_
FN:1577,_ZNSt3__116allocator_traitsINS_9allocatorIN5Catch14AssertionStatsEEEE8max_sizeERKS4_
FN:1577,_ZNSt3__116allocator_traitsINS_9allocatorIPN5Catch14IGeneratorInfoEEEE8max_sizeERKS5_
FN:1577,_ZNSt3__116allocator_traitsINS_9allocatorINS_12basic_stringIcNS_11char_traitsIcEENS1_IcEEEEEEE8max_sizeERKS7_
FN:1577,_ZNSt3__116allocator_traitsINS_9allocatorIN5Catch5Clara11CommandLineINS2_10ConfigDataEE3ArgEEEE8max_sizeERKS8_
FN:1577,_ZNSt3__116allocator_traitsINS_9allocatorIPKN5Catch20IExceptionTranslatorEEEE8max_sizeERKS6_
FN:1577,_ZNSt3__116allocator_traitsINS_9allocatorIN5Catch3PtrINS2_16IReporterFactoryEEEEEE8max_sizeERKS6_
FN:1577,_ZNSt3__116allocator_traitsINS_9allocatorIN5Catch14SectionEndInfoEEEE8max_sizeERKS4_
FN:1577,_ZNSt3__116allocator_traitsINS_9allocatorIcEEE8max_sizeERKS2_
FN:1577,_ZNSt3__116allocator_traitsINS_9allocatorIN5Catch8TestSpec6FilterEEEE8max_sizeERKS5_
FN:1577,_ZNSt3__116allocator_traitsINS_9allocatorIN5Catch15ConsoleReporter13SummaryColumnEEEE8max_sizeERKS5_
FN:1577,_ZNSt3__116allocator_traitsINS_9allocatorIN5Catch3PtrINS2_22CumulativeReporterBase4NodeINS2_14TestGroupStatsENS5_INS2_13TestCaseStatsENS4_11SectionNodeEEEEEEEEEE8max_sizeERKSC_
FN:1577,_ZNSt3__116allocator_traitsINS_9allocatorIN5Catch3PtrINS2_18IStreamingReporterEEEEEE8max_sizeERKS6_
FN:1577,_ZNSt3__116allocator_traitsINS_9allocatorIPN5Catch16TestCaseTracking8ITrackerEEEE8max_sizeERKS6_
FN:1577,_ZNSt3__116allocator_traitsINS_9allocatorIN5Catch3PtrINS2_22CumulativeReporterBase4NodeINS2_12TestRunStatsENS5_INS2_14TestGroupStatsENS5_INS2_13TestCaseStatsENS4_11SectionNodeEEEEEEEEEEEE8max_sizeERKSE_
FN:1577,_ZNSt3__116allocator_traitsINS_9allocatorIN5Catch3PtrINS2_22CumulativeReporterBase11SectionNodeEEEEEE8max_sizeERKS7_
FN:1577,_ZNSt3__116allocator_traitsINS_9allocatorIN5Catch3PtrINS2_8TestSpec7PatternEEEEEE8max_sizeERKS7_
FN:1577,_ZNSt3__116allocator_traitsINS_9allocatorIN5Catch5Clara6Parser5TokenEEEE8max_sizeERKS6_
FN:1577,_ZNSt3__116allocator_traitsINS_9allocatorIN5Catch11MessageInfoEEEE8max_sizeERKS4_
FN:1582,_ZNSt3__116allocator_traitsINS_9allocatorIN5Catch3PtrINS2_8TestSpec7PatternEEEEEE37select_on_container_copy_constructionERKS7_
FN:1582,_ZNSt3__116allocator_traitsINS_9allocatorIN5Catch11MessageInfoEEEE37select_on_container_copy_constructionERKS4_
FN:1582,_ZNSt3__116allocator_traitsINS_9allocatorIN5Catch5Clara6Parser5TokenEEEE37select_on_container_copy_constructionERKS6_
FN:1582,_ZNSt3__116allocator_traitsINS_9allocatorINS_12basic_stringIcNS_11char_traitsIcEENS1_IcEEEEEEE37select_on_container_copy_constructionERKS7_
FN:1582,_ZNSt3__116allocator_traitsINS_9allocatorIN5Catch3PtrINS2_16IReporterFactoryEEEEEE37select_on_container_copy_constructionERKS6_
FN:1582,_ZNSt3__116allocator_traitsINS_9allocatorIN5Catch8TestCaseEEEE37select_on_container_copy_constructionERKS4_
FN:1582,_ZNSt3__116allocator_traitsINS_9allocatorINS_11__tree_nodeINS_12basic_stringIcNS_11char_traitsIcEENS1_IcEEEEPvEEEEE37select_on_container_copy_constructionERKSA_
FN:1582,_ZNSt3__116allocator_traitsINS_9allocatorIN5Catch8TestSpec6FilterEEEE37select_on_container_copy_constructionERKS5_
FN:1591,_ZNSt3__116allocator_traitsINS_9allocatorINS_12basic_stringIcNS_11char_traitsIcEENS1_IcEEEEEEE19__construct_forwardIPS6_EEvRS7_T_SC_RSC_
FN:1621,_ZNSt3__116allocator_traitsINS_9allocatorIN5Catch5Clara6Parser5TokenEEEE25__construct_range_forwardIPS5_S9_EEvRS6_T_SB_RT0_
FN:1621,_ZNSt3__116allocator_traitsINS_9allocatorINS_12basic_stringIcNS_11char_traitsIcEENS1_IcEEEEEEE25__construct_range_forwardIPS6_SA_EEvRS7_T_SC_RT0_
FN:1621,_ZNSt3__116allocator_traitsINS_9allocatorIN5Catch3PtrINS2_16IReporterFactoryEEEEEE25__construct_range_forwardIPS5_S9_EEvRS6_T_SB_RT0_
FN:1621,_ZNSt3__116allocator_traitsINS_9allocatorINS_12basic_stringIcNS_11char_traitsIcEENS1_IcEEEEEEE25__construct_range_forwardINS_11__wrap_iterIPKS6_EEPS6_EEvRS7_T_SG_RT0_
FN:1621,_ZNSt3__116allocator_traitsINS_9allocatorIN5Catch8TestCaseEEEE25__construct_range_forwardIPS3_S7_EEvRS4_T_S9_RT0_
FN:1621,_ZNSt3__116allocator_traitsINS_9allocatorIN5Catch3PtrINS2_8TestSpec7PatternEEEEEE25__construct_range_forwardIPS6_SA_EEvRS7_T_SC_RT0_
FN:1621,_ZNSt3__116allocator_traitsINS_9allocatorIN5Catch8TestSpec6FilterEEEE25__construct_range_forwardIPS4_S8_EEvRS5_T_SA_RT0_
FN:1621,_ZNSt3__116allocator_traitsINS_9allocatorIN5Catch11MessageInfoEEEE25__construct_range_forwardIPS3_S7_EEvRS4_T_S9_RT0_
FN:1652,_ZNSt3__116allocator_traitsINS_9allocatorIN5Catch3PtrINS2_16IReporterFactoryEEEEEE20__construct_backwardIPS5_EEvRS6_T_SB_RSB_
FN:1652,_ZNSt3__116allocator_traitsINS_9allocatorIN5Catch8TestSpec6FilterEEEE20__construct_backwardIPS4_EEvRS5_T_SA_RSA_
FN:1652,_ZNSt3__116allocator_traitsINS_9allocatorIN5Catch3PtrINS2_22CumulativeReporterBase11SectionNodeEEEEEE20__construct_backwardIPS6_EEvRS7_T_SC_RSC_
FN:1652,_ZNSt3__116allocator_traitsINS_9allocatorIN5Catch15ConsoleReporter13SummaryColumnEEEE20__construct_backwardIPS4_EEvRS5_T_SA_RSA_
FN:1652,_ZNSt3__116allocator_traitsINS_9allocatorIN5Catch3PtrINS2_18IStreamingReporterEEEEEE20__construct_backwardIPS5_EEvRS6_T_SB_RSB_
FN:1652,_ZNSt3__116allocator_traitsINS_9allocatorIN5Catch3PtrINS2_22CumulativeReporterBase4NodeINS2_14TestGroupStatsENS5_INS2_13TestCaseStatsENS4_11SectionNodeEEEEEEEEEE20__construct_backwardIPSB_EEvRSC_T_SH_RSH_
FN:1652,_ZNSt3__116allocator_traitsINS_9allocatorIN5Catch8TestCaseEEEE20__construct_backwardIPS3_EEvRS4_T_S9_RS9_
FN:1652,_ZNSt3__116allocator_traitsINS_9allocatorIN5Catch5Clara11CommandLineINS2_10ConfigDataEE3ArgEEEE20__construct_backwardIPS7_EEvRS8_T_SD_RSD_
FN:1652,_ZNSt3__116allocator_traitsINS_9allocatorIN5Catch5Clara6Parser5TokenEEEE20__construct_backwardIPS5_EEvRS6_T_SB_RSB_
FN:1652,_ZNSt3__116allocator_traitsINS_9allocatorIN5Catch14SectionEndInfoEEEE20__construct_backwardIPS3_EEvRS4_T_S9_RS9_
FN:1652,_ZNSt3__116allocator_traitsINS_9allocatorIN5Catch3PtrINS2_8TestSpec7PatternEEEEEE20__construct_backwardIPS6_EEvRS7_T_SC_RSC_
FN:1652,_ZNSt3__116allocator_traitsINS_9allocatorIN5Catch11MessageInfoEEEE20__construct_backwardIPS3_EEvRS4_T_S9_RS9_
FN:1652,_ZNSt3__116allocator_traitsINS_9allocatorIN5Catch14AssertionStatsEEEE20__construct_backwardIPS3_EEvRS4_T_S9_RS9_
FN:1652,_ZNSt3__116allocator_traitsINS_9allocatorIN5Catch3PtrINS2_16TestCaseTracking8ITrackerEEEEEE20__construct_backwardIPS6_EEvRS7_T_SC_RSC_
FN:1652,_ZNSt3__116allocator_traitsINS_9allocatorIN5Catch3PtrINS2_22CumulativeReporterBase4NodeINS2_13TestCaseStatsENS4_11SectionNodeEEEEEEEE20__construct_backwardIPS9_EEvRSA_T_SF_RSF_
FN:1652,_ZNSt3__116allocator_traitsINS_9allocatorIN5Catch3PtrINS2_22CumulativeReporterBase4NodeINS2_12TestRunStatsENS5_INS2_14TestGroupStatsENS5_INS2_13TestCaseStatsENS4_11SectionNodeEEEEEEEEEEEE20__construct_backwardIPSD_EEvRSE_T_SJ_RSJ_
FN:1652,_ZNSt3__116allocator_traitsINS_9allocatorIN5Catch11SectionInfoEEEE20__construct_backwardIPS3_EEvRS4_T_S9_RS9_
FN:1652,_ZNSt3__116allocator_traitsINS_9allocatorINS_12basic_stringIcNS_11char_traitsIcEENS1_IcEEEEEEE20__construct_backwardIPS6_EEvRS7_T_SC_RSC_
FN:1671,_ZNSt3__116allocator_traitsINS_9allocatorIPN5Catch16TestCaseTracking8ITrackerEEEE20__construct_backwardIS5_EENS_9enable_ifIXaaoosr7is_sameIS6_NS1_IT_EEEE5valuentsr15__has_constructIS6_PSA_SA_EE5valuesr31is_trivially_move_constructibleISA_EE5valueEvE4typeERS6_SC_SC_RSC_
FN:1671,_ZNSt3__116allocator_traitsINS_9allocatorIPKN5Catch20IExceptionTranslatorEEEE20__construct_backwardIS5_EENS_9enable_ifIXaaoosr7is_sameIS6_NS1_IT_EEEE5valuentsr15__has_constructIS6_PSA_SA_EE5valuesr31is_trivially_move_constructibleISA_EE5valueEvE4typeERS6_SC_SC_RSC_
FN:1671,_ZNSt3__116allocator_traitsINS_9allocatorIPN5Catch14IGeneratorInfoEEEE20__construct_backwardIS4_EENS_9enable_ifIXaaoosr7is_sameIS5_NS1_IT_EEEE5valuentsr15__has_constructIS5_PS9_S9_EE5valuesr31is_trivially_move_constructibleIS9_EE5valueEvE4typeERS5_SB_SB_RSB_
FN:1671,_ZNSt3__116allocator_traitsINS_9allocatorImEEE20__construct_backwardImEENS_9enable_ifIXaaoosr7is_sameIS2_NS1_IT_EEEE5valuentsr15__has_constructIS2_PS6_S6_EE5valuesr31is_trivially_move_constructibleIS6_EE5valueEvE4typeERS2_S8_S8_RS8_
FN:1709,_ZNSt3__116allocator_traitsINS_9allocatorIN5Catch3PtrINS2_8TestSpec7PatternEEEEEE9__destroyIS6_EEvNS_17integral_constantIbLb0EEERS7_PT_
FN:1709,_ZNSt3__116allocator_traitsINS_9allocatorINS_11__tree_nodeINS_12__value_typeINS_12basic_stringIcNS_11char_traitsIcEENS1_IcEEEEN5Catch3PtrINS9_16IReporterFactoryEEEEEPvEEEEE9__destroyINS_4pairIKS8_SC_EEEEvNS_17integral_constantIbLb0EEERSG_PT_
FN:1709,_ZNSt3__116allocator_traitsINS_9allocatorIN5Catch3PtrINS2_22CumulativeReporterBase4NodeINS2_13TestCaseStatsENS4_11SectionNodeEEEEEEEE9__destroyIS9_EEvNS_17integral_constantIbLb0EEERSA_PT_
FN:1709,_ZNSt3__116allocator_traitsINS_9allocatorIN5Catch5Clara6Parser5TokenEEEE9__destroyIS5_EEvNS_17integral_constantIbLb0EEERS6_PT_
FN:1709,_ZNSt3__116allocator_traitsINS_9allocatorIN5Catch3PtrINS2_22CumulativeReporterBase4NodeINS2_14TestGroupStatsENS5_INS2_13TestCaseStatsENS4_11SectionNodeEEEEEEEEEE9__destroyISB_EEvNS_17integral_constantIbLb0EEERSC_PT_
FN:1709,_ZNSt3__116allocator_traitsINS_9allocatorIN5Catch15ConsoleReporter13SummaryColumnEEEE9__destroyIS4_EEvNS_17integral_constantIbLb0EEERS5_PT_
FN:1709,_ZNSt3__116allocator_traitsINS_9allocatorIN5Catch11MessageInfoEEEE9__destroyIS3_EEvNS_17integral_constantIbLb0EEERS4_PT_
FN:1709,_ZNSt3__116allocator_traitsINS_9allocatorIPN5Catch14IGeneratorInfoEEEE9__destroyIS4_EEvNS_17integral_constantIbLb0EEERS5_PT_
FN:1709,_ZNSt3__116allocator_traitsINS_9allocatorIN5Catch3PtrINS2_16TestCaseTracking8ITrackerEEEEEE9__destroyIS6_EEvNS_17integral_constantIbLb0EEERS7_PT_
FN:1709,_ZNSt3__116allocator_traitsINS_9allocatorINS_11__tree_nodeIN5Catch8TestCaseEPvEEEEE9__destroyIS4_EEvNS_17integral_constantIbLb0EEERS7_PT_
FN:1709,_ZNSt3__116allocator_traitsINS_9allocatorIN5Catch3PtrINS2_16IReporterFactoryEEEEEE9__destroyIS5_EEvNS_17integral_constantIbLb0EEERS6_PT_
FN:1709,_ZNSt3__116allocator_traitsINS_9allocatorIN5Catch3PtrINS2_18IStreamingReporterEEEEEE9__destroyIS5_EEvNS_17integral_constantIbLb0EEERS6_PT_
FN:1709,_ZNSt3__116allocator_traitsINS_9allocatorIN5Catch3PtrINS2_22CumulativeReporterBase4NodeINS2_12TestRunStatsENS5_INS2_14TestGroupStatsENS5_INS2_13TestCaseStatsENS4_11SectionNodeEEEEEEEEEEEE9__destroyISD_EEvNS_17integral_constantIbLb0EEERSE_PT_
FN:1709,_ZNSt3__116allocator_traitsINS_9allocatorIN5Catch14AssertionStatsEEEE9__destroyIS3_EEvNS_17integral_constantIbLb0EEERS4_PT_
FN:1709,_ZNSt3__116allocator_traitsINS_9allocatorINS_6vectorIN5Catch3PtrINS3_22CumulativeReporterBase11SectionNodeEEENS1_IS7_EEEEEEE9__destroyIS9_EEvNS_17integral_constantIbLb0EEERSA_PT_
FN:1709,_ZNSt3__116allocator_traitsINS_9allocatorINS_11__tree_nodeINS_12basic_stringIcNS_11char_traitsIcEENS1_IcEEEEPvEEEEE9__destroyIS7_EEvNS_17integral_constantIbLb0EEERSA_PT_
FN:1709,_ZNSt3__116allocator_traitsINS_9allocatorImEEE9__destroyImEEvNS_17integral_constantIbLb0EEERS2_PT_
FN:1709,_ZNSt3__116allocator_traitsINS_9allocatorIN5Catch11SectionInfoEEEE9__destroyIS3_EEvNS_17integral_constantIbLb0EEERS4_PT_
FN:1709,_ZNSt3__116allocator_traitsINS_9allocatorIN5Catch5Clara11CommandLineINS2_10ConfigDataEE3ArgEEEE9__destroyIS7_EEvNS_17integral_constantIbLb0EEERS8_PT_
FN:1709,_ZNSt3__116allocator_traitsINS_9allocatorIN5Catch8TestCaseEEEE9__destroyIS3_EEvNS_17integral_constantIbLb0EEERS4_PT_
FN:1709,_ZNSt3__116allocator_traitsINS_9allocatorINS_11__tree_nodeINS_12__value_typeINS_12basic_stringIcNS_11char_traitsIcEENS1_IcEEEEN5Catch8TagAliasEEEPvEEEEE9__destroyINS_4pairIKS8_SA_EEEEvNS_17integral_constantIbLb0EEERSE_PT_
FN:1709,_ZNSt3__116allocator_traitsINS_9allocatorINS_11__tree_nodeINS_12__value_typeINS_12basic_stringIcNS_11char_traitsIcEENS1_IcEEEEPN5Catch18IGeneratorsForTestEEEPvEEEEE9__destroyINS_4pairIKS8_SB_EEEEvNS_17integral_constantIbLb0EEERSF_PT_
FN:1709,_ZNSt3__116allocator_traitsINS_9allocatorINS_11__tree_nodeINS_12__value_typeIiN5Catch5Clara11CommandLineINS4_10ConfigDataEE3ArgEEEPvEEEEE9__destroyINS_4pairIKiS9_EEEEvNS_17integral_constantIbLb0EEERSD_PT_
FN:1709,_ZNSt3__116allocator_traitsINS_9allocatorIN5Catch14SectionEndInfoEEEE9__destroyIS3_EEvNS_17integral_constantIbLb0EEERS4_PT_
FN:1709,_ZNSt3__116allocator_traitsINS_9allocatorINS_12basic_stringIcNS_11char_traitsIcEENS1_IcEEEEEEE9__destroyIS6_EEvNS_17integral_constantIbLb0EEERS7_PT_
FN:1709,_ZNSt3__116allocator_traitsINS_9allocatorINS_11__tree_nodeINS_12__value_typeINS_12basic_stringIcNS_11char_traitsIcEENS1_IcEEEEPN5Catch14IGeneratorInfoEEEPvEEEEE9__destroyINS_4pairIKS8_SB_EEEEvNS_17integral_constantIbLb0EEERSF_PT_
FN:1709,_ZNSt3__116allocator_traitsINS_9allocatorINS_11__tree_nodeINS_12__value_typeINS_12basic_stringIcNS_11char_traitsIcEENS1_IcEEEEN5Catch7TagInfoEEEPvEEEEE9__destroyINS_4pairIKS8_SA_EEEEvNS_17integral_constantIbLb0EEERSE_PT_
FN:1709,_ZNSt3__116allocator_traitsINS_9allocatorIPN5Catch16TestCaseTracking8ITrackerEEEE9__destroyIS5_EEvNS_17integral_constantIbLb0EEERS6_PT_
FN:1709,_ZNSt3__116allocator_traitsINS_9allocatorIPKN5Catch8Matchers4Impl11MatcherBaseINS_12basic_stringIcNS_11char_traitsIcEENS1_IcEEEESA_EEEEE9__destroyISD_EEvNS_17integral_constantIbLb0EEERSE_PT_
FN:1709,_ZNSt3__116allocator_traitsINS_9allocatorIN5Catch8TestSpec6FilterEEEE9__destroyIS4_EEvNS_17integral_constantIbLb0EEERS5_PT_
FN:1709,_ZNSt3__116allocator_traitsINS_9allocatorIPKN5Catch20IExceptionTranslatorEEEE9__destroyIS5_EEvNS_17integral_constantIbLb0EEERS6_PT_
FN:1709,_ZNSt3__116allocator_traitsINS_9allocatorIN5Catch3PtrINS2_22CumulativeReporterBase11SectionNodeEEEEEE9__destroyIS6_EEvNS_17integral_constantIbLb0EEERS7_PT_
FN:1715,_ZNSt3__116allocator_traitsINS_9allocatorIN5Catch14AssertionStatsEEEE10__max_sizeENS_17integral_constantIbLb1EEERKS4_
FN:1715,_ZNSt3__116allocator_traitsINS_9allocatorIN5Catch3PtrINS2_18IStreamingReporterEEEEEE10__max_sizeENS_17integral_constantIbLb1EEERKS6_
FN:1715,_ZNSt3__116allocator_traitsINS_9allocatorIN5Catch3PtrINS2_22CumulativeReporterBase4NodeINS2_14TestGroupStatsENS5_INS2_13TestCaseStatsENS4_11SectionNodeEEEEEEEEEE10__max_sizeENS_17integral_constantIbLb1EEERKSC_
FN:1715,_ZNSt3__116allocator_traitsINS_9allocatorIN5Catch3PtrINS2_22CumulativeReporterBase4NodeINS2_13TestCaseStatsENS4_11SectionNodeEEEEEEEE10__max_sizeENS_17integral_constantIbLb1EEERKSA_
FN:1715,_ZNSt3__116allocator_traitsINS_9allocatorIPN5Catch14IGeneratorInfoEEEE10__max_sizeENS_17integral_constantIbLb1EEERKS5_
FN:1715,_ZNSt3__116allocator_traitsINS_9allocatorIN5Catch11SectionInfoEEEE10__max_sizeENS_17integral_constantIbLb1EEERKS4_
FN:1715,_ZNSt3__116allocator_traitsINS_9allocatorIN5Catch5Clara6Parser5TokenEEEE10__max_sizeENS_17integral_constantIbLb1EEERKS6_
FN:1715,_ZNSt3__116allocator_traitsINS_9allocatorIN5Catch15ConsoleReporter13SummaryColumnEEEE10__max_sizeENS_17integral_constantIbLb1EEERKS5_
FN:1715,_ZNSt3__116allocator_traitsINS_9allocatorImEEE10__max_sizeENS_17integral_constantIbLb1EEERKS2_
FN:1715,_ZNSt3__116allocator_traitsINS_9allocatorIN5Catch3PtrINS2_16TestCaseTracking8ITrackerEEEEEE10__max_sizeENS_17integral_constantIbLb1EEERKS7_
FN:1715,_ZNSt3__116allocator_traitsINS_9allocatorIN5Catch8TestSpec6FilterEEEE10__max_sizeENS_17integral_constantIbLb1EEERKS5_
FN:1715,_ZNSt3__116allocator_traitsINS_9allocatorIN5Catch3PtrINS2_8TestSpec7PatternEEEEEE10__max_sizeENS_17integral_constantIbLb1EEERKS7_
FN:1715,_ZNSt3__116allocator_traitsINS_9allocatorIN5Catch3PtrINS2_16IReporterFactoryEEEEEE10__max_sizeENS_17integral_constantIbLb1EEERKS6_
FN:1715,_ZNSt3__116allocator_traitsINS_9allocatorIN5Catch8TestCaseEEEE10__max_sizeENS_17integral_constantIbLb1EEERKS4_
FN:1715,_ZNSt3__116allocator_traitsINS_9allocatorIPKN5Catch20IExceptionTranslatorEEEE10__max_sizeENS_17integral_constantIbLb1EEERKS6_
FN:1715,_ZNSt3__116allocator_traitsINS_9allocatorIN5Catch14SectionEndInfoEEEE10__max_sizeENS_17integral_constantIbLb1EEERKS4_
FN:1715,_ZNSt3__116allocator_traitsINS_9allocatorIN5Catch11MessageInfoEEEE10__max_sizeENS_17integral_constantIbLb1EEERKS4_
FN:1715,_ZNSt3__116allocator_traitsINS_9allocatorIN5Catch5Clara11CommandLineINS2_10ConfigDataEE3ArgEEEE10__max_sizeENS_17integral_constantIbLb1EEERKS8_
FN:1715,_ZNSt3__116allocator_traitsINS_9allocatorIcEEE10__max_sizeENS_17integral_constantIbLb1EEERKS2_
FN:1715,_ZNSt3__116allocator_traitsINS_9allocatorIPN5Catch16TestCaseTracking8ITrackerEEEE10__max_sizeENS_17integral_constantIbLb1EEERKS6_
FN:1715,_ZNSt3__116allocator_traitsINS_9allocatorIN5Catch3PtrINS2_22CumulativeReporterBase4NodeINS2_12TestRunStatsENS5_INS2_14TestGroupStatsENS5_INS2_13TestCaseStatsENS4_11SectionNodeEEEEEEEEEEEE10__max_sizeENS_17integral_constantIbLb1EEERKSE_
FN:1715,_ZNSt3__116allocator_traitsINS_9allocatorINS_12basic_stringIcNS_11char_traitsIcEENS1_IcEEEEEEE10__max_sizeENS_17integral_constantIbLb1EEERKS7_
FN:1715,_ZNSt3__116allocator_traitsINS_9allocatorIN5Catch3PtrINS2_22CumulativeReporterBase11SectionNodeEEEEEE10__max_sizeENS_17integral_constantIbLb1EEERKS7_
FN:1727,_ZNSt3__116allocator_traitsINS_9allocatorIN5Catch8TestSpec6FilterEEEE37select_on_container_copy_constructionENS_17integral_constantIbLb0EEERKS5_
FN:1727,_ZNSt3__116allocator_traitsINS_9allocatorINS_11__tree_nodeINS_12basic_stringIcNS_11char_traitsIcEENS1_IcEEEEPvEEEEE37select_on_container_copy_constructionENS_17integral_constantIbLb0EEERKSA_
FN:1727,_ZNSt3__116allocator_traitsINS_9allocatorIN5Catch3PtrINS2_16IReporterFactoryEEEEEE37select_on_container_copy_constructionENS_17integral_constantIbLb0EEERKS6_
FN:1727,_ZNSt3__116allocator_traitsINS_9allocatorIN5Catch5Clara6Parser5TokenEEEE37select_on_container_copy_constructionENS_17integral_constantIbLb0EEERKS6_
FN:1727,_ZNSt3__116allocator_traitsINS_9allocatorIN5Catch11MessageInfoEEEE37select_on_container_copy_constructionENS_17integral_constantIbLb0EEERKS4_
FN:1727,_ZNSt3__116allocator_traitsINS_9allocatorIN5Catch3PtrINS2_8TestSpec7PatternEEEEEE37select_on_container_copy_constructionENS_17integral_constantIbLb0EEERKS7_
FN:1727,_ZNSt3__116allocator_traitsINS_9allocatorIN5Catch8TestCaseEEEE37select_on_container_copy_constructionENS_17integral_constantIbLb0EEERKS4_
FN:1727,_ZNSt3__116allocator_traitsINS_9allocatorINS_12basic_stringIcNS_11char_traitsIcEENS1_IcEEEEEEE37select_on_container_copy_constructionENS_17integral_constantIbLb0EEERKS7_
FN:1760,_ZNSt3__19allocatorIN5Catch5Clara6Parser5TokenEEC2Ev
FN:1760,_ZNSt3__19allocatorIcEC2Ev
FN:1760,_ZNSt3__19allocatorIN5Catch5Clara11CommandLineINS1_10ConfigDataEE3ArgEEC2Ev
FN:1760,_ZNSt3__19allocatorIN5Catch3PtrINS1_18IStreamingReporterEEEEC2Ev
FN:1760,_ZNSt3__19allocatorIN5Catch3PtrINS1_16IReporterFactoryEEEEC2Ev
FN:1760,_ZNSt3__19allocatorIN5Catch8TestSpec6FilterEEC2Ev
FN:1760,_ZNSt3__19allocatorIN5Catch3PtrINS1_22CumulativeReporterBase4NodeINS1_13TestCaseStatsENS3_11SectionNodeEEEEEEC2Ev
FN:1760,_ZNSt3__19allocatorIN5Catch11SectionInfoEEC2Ev
FN:1760,_ZNSt3__19allocatorINS_6vectorIN5Catch3PtrINS2_22CumulativeReporterBase11SectionNodeEEENS0_IS6_EEEEEC2Ev
FN:1760,_ZNSt3__19allocatorIN5Catch3PtrINS1_16TestCaseTracking8ITrackerEEEEC2Ev
FN:1760,_ZNSt3__19allocatorIN5Catch3PtrINS1_22CumulativeReporterBase11SectionNodeEEEEC2Ev
FN:1760,_ZNSt3__19allocatorINS_11__tree_nodeINS_12__value_typeINS_12basic_stringIcNS_11char_traitsIcEENS0_IcEEEEN5Catch7TagInfoEEEPvEEEC2Ev
FN:1760,_ZNSt3__19allocatorINS_12basic_stringIcNS_11char_traitsIcEENS0_IcEEEEEC2Ev
FN:1760,_ZNSt3__19allocatorIN5Catch8TestCaseEEC2Ev
FN:1760,_ZNSt3__19allocatorIPN5Catch16TestCaseTracking8ITrackerEEC2Ev
FN:1760,_ZNSt3__19allocatorIN5Catch3PtrINS1_8TestSpec7PatternEEEEC2Ev
FN:1760,_ZNSt3__19allocatorImEC2Ev
FN:1760,_ZNSt3__19allocatorIPKN5Catch8Matchers4Impl11MatcherBaseINS_12basic_stringIcNS_11char_traitsIcEENS0_IcEEEES9_EEEC2Ev
FN:1760,_ZNSt3__19allocatorIN5Catch3PtrINS1_22CumulativeReporterBase4NodeINS1_12TestRunStatsENS4_INS1_14TestGroupStatsENS4_INS1_13TestCaseStatsENS3_11SectionNodeEEEEEEEEEEC2Ev
FN:1760,_ZNSt3__19allocatorIN5Catch14AssertionStatsEEC2Ev
FN:1760,_ZNSt3__19allocatorIN5Catch3PtrINS1_22CumulativeReporterBase4NodeINS1_14TestGroupStatsENS4_INS1_13TestCaseStatsENS3_11SectionNodeEEEEEEEEC2Ev
FN:1760,_ZNSt3__19allocatorINS_11__tree_nodeINS_12__value_typeINS_12basic_stringIcNS_11char_traitsIcEENS0_IcEEEEPN5Catch14IGeneratorInfoEEEPvEEEC2Ev
FN:1760,_ZNSt3__19allocatorINS_11__tree_nodeINS_12__value_typeIiN5Catch5Clara11CommandLineINS3_10ConfigDataEE3ArgEEEPvEEEC2Ev
FN:1760,_ZNSt3__19allocatorIN5Catch15ConsoleReporter13SummaryColumnEEC2Ev
FN:1760,_ZNSt3__19allocatorINS_11__tree_nodeINS_12basic_stringIcNS_11char_traitsIcEENS0_IcEEEEPvEEEC2Ev
FN:1760,_ZNSt3__19allocatorINS_11__tree_nodeIN5Catch8TestCaseEPvEEEC2Ev
FN:1760,_ZNSt3__19allocatorIPKN5Catch20IExceptionTranslatorEEC2Ev
FN:1760,_ZNSt3__19allocatorIN5Catch14SectionEndInfoEEC2Ev
FN:1760,_ZNSt3__19allocatorINS_11__tree_nodeINS_12__value_typeINS_12basic_stringIcNS_11char_traitsIcEENS0_IcEEEEN5Catch3PtrINS8_16IReporterFactoryEEEEEPvEEEC2Ev
FN:1760,_ZNSt3__19allocatorINS_11__tree_nodeINS_12__value_typeINS_12basic_stringIcNS_11char_traitsIcEENS0_IcEEEEPN5Catch18IGeneratorsForTestEEEPvEEEC2Ev
FN:1760,_ZNSt3__19allocatorINS_11__tree_nodeINS_12__value_typeINS_12basic_stringIcNS_11char_traitsIcEENS0_IcEEEEN5Catch8TagAliasEEEPvEEEC2Ev
FN:1760,_ZNSt3__19allocatorIwEC2Ev
FN:1760,_ZNSt3__19allocatorIN5Catch11MessageInfoEEC2Ev
FN:1760,_ZNSt3__19allocatorIPN5Catch14IGeneratorInfoEEC2Ev
FN:1766,_ZNSt3__19allocatorIN5Catch3PtrINS1_22CumulativeReporterBase4NodeINS1_14TestGroupStatsENS4_INS1_13TestCaseStatsENS3_11SectionNodeEEEEEEEE8allocateEmPKv
FN:1766,_ZNSt3__19allocatorIPN5Catch14IGeneratorInfoEE8allocateEmPKv
FN:1766,_ZNSt3__19allocatorIN5Catch3PtrINS1_18IStreamingReporterEEEE8allocateEmPKv
FN:1766,_ZNSt3__19allocatorIN5Catch11SectionInfoEE8allocateEmPKv
FN:1766,_ZNSt3__19allocatorIN5Catch3PtrINS1_8TestSpec7PatternEEEE8allocateEmPKv
FN:1766,_ZNSt3__19allocatorINS_11__tree_nodeINS_12__value_typeINS_12basic_stringIcNS_11char_traitsIcEENS0_IcEEEEPN5Catch14IGeneratorInfoEEEPvEEE8allocateEmPKv
FN:1766,_ZNSt3__19allocatorIN5Catch15ConsoleReporter13SummaryColumnEE8allocateEmPKv
FN:1766,_ZNSt3__19allocatorIN5Catch11MessageInfoEE8allocateEmPKv
FN:1766,_ZNSt3__19allocatorIN5Catch3PtrINS1_22CumulativeReporterBase11SectionNodeEEEE8allocateEmPKv
FN:1766,_ZNSt3__19allocatorIN5Catch3PtrINS1_16TestCaseTracking8ITrackerEEEE8allocateEmPKv
FN:1766,_ZNSt3__19allocatorIN5Catch8TestCaseEE8allocateEmPKv
FN:1766,_ZNSt3__19allocatorIN5Catch3PtrINS1_22CumulativeReporterBase4NodeINS1_12TestRunStatsENS4_INS1_14TestGroupStatsENS4_INS1_13TestCaseStatsENS3_11SectionNodeEEEEEEEEEE8allocateEmPKv
FN:1766,_ZNSt3__19allocatorIN5Catch5Clara6Parser5TokenEE8allocateEmPKv
FN:1766,_ZNSt3__19allocatorIN5Catch3PtrINS1_22CumulativeReporterBase4NodeINS1_13TestCaseStatsENS3_11SectionNodeEEEEEE8allocateEmPKv
FN:1766,_ZNSt3__19allocatorINS_11__tree_nodeINS_12__value_typeINS_12basic_stringIcNS_11char_traitsIcEENS0_IcEEEEN5Catch7TagInfoEEEPvEEE8allocateEmPKv
FN:1766,_ZNSt3__19allocatorINS_12basic_stringIcNS_11char_traitsIcEENS0_IcEEEEE8allocateEmPKv
FN:1766,_ZNSt3__19allocatorIN5Catch8TestSpec6FilterEE8allocateEmPKv
FN:1766,_ZNSt3__19allocatorIPKN5Catch20IExceptionTranslatorEE8allocateEmPKv
FN:1766,_ZNSt3__19allocatorIN5Catch14SectionEndInfoEE8allocateEmPKv
FN:1766,_ZNSt3__19allocatorIN5Catch5Clara11CommandLineINS1_10ConfigDataEE3ArgEE8allocateEmPKv
FN:1766,_ZNSt3__19allocatorINS_11__tree_nodeINS_12__value_typeINS_12basic_stringIcNS_11char_traitsIcEENS0_IcEEEEN5Catch8TagAliasEEEPvEEE8allocateEmPKv
FN:1766,_ZNSt3__19allocatorIN5Catch14AssertionStatsEE8allocateEmPKv
FN:1766,_ZNSt3__19allocatorIcE8allocateEmPKv
FN:1766,_ZNSt3__19allocatorINS_11__tree_nodeINS_12__value_typeINS_12basic_stringIcNS_11char_traitsIcEENS0_IcEEEEN5Catch3PtrINS8_16IReporterFactoryEEEEEPvEEE8allocateEmPKv
FN:1766,_ZNSt3__19allocatorIN5Catch3PtrINS1_16IReporterFactoryEEEE8allocateEmPKv
FN:1766,_ZNSt3__19allocatorINS_11__tree_nodeINS_12basic_stringIcNS_11char_traitsIcEENS0_IcEEEEPvEEE8allocateEmPKv
FN:1766,_ZNSt3__19allocatorINS_11__tree_nodeINS_12__value_typeINS_12basic_stringIcNS_11char_traitsIcEENS0_IcEEEEPN5Catch18IGeneratorsForTestEEEPvEEE8allocateEmPKv
FN:1766,_ZNSt3__19allocatorIPN5Catch16TestCaseTracking8ITrackerEE8allocateEmPKv
FN:1766,_ZNSt3__19allocatorImE8allocateEmPKv
FN:1766,_ZNSt3__19allocatorINS_11__tree_nodeIN5Catch8TestCaseEPvEEE8allocateEmPKv
FN:1773,_ZNSt3__19allocatorINS_6vectorIN5Catch3PtrINS2_22CumulativeReporterBase11SectionNodeEEENS0_IS6_EEEEE10deallocateEPS8_m
FN:1773,_ZNSt3__19allocatorIN5Catch5Clara11CommandLineINS1_10ConfigDataEE3ArgEE10deallocateEPS6_m
FN:1773,_ZNSt3__19allocatorIN5Catch8TestSpec6FilterEE10deallocateEPS3_m
FN:1773,_ZNSt3__19allocatorIN5Catch8TestCaseEE10deallocateEPS2_m
FN:1773,_ZNSt3__19allocatorINS_11__tree_nodeINS_12__value_typeIiN5Catch5Clara11CommandLineINS3_10ConfigDataEE3ArgEEEPvEEE10deallocateEPSB_m
FN:1773,_ZNSt3__19allocatorINS_11__tree_nodeINS_12__value_typeINS_12basic_stringIcNS_11char_traitsIcEENS0_IcEEEEN5Catch7TagInfoEEEPvEEE10deallocateEPSC_m
FN:1773,_ZNSt3__19allocatorIPKN5Catch20IExceptionTranslatorEE10deallocateEPS4_m
FN:1773,_ZNSt3__19allocatorImE10deallocateEPmm
FN:1773,_ZNSt3__19allocatorIN5Catch3PtrINS1_8TestSpec7PatternEEEE10deallocateEPS5_m
FN:1773,_ZNSt3__19allocatorINS_11__tree_nodeINS_12__value_typeINS_12basic_stringIcNS_11char_traitsIcEENS0_IcEEEEPN5Catch18IGeneratorsForTestEEEPvEEE10deallocateEPSD_m
FN:1773,_ZNSt3__19allocatorINS_11__tree_nodeINS_12__value_typeINS_12basic_stringIcNS_11char_traitsIcEENS0_IcEEEEN5Catch3PtrINS8_16IReporterFactoryEEEEEPvEEE10deallocateEPSE_m
FN:1773,_ZNSt3__19allocatorIN5Catch5Clara6Parser5TokenEE10deallocateEPS4_m
FN:1773,_ZNSt3__19allocatorINS_11__tree_nodeIN5Catch8TestCaseEPvEEE10deallocateEPS5_m
FN:1773,_ZNSt3__19allocatorIN5Catch11SectionInfoEE10deallocateEPS2_m
FN:1773,_ZNSt3__19allocatorIN5Catch15ConsoleReporter13SummaryColumnEE10deallocateEPS3_m
FN:1773,_ZNSt3__19allocatorIPKN5Catch8Matchers4Impl11MatcherBaseINS_12basic_stringIcNS_11char_traitsIcEENS0_IcEEEES9_EEE10deallocateEPSC_m
FN:1773,_ZNSt3__19allocatorIN5Catch3PtrINS1_22CumulativeReporterBase11SectionNodeEEEE10deallocateEPS5_m
FN:1773,_ZNSt3__19allocatorIN5Catch3PtrINS1_16TestCaseTracking8ITrackerEEEE10deallocateEPS5_m
FN:1773,_ZNSt3__19allocatorINS_11__tree_nodeINS_12__value_typeINS_12basic_stringIcNS_11char_traitsIcEENS0_IcEEEEPN5Catch14IGeneratorInfoEEEPvEEE10deallocateEPSD_m
FN:1773,_ZNSt3__19allocatorIN5Catch3PtrINS1_16IReporterFactoryEEEE10deallocateEPS4_m
FN:1773,_ZNSt3__19allocatorIN5Catch14SectionEndInfoEE10deallocateEPS2_m
FN:1773,_ZNSt3__19allocatorIN5Catch3PtrINS1_18IStreamingReporterEEEE10deallocateEPS4_m
FN:1773,_ZNSt3__19allocatorINS_12basic_stringIcNS_11char_traitsIcEENS0_IcEEEEE10deallocateEPS5_m
FN:1773,_ZNSt3__19allocatorIPN5Catch16TestCaseTracking8ITrackerEE10deallocateEPS4_m
FN:1773,_ZNSt3__19allocatorIPN5Catch14IGeneratorInfoEE10deallocateEPS3_m
FN:1773,_ZNSt3__19allocatorINS_11__tree_nodeINS_12__value_typeINS_12basic_stringIcNS_11char_traitsIcEENS0_IcEEEEN5Catch8TagAliasEEEPvEEE10deallocateEPSC_m
FN:1773,_ZNSt3__19allocatorIN5Catch3PtrINS1_22CumulativeReporterBase4NodeINS1_12TestRunStatsENS4_INS1_14TestGroupStatsENS4_INS1_13TestCaseStatsENS3_11SectionNodeEEEEEEEEEE10deallocateEPSC_m
FN:1773,_ZNSt3__19allocatorIN5Catch3PtrINS1_22CumulativeReporterBase4NodeINS1_14TestGroupStatsENS4_INS1_13TestCaseStatsENS3_11SectionNodeEEEEEEEE10deallocateEPSA_m
FN:1773,_ZNSt3__19allocatorIN5Catch3PtrINS1_22CumulativeReporterBase4NodeINS1_13TestCaseStatsENS3_11SectionNodeEEEEEE10deallocateEPS8_m
FN:1773,_ZNSt3__19allocatorINS_11__tree_nodeINS_12basic_stringIcNS_11char_traitsIcEENS0_IcEEEEPvEEE10deallocateEPS8_m
FN:1773,_ZNSt3__19allocatorIN5Catch14AssertionStatsEE10deallocateEPS2_m
FN:1773,_ZNSt3__19allocatorIN5Catch11MessageInfoEE10deallocateEPS2_m
FN:1775,_ZNKSt3__19allocatorINS_11__tree_nodeINS_12__value_typeINS_12basic_stringIcNS_11char_traitsIcEENS0_IcEEEEPN5Catch18IGeneratorsForTestEEEPvEEE8max_sizeEv
FN:1775,_ZNKSt3__19allocatorIPN5Catch16TestCaseTracking8ITrackerEE8max_sizeEv
FN:1775,_ZNKSt3__19allocatorIN5Catch15ConsoleReporter13SummaryColumnEE8max_sizeEv
FN:1775,_ZNKSt3__19allocatorIN5Catch5Clara11CommandLineINS1_10ConfigDataEE3ArgEE8max_sizeEv
FN:1775,_ZNKSt3__19allocatorIN5Catch3PtrINS1_16IReporterFactoryEEEE8max_sizeEv
FN:1775,_ZNKSt3__19allocatorImE8max_sizeEv
FN:1775,_ZNKSt3__19allocatorIN5Catch3PtrINS1_22CumulativeReporterBase11SectionNodeEEEE8max_sizeEv
FN:1775,_ZNKSt3__19allocatorIN5Catch8TestSpec6FilterEE8max_sizeEv
FN:1775,_ZNKSt3__19allocatorIN5Catch3PtrINS1_8TestSpec7PatternEEEE8max_sizeEv
FN:1775,_ZNKSt3__19allocatorIN5Catch5Clara6Parser5TokenEE8max_sizeEv
FN:1775,_ZNKSt3__19allocatorINS_11__tree_nodeINS_12basic_stringIcNS_11char_traitsIcEENS0_IcEEEEPvEEE8max_sizeEv
FN:1775,_ZNKSt3__19allocatorIN5Catch3PtrINS1_22CumulativeReporterBase4NodeINS1_14TestGroupStatsENS4_INS1_13TestCaseStatsENS3_11SectionNodeEEEEEEEE8max_sizeEv
FN:1775,_ZNKSt3__19allocatorIPKN5Catch20IExceptionTranslatorEE8max_sizeEv
FN:1775,_ZNKSt3__19allocatorIN5Catch11SectionInfoEE8max_sizeEv
FN:1775,_ZNKSt3__19allocatorINS_11__tree_nodeINS_12__value_typeINS_12basic_stringIcNS_11char_traitsIcEENS0_IcEEEEPN5Catch14IGeneratorInfoEEEPvEEE8max_sizeEv
FN:1775,_ZNKSt3__19allocatorINS_11__tree_nodeINS_12__value_typeINS_12basic_stringIcNS_11char_traitsIcEENS0_IcEEEEN5Catch8TagAliasEEEPvEEE8max_sizeEv
FN:1775,_ZNKSt3__19allocatorIN5Catch14AssertionStatsEE8max_sizeEv
FN:1775,_ZNKSt3__19allocatorIN5Catch14SectionEndInfoEE8max_sizeEv
FN:1775,_ZNKSt3__19allocatorIN5Catch3PtrINS1_16TestCaseTracking8ITrackerEEEE8max_sizeEv
FN:1775,_ZNKSt3__19allocatorIN5Catch3PtrINS1_22CumulativeReporterBase4NodeINS1_13TestCaseStatsENS3_11SectionNodeEEEEEE8max_sizeEv
FN:1775,_ZNKSt3__19allocatorIN5Catch8TestCaseEE8max_sizeEv
FN:1775,_ZNKSt3__19allocatorINS_11__tree_nodeINS_12__value_typeINS_12basic_stringIcNS_11char_traitsIcEENS0_IcEEEEN5Catch7TagInfoEEEPvEEE8max_sizeEv
FN:1775,_ZNKSt3__19allocatorINS_12basic_stringIcNS_11char_traitsIcEENS0_IcEEEEE8max_sizeEv
FN:1775,_ZNKSt3__19allocatorIcE8max_sizeEv
FN:1775,_ZNKSt3__19allocatorIN5Catch11MessageInfoEE8max_sizeEv
FN:1775,_ZNKSt3__19allocatorIPN5Catch14IGeneratorInfoEE8max_sizeEv
FN:1775,_ZNKSt3__19allocatorIN5Catch3PtrINS1_22CumulativeReporterBase4NodeINS1_12TestRunStatsENS4_INS1_14TestGroupStatsENS4_INS1_13TestCaseStatsENS3_11SectionNodeEEEEEEEEEE8max_sizeEv
FN:1775,_ZNKSt3__19allocatorIN5Catch3PtrINS1_18IStreamingReporterEEEE8max_sizeEv
FN:1775,_ZNKSt3__19allocatorINS_11__tree_nodeINS_12__value_typeINS_12basic_stringIcNS_11char_traitsIcEENS0_IcEEEEN5Catch3PtrINS8_16IReporterFactoryEEEEEPvEEE8max_sizeEv
FN:1775,_ZNKSt3__19allocatorINS_11__tree_nodeIN5Catch8TestCaseEPvEEE8max_sizeEv
FN:2013,_ZNSt3__18auto_ptrIN5Catch5Clara11CommandLineINS1_10ConfigDataEE3ArgEEC1EPS6_
FN:2013,_ZNSt3__18auto_ptrIKN5Catch7IStreamEEC1EPS3_
FN:2013,_ZNSt3__18auto_ptrIKN5Catch7IStreamEEC2EPS3_
FN:2013,_ZNSt3__18auto_ptrIN5Catch13StreamBufBaseEEC2EPS2_
FN:2013,_ZNSt3__18auto_ptrIN5Catch5Clara11CommandLineINS1_10ConfigDataEE3ArgEEC2EPS6_
FN:2013,_ZNSt3__18auto_ptrIN5Catch13StreamBufBaseEEC1EPS2_
FN:2023,_ZNSt3__18auto_ptrIKN5Catch7IStreamEED2Ev
FN:2023,_ZNSt3__18auto_ptrIN5Catch13StreamBufBaseEED1Ev
FN:2023,_ZNSt3__18auto_ptrIN5Catch13StreamBufBaseEED2Ev
FN:2023,_ZNSt3__18auto_ptrIKN5Catch7IStreamEED1Ev
FN:2023,_ZNSt3__18auto_ptrIN5Catch5Clara11CommandLineINS1_10ConfigDataEE3ArgEED2Ev
FN:2023,_ZNSt3__18auto_ptrIN5Catch5Clara11CommandLineINS1_10ConfigDataEE3ArgEED1Ev
FN:2027,_ZNKSt3__18auto_ptrIKN5Catch7IStreamEEptEv
FN:2027,_ZNKSt3__18auto_ptrIN5Catch5Clara11CommandLineINS1_10ConfigDataEE3ArgEEptEv
FN:2028,_ZNKSt3__18auto_ptrIN5Catch13StreamBufBaseEE3getEv
FN:2028,_ZNKSt3__18auto_ptrIN5Catch5Clara11CommandLineINS1_10ConfigDataEE3ArgEE3getEv
FN:2035,_ZNSt3__18auto_ptrIN5Catch5Clara11CommandLineINS1_10ConfigDataEE3ArgEE5resetEPS6_
FN:2104,_ZNSt3__128__libcpp_compressed_pair_impIP7__sFILEPFiS2_ELj0EEC2ES2_S4_
FN:2104,_ZNSt3__128__libcpp_compressed_pair_impIPN5Catch11MessageInfoERNS_9allocatorIS2_EELj0EEC2ES3_S6_
FN:2104,_ZNSt3__128__libcpp_compressed_pair_impIPPN5Catch16TestCaseTracking8ITrackerERNS_9allocatorIS4_EELj0EEC2ES5_S8_
FN:2104,_ZNSt3__128__libcpp_compressed_pair_impIPNS_11__tree_nodeIN5Catch8TestCaseEPvEENS_22__tree_node_destructorINS_9allocatorIS5_EEEELj0EEC2ES6_SA_
FN:2104,_ZNSt3__128__libcpp_compressed_pair_impIPN5Catch3PtrINS1_22CumulativeReporterBase4NodeINS1_12TestRunStatsENS4_INS1_14TestGroupStatsENS4_INS1_13TestCaseStatsENS3_11SectionNodeEEEEEEEEERNS_9allocatorISC_EELj0EEC2ESD_SG_
FN:2104,_ZNSt3__128__libcpp_compressed_pair_impIPN5Catch5Clara11CommandLineINS1_10ConfigDataEE3ArgERNS_9allocatorIS6_EELj0EEC2ES7_SA_
FN:2104,_ZNSt3__128__libcpp_compressed_pair_impIPN5Catch3PtrINS1_22CumulativeReporterBase4NodeINS1_14TestGroupStatsENS4_INS1_13TestCaseStatsENS3_11SectionNodeEEEEEEERNS_9allocatorISA_EELj0EEC2ESB_SE_
FN:2104,_ZNSt3__128__libcpp_compressed_pair_impIPPKN5Catch20IExceptionTranslatorERNS_9allocatorIS4_EELj0EEC2ES5_S8_
FN:2104,_ZNSt3__128__libcpp_compressed_pair_impIPN5Catch3PtrINS1_18IStreamingReporterEEERNS_9allocatorIS4_EELj0EEC2ES5_S8_
FN:2104,_ZNSt3__128__libcpp_compressed_pair_impIPN5Catch14SectionEndInfoERNS_9allocatorIS2_EELj0EEC2ES3_S6_
FN:2104,_ZNSt3__128__libcpp_compressed_pair_impIPN5Catch3PtrINS1_8TestSpec7PatternEEERNS_9allocatorIS5_EELj0EEC2ES6_S9_
FN:2104,_ZNSt3__128__libcpp_compressed_pair_impIPN5Catch11SectionInfoERNS_9allocatorIS2_EELj0EEC2ES3_S6_
FN:2104,_ZNSt3__128__libcpp_compressed_pair_impIPNS_12basic_stringIcNS_11char_traitsIcEENS_9allocatorIcEEEERNS4_IS6_EELj0EEC2ES7_S9_
FN:2104,_ZNSt3__128__libcpp_compressed_pair_impIPN5Catch5Clara6Parser5TokenERNS_9allocatorIS4_EELj0EEC2ES5_S8_
FN:2104,_ZNSt3__128__libcpp_compressed_pair_impIPNS_11__tree_nodeINS_12basic_stringIcNS_11char_traitsIcEENS_9allocatorIcEEEEPvEENS_22__tree_node_destructorINS5_IS9_EEEELj0EEC2ESA_SD_
FN:2104,_ZNSt3__128__libcpp_compressed_pair_impIPPN5Catch14IGeneratorInfoERNS_9allocatorIS3_EELj0EEC2ES4_S7_
FN:2104,_ZNSt3__128__libcpp_compressed_pair_impIPNS_11__tree_nodeINS_12__value_typeINS_12basic_stringIcNS_11char_traitsIcEENS_9allocatorIcEEEEN5Catch7TagInfoEEEPvEENS_22__tree_node_destructorINS6_ISD_EEEELj0EEC2ESE_SH_
FN:2104,_ZNSt3__128__libcpp_compressed_pair_impIPN5Catch3PtrINS1_16IReporterFactoryEEERNS_9allocatorIS4_EELj0EEC2ES5_S8_
FN:2104,_ZNSt3__128__libcpp_compressed_pair_impIPN5Catch3PtrINS1_22CumulativeReporterBase4NodeINS1_13TestCaseStatsENS3_11SectionNodeEEEEERNS_9allocatorIS8_EELj0EEC2ES9_SC_
FN:2104,_ZNSt3__128__libcpp_compressed_pair_impIPNS_11__tree_nodeINS_12__value_typeINS_12basic_stringIcNS_11char_traitsIcEENS_9allocatorIcEEEEN5Catch3PtrINS9_16IReporterFactoryEEEEEPvEENS_22__tree_node_destructorINS6_ISF_EEEELj0EEC2ESG_SJ_
FN:2104,_ZNSt3__128__libcpp_compressed_pair_impIPN5Catch3PtrINS1_22CumulativeReporterBase11SectionNodeEEERNS_9allocatorIS5_EELj0EEC2ES6_S9_
FN:2104,_ZNSt3__128__libcpp_compressed_pair_impIPNS_11__tree_nodeINS_12__value_typeINS_12basic_stringIcNS_11char_traitsIcEENS_9allocatorIcEEEEN5Catch8TagAliasEEEPvEENS_22__tree_node_destructorINS6_ISD_EEEELj0EEC2ESE_SH_
FN:2104,_ZNSt3__128__libcpp_compressed_pair_impIPN5Catch15ConsoleReporter13SummaryColumnERNS_9allocatorIS3_EELj0EEC2ES4_S7_
FN:2104,_ZNSt3__128__libcpp_compressed_pair_impIPN5Catch8TestCaseERNS_9allocatorIS2_EELj0EEC2ES3_S6_
FN:2104,_ZNSt3__128__libcpp_compressed_pair_impIPN5Catch14AssertionStatsERNS_9allocatorIS2_EELj0EEC2ES3_S6_
FN:2104,_ZNSt3__128__libcpp_compressed_pair_impIPmRNS_9allocatorImEELj0EEC2ES1_S4_
FN:2104,_ZNSt3__128__libcpp_compressed_pair_impIPN5Catch3PtrINS1_16TestCaseTracking8ITrackerEEERNS_9allocatorIS5_EELj0EEC2ES6_S9_
FN:2104,_ZNSt3__128__libcpp_compressed_pair_impIPNS_11__tree_nodeINS_12__value_typeINS_12basic_stringIcNS_11char_traitsIcEENS_9allocatorIcEEEEPN5Catch18IGeneratorsForTestEEEPvEENS_22__tree_node_destructorINS6_ISE_EEEELj0EEC2ESF_SI_
FN:2104,_ZNSt3__128__libcpp_compressed_pair_impIPN5Catch8TestSpec6FilterERNS_9allocatorIS3_EELj0EEC2ES4_S7_
FN:2104,_ZNSt3__128__libcpp_compressed_pair_impIPNS_11__tree_nodeINS_12__value_typeINS_12basic_stringIcNS_11char_traitsIcEENS_9allocatorIcEEEEPN5Catch14IGeneratorInfoEEEPvEENS_22__tree_node_destructorINS6_ISE_EEEELj0EEC2ESF_SI_
FN:2122,_ZNSt3__128__libcpp_compressed_pair_impIPNS_11__tree_nodeIN5Catch8TestCaseEPvEENS_22__tree_node_destructorINS_9allocatorIS5_EEEELj0EE5firstEv
FN:2122,_ZNSt3__128__libcpp_compressed_pair_impIPN5Catch14SectionEndInfoERNS_9allocatorIS2_EELj0EE5firstEv
FN:2122,_ZNSt3__128__libcpp_compressed_pair_impIPPN5Catch16TestCaseTracking8ITrackerERNS_9allocatorIS4_EELj0EE5firstEv
FN:2122,_ZNSt3__128__libcpp_compressed_pair_impIPN5Catch11MessageInfoERNS_9allocatorIS2_EELj0EE5firstEv
FN:2122,_ZNSt3__128__libcpp_compressed_pair_impIPN5Catch3PtrINS1_22CumulativeReporterBase4NodeINS1_13TestCaseStatsENS3_11SectionNodeEEEEERNS_9allocatorIS8_EELj0EE5firstEv
FN:2122,_ZNSt3__128__libcpp_compressed_pair_impIPPKN5Catch20IExceptionTranslatorERNS_9allocatorIS4_EELj0EE5firstEv
FN:2122,_ZNSt3__128__libcpp_compressed_pair_impIPN5Catch3PtrINS1_22CumulativeReporterBase11SectionNodeEEERNS_9allocatorIS5_EELj0EE5firstEv
FN:2122,_ZNSt3__128__libcpp_compressed_pair_impIPN5Catch8TestSpec6FilterERNS_9allocatorIS3_EELj0EE5firstEv
FN:2122,_ZNSt3__128__libcpp_compressed_pair_impIPNS_11__tree_nodeINS_12__value_typeINS_12basic_stringIcNS_11char_traitsIcEENS_9allocatorIcEEEEPN5Catch18IGeneratorsForTestEEEPvEENS_22__tree_node_destructorINS6_ISE_EEEELj0EE5firstEv
FN:2122,_ZNSt3__128__libcpp_compressed_pair_impIPNS_11__tree_nodeINS_12__value_typeINS_12basic_stringIcNS_11char_traitsIcEENS_9allocatorIcEEEEPN5Catch14IGeneratorInfoEEEPvEENS_22__tree_node_destructorINS6_ISE_EEEELj0EE5firstEv
FN:2122,_ZNSt3__128__libcpp_compressed_pair_impIPN5Catch3PtrINS1_22CumulativeReporterBase4NodeINS1_12TestRunStatsENS4_INS1_14TestGroupStatsENS4_INS1_13TestCaseStatsENS3_11SectionNodeEEEEEEEEERNS_9allocatorISC_EELj0EE5firstEv
FN:2122,_ZNSt3__128__libcpp_compressed_pair_impIPN5Catch3PtrINS1_16TestCaseTracking8ITrackerEEERNS_9allocatorIS5_EELj0EE5firstEv
FN:2122,_ZNSt3__128__libcpp_compressed_pair_impIPN5Catch11SectionInfoERNS_9allocatorIS2_EELj0EE5firstEv
FN:2122,_ZNSt3__128__libcpp_compressed_pair_impIPNS_11__tree_nodeINS_12basic_stringIcNS_11char_traitsIcEENS_9allocatorIcEEEEPvEENS_22__tree_node_destructorINS5_IS9_EEEELj0EE5firstEv
FN:2122,_ZNSt3__128__libcpp_compressed_pair_impIP7__sFILEPFiS2_ELj0EE5firstEv
FN:2122,_ZNSt3__128__libcpp_compressed_pair_impIPN5Catch3PtrINS1_18IStreamingReporterEEERNS_9allocatorIS4_EELj0EE5firstEv
FN:2122,_ZNSt3__128__libcpp_compressed_pair_impIPNS_12basic_stringIcNS_11char_traitsIcEENS_9allocatorIcEEEERNS4_IS6_EELj0EE5firstEv
FN:2122,_ZNSt3__128__libcpp_compressed_pair_impIPN5Catch5Clara11CommandLineINS1_10ConfigDataEE3ArgERNS_9allocatorIS6_EELj0EE5firstEv
FN:2122,_ZNSt3__128__libcpp_compressed_pair_impIPPN5Catch14IGeneratorInfoERNS_9allocatorIS3_EELj0EE5firstEv
FN:2122,_ZNSt3__128__libcpp_compressed_pair_impIPNS_11__tree_nodeINS_12__value_typeINS_12basic_stringIcNS_11char_traitsIcEENS_9allocatorIcEEEEN5Catch7TagInfoEEEPvEENS_22__tree_node_destructorINS6_ISD_EEEELj0EE5firstEv
FN:2122,_ZNSt3__128__libcpp_compressed_pair_impIPmRNS_9allocatorImEELj0EE5firstEv
FN:2122,_ZNSt3__128__libcpp_compressed_pair_impIPN5Catch5Clara6Parser5TokenERNS_9allocatorIS4_EELj0EE5firstEv
FN:2122,_ZNSt3__128__libcpp_compressed_pair_impIPN5Catch3PtrINS1_16IReporterFactoryEEERNS_9allocatorIS4_EELj0EE5firstEv
FN:2122,_ZNSt3__128__libcpp_compressed_pair_impIPN5Catch3PtrINS1_22CumulativeReporterBase4NodeINS1_14TestGroupStatsENS4_INS1_13TestCaseStatsENS3_11SectionNodeEEEEEEERNS_9allocatorISA_EELj0EE5firstEv
FN:2122,_ZNSt3__128__libcpp_compressed_pair_impIPN5Catch15ConsoleReporter13SummaryColumnERNS_9allocatorIS3_EELj0EE5firstEv
FN:2122,_ZNSt3__128__libcpp_compressed_pair_impIPNS_11__tree_nodeINS_12__value_typeINS_12basic_stringIcNS_11char_traitsIcEENS_9allocatorIcEEEEN5Catch8TagAliasEEEPvEENS_22__tree_node_destructorINS6_ISD_EEEELj0EE5firstEv
FN:2122,_ZNSt3__128__libcpp_compressed_pair_impIPN5Catch14AssertionStatsERNS_9allocatorIS2_EELj0EE5firstEv
FN:2122,_ZNSt3__128__libcpp_compressed_pair_impIPNS_11__tree_nodeINS_12__value_typeINS_12basic_stringIcNS_11char_traitsIcEENS_9allocatorIcEEEEN5Catch3PtrINS9_16IReporterFactoryEEEEEPvEENS_22__tree_node_destructorINS6_ISF_EEEELj0EE5firstEv
FN:2122,_ZNSt3__128__libcpp_compressed_pair_impIPN5Catch3PtrINS1_8TestSpec7PatternEEERNS_9allocatorIS5_EELj0EE5firstEv
FN:2122,_ZNSt3__128__libcpp_compressed_pair_impIPN5Catch8TestCaseERNS_9allocatorIS2_EELj0EE5firstEv
FN:2123,_ZNKSt3__128__libcpp_compressed_pair_impIPNS_11__tree_nodeINS_12__value_typeINS_12basic_stringIcNS_11char_traitsIcEENS_9allocatorIcEEEEN5Catch3PtrINS9_16IReporterFactoryEEEEEPvEENS_22__tree_node_destructorINS6_ISF_EEEELj0EE5firstEv
FN:2123,_ZNKSt3__128__libcpp_compressed_pair_impIPN5Catch5Clara6Parser5TokenERNS_9allocatorIS4_EELj0EE5firstEv
FN:2123,_ZNKSt3__128__libcpp_compressed_pair_impIPN5Catch14AssertionStatsERNS_9allocatorIS2_EELj0EE5firstEv
FN:2123,_ZNKSt3__128__libcpp_compressed_pair_impIPNS_11__tree_nodeINS_12__value_typeINS_12basic_stringIcNS_11char_traitsIcEENS_9allocatorIcEEEEPN5Catch18IGeneratorsForTestEEEPvEENS_22__tree_node_destructorINS6_ISE_EEEELj0EE5firstEv
FN:2123,_ZNKSt3__128__libcpp_compressed_pair_impIPN5Catch11MessageInfoERNS_9allocatorIS2_EELj0EE5firstEv
FN:2123,_ZNKSt3__128__libcpp_compressed_pair_impIPN5Catch3PtrINS1_16IReporterFactoryEEERNS_9allocatorIS4_EELj0EE5firstEv
FN:2123,_ZNKSt3__128__libcpp_compressed_pair_impIPNS_11__tree_nodeINS_12basic_stringIcNS_11char_traitsIcEENS_9allocatorIcEEEEPvEENS_22__tree_node_destructorINS5_IS9_EEEELj0EE5firstEv
FN:2123,_ZNKSt3__128__libcpp_compressed_pair_impIPNS_11__tree_nodeIN5Catch8TestCaseEPvEENS_22__tree_node_destructorINS_9allocatorIS5_EEEELj0EE5firstEv
FN:2123,_ZNKSt3__128__libcpp_compressed_pair_impIPN5Catch3PtrINS1_22CumulativeReporterBase4NodeINS1_12TestRunStatsENS4_INS1_14TestGroupStatsENS4_INS1_13TestCaseStatsENS3_11SectionNodeEEEEEEEEERNS_9allocatorISC_EELj0EE5firstEv
FN:2123,_ZNKSt3__128__libcpp_compressed_pair_impIPN5Catch3PtrINS1_18IStreamingReporterEEERNS_9allocatorIS4_EELj0EE5firstEv
FN:2123,_ZNKSt3__128__libcpp_compressed_pair_impIPN5Catch8TestCaseERNS_9allocatorIS2_EELj0EE5firstEv
FN:2123,_ZNKSt3__128__libcpp_compressed_pair_impIPN5Catch11SectionInfoERNS_9allocatorIS2_EELj0EE5firstEv
FN:2123,_ZNKSt3__128__libcpp_compressed_pair_impIPN5Catch3PtrINS1_22CumulativeReporterBase4NodeINS1_14TestGroupStatsENS4_INS1_13TestCaseStatsENS3_11SectionNodeEEEEEEERNS_9allocatorISA_EELj0EE5firstEv
FN:2123,_ZNKSt3__128__libcpp_compressed_pair_impIPN5Catch5Clara11CommandLineINS1_10ConfigDataEE3ArgERNS_9allocatorIS6_EELj0EE5firstEv
FN:2123,_ZNKSt3__128__libcpp_compressed_pair_impIPPN5Catch14IGeneratorInfoERNS_9allocatorIS3_EELj0EE5firstEv
FN:2123,_ZNKSt3__128__libcpp_compressed_pair_impIPNS_11__tree_nodeINS_12__value_typeINS_12basic_stringIcNS_11char_traitsIcEENS_9allocatorIcEEEEN5Catch8TagAliasEEEPvEENS_22__tree_node_destructorINS6_ISD_EEEELj0EE5firstEv
FN:2123,_ZNKSt3__128__libcpp_compressed_pair_impIPN5Catch15ConsoleReporter13SummaryColumnERNS_9allocatorIS3_EELj0EE5firstEv
FN:2123,_ZNKSt3__128__libcpp_compressed_pair_impIPN5Catch3PtrINS1_22CumulativeReporterBase4NodeINS1_13TestCaseStatsENS3_11SectionNodeEEEEERNS_9allocatorIS8_EELj0EE5firstEv
FN:2123,_ZNKSt3__128__libcpp_compressed_pair_impIPN5Catch8TestSpec6FilterERNS_9allocatorIS3_EELj0EE5firstEv
FN:2123,_ZNKSt3__128__libcpp_compressed_pair_impIPPN5Catch16TestCaseTracking8ITrackerERNS_9allocatorIS4_EELj0EE5firstEv
FN:2123,_ZNKSt3__128__libcpp_compressed_pair_impIPN5Catch3PtrINS1_16TestCaseTracking8ITrackerEEERNS_9allocatorIS5_EELj0EE5firstEv
FN:2123,_ZNKSt3__128__libcpp_compressed_pair_impIPN5Catch3PtrINS1_8TestSpec7PatternEEERNS_9allocatorIS5_EELj0EE5firstEv
FN:2123,_ZNKSt3__128__libcpp_compressed_pair_impIPPKN5Catch20IExceptionTranslatorERNS_9allocatorIS4_EELj0EE5firstEv
FN:2123,_ZNKSt3__128__libcpp_compressed_pair_impIPNS_11__tree_nodeINS_12__value_typeINS_12basic_stringIcNS_11char_traitsIcEENS_9allocatorIcEEEEN5Catch7TagInfoEEEPvEENS_22__tree_node_destructorINS6_ISD_EEEELj0EE5firstEv
FN:2123,_ZNKSt3__128__libcpp_compressed_pair_impIPN5Catch14SectionEndInfoERNS_9allocatorIS2_EELj0EE5firstEv
FN:2123,_ZNKSt3__128__libcpp_compressed_pair_impIPNS_12basic_stringIcNS_11char_traitsIcEENS_9allocatorIcEEEERNS4_IS6_EELj0EE5firstEv
FN:2123,_ZNKSt3__128__libcpp_compressed_pair_impIPmRNS_9allocatorImEELj0EE5firstEv
FN:2123,_ZNKSt3__128__libcpp_compressed_pair_impIPN5Catch3PtrINS1_22CumulativeReporterBase11SectionNodeEEERNS_9allocatorIS5_EELj0EE5firstEv
FN:2123,_ZNKSt3__128__libcpp_compressed_pair_impIPNS_11__tree_nodeINS_12__value_typeINS_12basic_stringIcNS_11char_traitsIcEENS_9allocatorIcEEEEPN5Catch14IGeneratorInfoEEEPvEENS_22__tree_node_destructorINS6_ISE_EEEELj0EE5firstEv
FN:2125,_ZNSt3__128__libcpp_compressed_pair_impIPN5Catch5Clara11CommandLineINS1_10ConfigDataEE3ArgERNS_9allocatorIS6_EELj0EE6secondEv
FN:2125,_ZNSt3__128__libcpp_compressed_pair_impIPN5Catch5Clara6Parser5TokenERNS_9allocatorIS4_EELj0EE6secondEv
FN:2125,_ZNSt3__128__libcpp_compressed_pair_impIPN5Catch3PtrINS1_22CumulativeReporterBase4NodeINS1_13TestCaseStatsENS3_11SectionNodeEEEEERNS_9allocatorIS8_EELj0EE6secondEv
FN:2125,_ZNSt3__128__libcpp_compressed_pair_impIPN5Catch8TestSpec6FilterERNS_9allocatorIS3_EELj0EE6secondEv
FN:2125,_ZNSt3__128__libcpp_compressed_pair_impIPN5Catch14AssertionStatsERNS_9allocatorIS2_EELj0EE6secondEv
FN:2125,_ZNSt3__128__libcpp_compressed_pair_impIPN5Catch3PtrINS1_16IReporterFactoryEEERNS_9allocatorIS4_EELj0EE6secondEv
FN:2125,_ZNSt3__128__libcpp_compressed_pair_impIPN5Catch3PtrINS1_16TestCaseTracking8ITrackerEEERNS_9allocatorIS5_EELj0EE6secondEv
FN:2125,_ZNSt3__128__libcpp_compressed_pair_impIPN5Catch8TestCaseERNS_9allocatorIS2_EELj0EE6secondEv
FN:2125,_ZNSt3__128__libcpp_compressed_pair_impIPN5Catch3PtrINS1_18IStreamingReporterEEERNS_9allocatorIS4_EELj0EE6secondEv
FN:2125,_ZNSt3__128__libcpp_compressed_pair_impIPPKN5Catch20IExceptionTranslatorERNS_9allocatorIS4_EELj0EE6secondEv
FN:2125,_ZNSt3__128__libcpp_compressed_pair_impIPNS_11__tree_nodeINS_12__value_typeINS_12basic_stringIcNS_11char_traitsIcEENS_9allocatorIcEEEEN5Catch8TagAliasEEEPvEENS_22__tree_node_destructorINS6_ISD_EEEELj0EE6secondEv
FN:2125,_ZNSt3__128__libcpp_compressed_pair_impIPNS_11__tree_nodeINS_12__value_typeINS_12basic_stringIcNS_11char_traitsIcEENS_9allocatorIcEEEEPN5Catch18IGeneratorsForTestEEEPvEENS_22__tree_node_destructorINS6_ISE_EEEELj0EE6secondEv
FN:2125,_ZNSt3__128__libcpp_compressed_pair_impIPNS_11__tree_nodeIN5Catch8TestCaseEPvEENS_22__tree_node_destructorINS_9allocatorIS5_EEEELj0EE6secondEv
FN:2125,_ZNSt3__128__libcpp_compressed_pair_impIPNS_11__tree_nodeINS_12__value_typeINS_12basic_stringIcNS_11char_traitsIcEENS_9allocatorIcEEEEN5Catch3PtrINS9_16IReporterFactoryEEEEEPvEENS_22__tree_node_destructorINS6_ISF_EEEELj0EE6secondEv
FN:2125,_ZNSt3__128__libcpp_compressed_pair_impIPNS_11__tree_nodeINS_12__value_typeINS_12basic_stringIcNS_11char_traitsIcEENS_9allocatorIcEEEEPN5Catch14IGeneratorInfoEEEPvEENS_22__tree_node_destructorINS6_ISE_EEEELj0EE6secondEv
FN:2125,_ZNSt3__128__libcpp_compressed_pair_impIPN5Catch3PtrINS1_8TestSpec7PatternEEERNS_9allocatorIS5_EELj0EE6secondEv
FN:2125,_ZNSt3__128__libcpp_compressed_pair_impIPN5Catch3PtrINS1_22CumulativeReporterBase4NodeINS1_14TestGroupStatsENS4_INS1_13TestCaseStatsENS3_11SectionNodeEEEEEEERNS_9allocatorISA_EELj0EE6secondEv
FN:2125,_ZNSt3__128__libcpp_compressed_pair_impIPN5Catch14SectionEndInfoERNS_9allocatorIS2_EELj0EE6secondEv
FN:2125,_ZNSt3__128__libcpp_compressed_pair_impIPN5Catch3PtrINS1_22CumulativeReporterBase4NodeINS1_12TestRunStatsENS4_INS1_14TestGroupStatsENS4_INS1_13TestCaseStatsENS3_11SectionNodeEEEEEEEEERNS_9allocatorISC_EELj0EE6secondEv
FN:2125,_ZNSt3__128__libcpp_compressed_pair_impIPN5Catch3PtrINS1_22CumulativeReporterBase11SectionNodeEEERNS_9allocatorIS5_EELj0EE6secondEv
FN:2125,_ZNSt3__128__libcpp_compressed_pair_impIP7__sFILEPFiS2_ELj0EE6secondEv
FN:2125,_ZNSt3__128__libcpp_compressed_pair_impIPNS_11__tree_nodeINS_12basic_stringIcNS_11char_traitsIcEENS_9allocatorIcEEEEPvEENS_22__tree_node_destructorINS5_IS9_EEEELj0EE6secondEv
FN:2125,_ZNSt3__128__libcpp_compressed_pair_impIPN5Catch11SectionInfoERNS_9allocatorIS2_EELj0EE6secondEv
FN:2125,_ZNSt3__128__libcpp_compressed_pair_impIPN5Catch11MessageInfoERNS_9allocatorIS2_EELj0EE6secondEv
FN:2125,_ZNSt3__128__libcpp_compressed_pair_impIPNS_12basic_stringIcNS_11char_traitsIcEENS_9allocatorIcEEEERNS4_IS6_EELj0EE6secondEv
FN:2125,_ZNSt3__128__libcpp_compressed_pair_impIPPN5Catch16TestCaseTracking8ITrackerERNS_9allocatorIS4_EELj0EE6secondEv
FN:2125,_ZNSt3__128__libcpp_compressed_pair_impIPmRNS_9allocatorImEELj0EE6secondEv
FN:2125,_ZNSt3__128__libcpp_compressed_pair_impIPNS_11__tree_nodeINS_12__value_typeINS_12basic_stringIcNS_11char_traitsIcEENS_9allocatorIcEEEEN5Catch7TagInfoEEEPvEENS_22__tree_node_destructorINS6_ISD_EEEELj0EE6secondEv
FN:2125,_ZNSt3__128__libcpp_compressed_pair_impIPPN5Catch14IGeneratorInfoERNS_9allocatorIS3_EELj0EE6secondEv
FN:2125,_ZNSt3__128__libcpp_compressed_pair_impIPN5Catch15ConsoleReporter13SummaryColumnERNS_9allocatorIS3_EELj0EE6secondEv
FN:2208,_ZNSt3__128__libcpp_compressed_pair_impINS_15__tree_end_nodeIPNS_16__tree_node_baseIPvEEEENS_9allocatorINS_11__tree_nodeINS_12__value_typeIiN5Catch5Clara11CommandLineINSA_10ConfigDataEE3ArgEEES3_EEEELj2EEC2Ev
FN:2208,_ZNSt3__128__libcpp_compressed_pair_impINS_15__tree_end_nodeIPNS_16__tree_node_baseIPvEEEENS_9allocatorINS_11__tree_nodeINS_12__value_typeINS_12basic_stringIcNS_11char_traitsIcEENS7_IcEEEEN5Catch8TagAliasEEES3_EEEELj2EEC2Ev
FN:2208,_ZNSt3__128__libcpp_compressed_pair_impINS_15__tree_end_nodeIPNS_16__tree_node_baseIPvEEEENS_9allocatorINS_11__tree_nodeINS_12__value_typeINS_12basic_stringIcNS_11char_traitsIcEENS7_IcEEEEN5Catch7TagInfoEEES3_EEEELj2EEC2Ev
FN:2208,_ZNSt3__128__libcpp_compressed_pair_impINS_15__tree_end_nodeIPNS_16__tree_node_baseIPvEEEENS_9allocatorINS_11__tree_nodeINS_12__value_typeINS_12basic_stringIcNS_11char_traitsIcEENS7_IcEEEEPN5Catch14IGeneratorInfoEEES3_EEEELj2EEC2Ev
FN:2208,_ZNSt3__128__libcpp_compressed_pair_impINS_15__tree_end_nodeIPNS_16__tree_node_baseIPvEEEENS_9allocatorINS_11__tree_nodeINS_12__value_typeINS_12basic_stringIcNS_11char_traitsIcEENS7_IcEEEEPN5Catch18IGeneratorsForTestEEES3_EEEELj2EEC2Ev
FN:2208,_ZNSt3__128__libcpp_compressed_pair_impINS_15__tree_end_nodeIPNS_16__tree_node_baseIPvEEEENS_9allocatorINS_11__tree_nodeINS_12__value_typeINS_12basic_stringIcNS_11char_traitsIcEENS7_IcEEEEN5Catch3PtrINSF_16IReporterFactoryEEEEES3_EEEELj2EEC2Ev
FN:2208,_ZNSt3__128__libcpp_compressed_pair_impINS_15__tree_end_nodeIPNS_16__tree_node_baseIPvEEEENS_9allocatorINS_11__tree_nodeINS_12basic_stringIcNS_11char_traitsIcEENS7_IcEEEES3_EEEELj2EEC2Ev
FN:2208,_ZNSt3__128__libcpp_compressed_pair_impINS_15__tree_end_nodeIPNS_16__tree_node_baseIPvEEEENS_9allocatorINS_11__tree_nodeIN5Catch8TestCaseES3_EEEELj2EEC2Ev
FN:2208,_ZNSt3__128__libcpp_compressed_pair_impINS_12basic_stringIcNS_11char_traitsIcEENS_9allocatorIcEEE5__repES5_Lj2EEC2Ev
FN:2208,_ZNSt3__128__libcpp_compressed_pair_impINS_12basic_stringIwNS_11char_traitsIwEENS_9allocatorIwEEE5__repES5_Lj2EEC2Ev
FN:2209,_ZNSt3__128__libcpp_compressed_pair_impIPmNS_9allocatorImEELj2EEC2ES1_
FN:2209,_ZNSt3__128__libcpp_compressed_pair_impIPN5Catch5Clara11CommandLineINS1_10ConfigDataEE3ArgENS_9allocatorIS6_EELj2EEC2ES7_
FN:2209,_ZNSt3__128__libcpp_compressed_pair_impIPN5Catch3PtrINS1_22CumulativeReporterBase11SectionNodeEEENS_9allocatorIS5_EELj2EEC2ES6_
FN:2209,_ZNSt3__128__libcpp_compressed_pair_impIPN5Catch3PtrINS1_18IStreamingReporterEEENS_9allocatorIS4_EELj2EEC2ES5_
FN:2209,_ZNSt3__128__libcpp_compressed_pair_impIPN5Catch11MessageInfoENS_9allocatorIS2_EELj2EEC2ES3_
FN:2209,_ZNSt3__128__libcpp_compressed_pair_impIPN5Catch15ConsoleReporter13SummaryColumnENS_9allocatorIS3_EELj2EEC2ES4_
FN:2209,_ZNSt3__128__libcpp_compressed_pair_impIPN5Catch3PtrINS1_22CumulativeReporterBase4NodeINS1_12TestRunStatsENS4_INS1_14TestGroupStatsENS4_INS1_13TestCaseStatsENS3_11SectionNodeEEEEEEEEENS_9allocatorISC_EELj2EEC2ESD_
FN:2209,_ZNSt3__128__libcpp_compressed_pair_impIPPN5Catch16TestCaseTracking8ITrackerENS_9allocatorIS4_EELj2EEC2ES5_
FN:2209,_ZNSt3__128__libcpp_compressed_pair_impIPN5Catch3PtrINS1_22CumulativeReporterBase4NodeINS1_14TestGroupStatsENS4_INS1_13TestCaseStatsENS3_11SectionNodeEEEEEEENS_9allocatorISA_EELj2EEC2ESB_
FN:2209,_ZNSt3__128__libcpp_compressed_pair_impIPPN5Catch14IGeneratorInfoENS_9allocatorIS3_EELj2EEC2ES4_
FN:2209,_ZNSt3__128__libcpp_compressed_pair_impIPN5Catch14SectionEndInfoENS_9allocatorIS2_EELj2EEC2ES3_
FN:2209,_ZNSt3__128__libcpp_compressed_pair_impIPN5Catch3PtrINS1_16TestCaseTracking8ITrackerEEENS_9allocatorIS5_EELj2EEC2ES6_
FN:2209,_ZNSt3__128__libcpp_compressed_pair_impIPN5Catch14AssertionStatsENS_9allocatorIS2_EELj2EEC2ES3_
FN:2209,_ZNSt3__128__libcpp_compressed_pair_impIPN5Catch11SectionInfoENS_9allocatorIS2_EELj2EEC2ES3_
FN:2209,_ZNSt3__128__libcpp_compressed_pair_impIPN5Catch5Clara6Parser5TokenENS_9allocatorIS4_EELj2EEC2ES5_
FN:2209,_ZNSt3__128__libcpp_compressed_pair_impIPPKN5Catch8Matchers4Impl11MatcherBaseINS_12basic_stringIcNS_11char_traitsIcEENS_9allocatorIcEEEESA_EENS8_ISD_EELj2EEC2ESE_
FN:2209,_ZNSt3__128__libcpp_compressed_pair_impIPN5Catch3PtrINS1_16IReporterFactoryEEENS_9allocatorIS4_EELj2EEC2ES5_
FN:2209,_ZNSt3__128__libcpp_compressed_pair_impIPN5Catch8TestCaseENS_9allocatorIS2_EELj2EEC2ES3_
FN:2209,_ZNSt3__128__libcpp_compressed_pair_impIPN5Catch8TestSpec6FilterENS_9allocatorIS3_EELj2EEC2ES4_
FN:2209,_ZNSt3__128__libcpp_compressed_pair_impIPN5Catch3PtrINS1_8TestSpec7PatternEEENS_9allocatorIS5_EELj2EEC2ES6_
FN:2209,_ZNSt3__128__libcpp_compressed_pair_impIPNS_6vectorIN5Catch3PtrINS2_22CumulativeReporterBase11SectionNodeEEENS_9allocatorIS6_EEEENS7_IS9_EELj2EEC2ESA_
FN:2209,_ZNSt3__128__libcpp_compressed_pair_impIPPKN5Catch20IExceptionTranslatorENS_9allocatorIS4_EELj2EEC2ES5_
FN:2209,_ZNSt3__128__libcpp_compressed_pair_impIPN5Catch3PtrINS1_22CumulativeReporterBase4NodeINS1_13TestCaseStatsENS3_11SectionNodeEEEEENS_9allocatorIS8_EELj2EEC2ES9_
FN:2209,_ZNSt3__128__libcpp_compressed_pair_impIPNS_12basic_stringIcNS_11char_traitsIcEENS_9allocatorIcEEEENS4_IS6_EELj2EEC2ES7_
FN:2211,_ZNSt3__128__libcpp_compressed_pair_impINS_12basic_stringIcNS_11char_traitsIcEENS_9allocatorIcEEE5__repES5_Lj2EEC2ES5_
FN:2211,_ZNSt3__128__libcpp_compressed_pair_impINS_15__tree_end_nodeIPNS_16__tree_node_baseIPvEEEENS_9allocatorINS_11__tree_nodeINS_12basic_stringIcNS_11char_traitsIcEENS7_IcEEEES3_EEEELj2EEC2ESF_
FN:2213,_ZNSt3__128__libcpp_compressed_pair_impIPN5Catch11MessageInfoENS_9allocatorIS2_EELj2EEC2ES3_S5_
FN:2213,_ZNSt3__128__libcpp_compressed_pair_impIPN5Catch8TestCaseENS_9allocatorIS2_EELj2EEC2ES3_S5_
FN:2213,_ZNSt3__128__libcpp_compressed_pair_impImNS_4lessINS_12basic_stringIcNS_11char_traitsIcEENS_9allocatorIcEEEEEELj2EEC2EmS8_
FN:2213,_ZNSt3__128__libcpp_compressed_pair_impIPN5Catch3PtrINS1_16IReporterFactoryEEENS_9allocatorIS4_EELj2EEC2ES5_S7_
FN:2213,_ZNSt3__128__libcpp_compressed_pair_impIPN5Catch8TestSpec6FilterENS_9allocatorIS3_EELj2EEC2ES4_S6_
FN:2213,_ZNSt3__128__libcpp_compressed_pair_impImNS_19__map_value_compareINS_12basic_stringIcNS_11char_traitsIcEENS_9allocatorIcEEEENS_12__value_typeIS7_N5Catch8TagAliasEEENS_4lessIS7_EELb1EEELj2EEC2EmSE_
FN:2213,_ZNSt3__128__libcpp_compressed_pair_impImNS_19__map_value_compareINS_12basic_stringIcNS_11char_traitsIcEENS_9allocatorIcEEEENS_12__value_typeIS7_PN5Catch14IGeneratorInfoEEENS_4lessIS7_EELb1EEELj2EEC2EmSF_
FN:2213,_ZNSt3__128__libcpp_compressed_pair_impIPN5Catch3PtrINS1_8TestSpec7PatternEEENS_9allocatorIS5_EELj2EEC2ES6_S8_
FN:2213,_ZNSt3__128__libcpp_compressed_pair_impImNS_19__map_value_compareINS_12basic_stringIcNS_11char_traitsIcEENS_9allocatorIcEEEENS_12__value_typeIS7_N5Catch7TagInfoEEENS_4lessIS7_EELb1EEELj2EEC2EmSE_
FN:2213,_ZNSt3__128__libcpp_compressed_pair_impIPNS_12basic_stringIcNS_11char_traitsIcEENS_9allocatorIcEEEENS4_IS6_EELj2EEC2ES7_S8_
FN:2213,_ZNSt3__128__libcpp_compressed_pair_impIPN5Catch5Clara6Parser5TokenENS_9allocatorIS4_EELj2EEC2ES5_S7_
FN:2213,_ZNSt3__128__libcpp_compressed_pair_impImNS_19__map_value_compareINS_12basic_stringIcNS_11char_traitsIcEENS_9allocatorIcEEEENS_12__value_typeIS7_N5Catch3PtrINS9_16IReporterFactoryEEEEENS_4lessIS7_EELb1EEELj2EEC2EmSG_
FN:2213,_ZNSt3__128__libcpp_compressed_pair_impImNS_19__map_value_compareINS_12basic_stringIcNS_11char_traitsIcEENS_9allocatorIcEEEENS_12__value_typeIS7_PN5Catch18IGeneratorsForTestEEENS_4lessIS7_EELb1EEELj2EEC2EmSF_
FN:2213,_ZNSt3__128__libcpp_compressed_pair_impImNS_19__map_value_compareIiNS_12__value_typeIiN5Catch5Clara11CommandLineINS3_10ConfigDataEE3ArgEEENS_4lessIiEELb1EEELj2EEC2EmSC_
FN:2213,_ZNSt3__128__libcpp_compressed_pair_impImNS_4lessIN5Catch8TestCaseEEELj2EEC2EmS4_
FN:2234,_ZNSt3__128__libcpp_compressed_pair_impImNS_4lessINS_12basic_stringIcNS_11char_traitsIcEENS_9allocatorIcEEEEEELj2EE5firstEv
FN:2234,_ZNSt3__128__libcpp_compressed_pair_impINS_15__tree_end_nodeIPNS_16__tree_node_baseIPvEEEENS_9allocatorINS_11__tree_nodeINS_12__value_typeINS_12basic_stringIcNS_11char_traitsIcEENS7_IcEEEEPN5Catch18IGeneratorsForTestEEES3_EEEELj2EE5firstEv
FN:2234,_ZNSt3__128__libcpp_compressed_pair_impINS_12basic_stringIcNS_11char_traitsIcEENS_9allocatorIcEEE5__repES5_Lj2EE5firstEv
FN:2234,_ZNSt3__128__libcpp_compressed_pair_impIPN5Catch15ConsoleReporter13SummaryColumnENS_9allocatorIS3_EELj2EE5firstEv
FN:2234,_ZNSt3__128__libcpp_compressed_pair_impIPN5Catch14SectionEndInfoENS_9allocatorIS2_EELj2EE5firstEv
FN:2234,_ZNSt3__128__libcpp_compressed_pair_impINS_15__tree_end_nodeIPNS_16__tree_node_baseIPvEEEENS_9allocatorINS_11__tree_nodeINS_12__value_typeINS_12basic_stringIcNS_11char_traitsIcEENS7_IcEEEEN5Catch3PtrINSF_16IReporterFactoryEEEEES3_EEEELj2EE5firstEv
FN:2234,_ZNSt3__128__libcpp_compressed_pair_impINS_15__tree_end_nodeIPNS_16__tree_node_baseIPvEEEENS_9allocatorINS_11__tree_nodeIN5Catch8TestCaseES3_EEEELj2EE5firstEv
FN:2234,_ZNSt3__128__libcpp_compressed_pair_impImNS_19__map_value_compareINS_12basic_stringIcNS_11char_traitsIcEENS_9allocatorIcEEEENS_12__value_typeIS7_N5Catch8TagAliasEEENS_4lessIS7_EELb1EEELj2EE5firstEv
FN:2234,_ZNSt3__128__libcpp_compressed_pair_impIPN5Catch3PtrINS1_22CumulativeReporterBase4NodeINS1_14TestGroupStatsENS4_INS1_13TestCaseStatsENS3_11SectionNodeEEEEEEENS_9allocatorISA_EELj2EE5firstEv
FN:2234,_ZNSt3__128__libcpp_compressed_pair_impINS_15__tree_end_nodeIPNS_16__tree_node_baseIPvEEEENS_9allocatorINS_11__tree_nodeINS_12basic_stringIcNS_11char_traitsIcEENS7_IcEEEES3_EEEELj2EE5firstEv
FN:2234,_ZNSt3__128__libcpp_compressed_pair_impIPN5Catch5Clara6Parser5TokenENS_9allocatorIS4_EELj2EE5firstEv
FN:2234,_ZNSt3__128__libcpp_compressed_pair_impINS_15__tree_end_nodeIPNS_16__tree_node_baseIPvEEEENS_9allocatorINS_11__tree_nodeINS_12__value_typeINS_12basic_stringIcNS_11char_traitsIcEENS7_IcEEEEN5Catch7TagInfoEEES3_EEEELj2EE5firstEv
FN:2234,_ZNSt3__128__libcpp_compressed_pair_impINS_15__tree_end_nodeIPNS_16__tree_node_baseIPvEEEENS_9allocatorINS_11__tree_nodeINS_12__value_typeIiN5Catch5Clara11CommandLineINSA_10ConfigDataEE3ArgEEES3_EEEELj2EE5firstEv
FN:2234,_ZNSt3__128__libcpp_compressed_pair_impImNS_4lessIN5Catch8TestCaseEEELj2EE5firstEv
FN:2234,_ZNSt3__128__libcpp_compressed_pair_impIPN5Catch11MessageInfoENS_9allocatorIS2_EELj2EE5firstEv
FN:2234,_ZNSt3__128__libcpp_compressed_pair_impImNS_19__map_value_compareINS_12basic_stringIcNS_11char_traitsIcEENS_9allocatorIcEEEENS_12__value_typeIS7_N5Catch3PtrINS9_16IReporterFactoryEEEEENS_4lessIS7_EELb1EEELj2EE5firstEv
FN:2234,_ZNSt3__128__libcpp_compressed_pair_impIPN5Catch5Clara11CommandLineINS1_10ConfigDataEE3ArgENS_9allocatorIS6_EELj2EE5firstEv
FN:2234,_ZNSt3__128__libcpp_compressed_pair_impIPN5Catch3PtrINS1_22CumulativeReporterBase4NodeINS1_12TestRunStatsENS4_INS1_14TestGroupStatsENS4_INS1_13TestCaseStatsENS3_11SectionNodeEEEEEEEEENS_9allocatorISC_EELj2EE5firstEv
FN:2234,_ZNSt3__128__libcpp_compressed_pair_impImNS_19__map_value_compareINS_12basic_stringIcNS_11char_traitsIcEENS_9allocatorIcEEEENS_12__value_typeIS7_PN5Catch14IGeneratorInfoEEENS_4lessIS7_EELb1EEELj2EE5firstEv
FN:2234,_ZNSt3__128__libcpp_compressed_pair_impINS_15__tree_end_nodeIPNS_16__tree_node_baseIPvEEEENS_9allocatorINS_11__tree_nodeINS_12__value_typeINS_12basic_stringIcNS_11char_traitsIcEENS7_IcEEEEN5Catch8TagAliasEEES3_EEEELj2EE5firstEv
FN:2234,_ZNSt3__128__libcpp_compressed_pair_impIPN5Catch14AssertionStatsENS_9allocatorIS2_EELj2EE5firstEv
FN:2234,_ZNSt3__128__libcpp_compressed_pair_impIPNS_12basic_stringIcNS_11char_traitsIcEENS_9allocatorIcEEEENS4_IS6_EELj2EE5firstEv
FN:2234,_ZNSt3__128__libcpp_compressed_pair_impIPmNS_9allocatorImEELj2EE5firstEv
FN:2234,_ZNSt3__128__libcpp_compressed_pair_impIPN5Catch3PtrINS1_8TestSpec7PatternEEENS_9allocatorIS5_EELj2EE5firstEv
FN:2234,_ZNSt3__128__libcpp_compressed_pair_impIPN5Catch8TestSpec6FilterENS_9allocatorIS3_EELj2EE5firstEv
FN:2234,_ZNSt3__128__libcpp_compressed_pair_impIPN5Catch3PtrINS1_16IReporterFactoryEEENS_9allocatorIS4_EELj2EE5firstEv
FN:2234,_ZNSt3__128__libcpp_compressed_pair_impIPPKN5Catch20IExceptionTranslatorENS_9allocatorIS4_EELj2EE5firstEv
FN:2234,_ZNSt3__128__libcpp_compressed_pair_impIPN5Catch3PtrINS1_16TestCaseTracking8ITrackerEEENS_9allocatorIS5_EELj2EE5firstEv
FN:2234,_ZNSt3__128__libcpp_compressed_pair_impIPPN5Catch14IGeneratorInfoENS_9allocatorIS3_EELj2EE5firstEv
FN:2234,_ZNSt3__128__libcpp_compressed_pair_impIPN5Catch3PtrINS1_22CumulativeReporterBase4NodeINS1_13TestCaseStatsENS3_11SectionNodeEEEEENS_9allocatorIS8_EELj2EE5firstEv
FN:2234,_ZNSt3__128__libcpp_compressed_pair_impImNS_19__map_value_compareINS_12basic_stringIcNS_11char_traitsIcEENS_9allocatorIcEEEENS_12__value_typeIS7_N5Catch7TagInfoEEENS_4lessIS7_EELb1EEELj2EE5firstEv
FN:2234,_ZNSt3__128__libcpp_compressed_pair_impIPN5Catch3PtrINS1_18IStreamingReporterEEENS_9allocatorIS4_EELj2EE5firstEv
FN:2234,_ZNSt3__128__libcpp_compressed_pair_impIPPN5Catch16TestCaseTracking8ITrackerENS_9allocatorIS4_EELj2EE5firstEv
FN:2234,_ZNSt3__128__libcpp_compressed_pair_impIPN5Catch8TestCaseENS_9allocatorIS2_EELj2EE5firstEv
FN:2234,_ZNSt3__128__libcpp_compressed_pair_impINS_15__tree_end_nodeIPNS_16__tree_node_baseIPvEEEENS_9allocatorINS_11__tree_nodeINS_12__value_typeINS_12basic_stringIcNS_11char_traitsIcEENS7_IcEEEEPN5Catch14IGeneratorInfoEEES3_EEEELj2EE5firstEv
FN:2234,_ZNSt3__128__libcpp_compressed_pair_impImNS_19__map_value_compareINS_12basic_stringIcNS_11char_traitsIcEENS_9allocatorIcEEEENS_12__value_typeIS7_PN5Catch18IGeneratorsForTestEEENS_4lessIS7_EELb1EEELj2EE5firstEv
FN:2234,_ZNSt3__128__libcpp_compressed_pair_impIPN5Catch3PtrINS1_22CumulativeReporterBase11SectionNodeEEENS_9allocatorIS5_EELj2EE5firstEv
FN:2234,_ZNSt3__128__libcpp_compressed_pair_impIPN5Catch11SectionInfoENS_9allocatorIS2_EELj2EE5firstEv
FN:2235,_ZNKSt3__128__libcpp_compressed_pair_impIPN5Catch3PtrINS1_22CumulativeReporterBase4NodeINS1_12TestRunStatsENS4_INS1_14TestGroupStatsENS4_INS1_13TestCaseStatsENS3_11SectionNodeEEEEEEEEENS_9allocatorISC_EELj2EE5firstEv
FN:2235,_ZNKSt3__128__libcpp_compressed_pair_impINS_15__tree_end_nodeIPNS_16__tree_node_baseIPvEEEENS_9allocatorINS_11__tree_nodeINS_12__value_typeINS_12basic_stringIcNS_11char_traitsIcEENS7_IcEEEEPN5Catch18IGeneratorsForTestEEES3_EEEELj2EE5firstEv
FN:2235,_ZNKSt3__128__libcpp_compressed_pair_impINS_15__tree_end_nodeIPNS_16__tree_node_baseIPvEEEENS_9allocatorINS_11__tree_nodeINS_12__value_typeINS_12basic_stringIcNS_11char_traitsIcEENS7_IcEEEEN5Catch8TagAliasEEES3_EEEELj2EE5firstEv
FN:2235,_ZNKSt3__128__libcpp_compressed_pair_impImNS_19__map_value_compareINS_12basic_stringIcNS_11char_traitsIcEENS_9allocatorIcEEEENS_12__value_typeIS7_N5Catch7TagInfoEEENS_4lessIS7_EELb1EEELj2EE5firstEv
FN:2235,_ZNKSt3__128__libcpp_compressed_pair_impIPN5Catch3PtrINS1_22CumulativeReporterBase11SectionNodeEEENS_9allocatorIS5_EELj2EE5firstEv
FN:2235,_ZNKSt3__128__libcpp_compressed_pair_impIPN5Catch3PtrINS1_18IStreamingReporterEEENS_9allocatorIS4_EELj2EE5firstEv
FN:2235,_ZNKSt3__128__libcpp_compressed_pair_impImNS_19__map_value_compareIiNS_12__value_typeIiN5Catch5Clara11CommandLineINS3_10ConfigDataEE3ArgEEENS_4lessIiEELb1EEELj2EE5firstEv
FN:2235,_ZNKSt3__128__libcpp_compressed_pair_impIPPN5Catch14IGeneratorInfoENS_9allocatorIS3_EELj2EE5firstEv
FN:2235,_ZNKSt3__128__libcpp_compressed_pair_impINS_15__tree_end_nodeIPNS_16__tree_node_baseIPvEEEENS_9allocatorINS_11__tree_nodeIN5Catch8TestCaseES3_EEEELj2EE5firstEv
FN:2235,_ZNKSt3__128__libcpp_compressed_pair_impIPNS_12basic_stringIcNS_11char_traitsIcEENS_9allocatorIcEEEENS4_IS6_EELj2EE5firstEv
FN:2235,_ZNKSt3__128__libcpp_compressed_pair_impIPN5Catch3PtrINS1_16TestCaseTracking8ITrackerEEENS_9allocatorIS5_EELj2EE5firstEv
FN:2235,_ZNKSt3__128__libcpp_compressed_pair_impINS_15__tree_end_nodeIPNS_16__tree_node_baseIPvEEEENS_9allocatorINS_11__tree_nodeINS_12__value_typeIiN5Catch5Clara11CommandLineINSA_10ConfigDataEE3ArgEEES3_EEEELj2EE5firstEv
FN:2235,_ZNKSt3__128__libcpp_compressed_pair_impIPN5Catch5Clara6Parser5TokenENS_9allocatorIS4_EELj2EE5firstEv
FN:2235,_ZNKSt3__128__libcpp_compressed_pair_impIPPN5Catch16TestCaseTracking8ITrackerENS_9allocatorIS4_EELj2EE5firstEv
FN:2235,_ZNKSt3__128__libcpp_compressed_pair_impINS_12basic_stringIwNS_11char_traitsIwEENS_9allocatorIwEEE5__repES5_Lj2EE5firstEv
FN:2235,_ZNKSt3__128__libcpp_compressed_pair_impIPN5Catch3PtrINS1_16IReporterFactoryEEENS_9allocatorIS4_EELj2EE5firstEv
FN:2235,_ZNKSt3__128__libcpp_compressed_pair_impIPN5Catch5Clara11CommandLineINS1_10ConfigDataEE3ArgENS_9allocatorIS6_EELj2EE5firstEv
FN:2235,_ZNKSt3__128__libcpp_compressed_pair_impIPN5Catch3PtrINS1_8TestSpec7PatternEEENS_9allocatorIS5_EELj2EE5firstEv
FN:2235,_ZNKSt3__128__libcpp_compressed_pair_impIPN5Catch14AssertionStatsENS_9allocatorIS2_EELj2EE5firstEv
FN:2235,_ZNKSt3__128__libcpp_compressed_pair_impIPN5Catch15ConsoleReporter13SummaryColumnENS_9allocatorIS3_EELj2EE5firstEv
FN:2235,_ZNKSt3__128__libcpp_compressed_pair_impIPN5Catch8TestCaseENS_9allocatorIS2_EELj2EE5firstEv
FN:2235,_ZNKSt3__128__libcpp_compressed_pair_impIPN5Catch8TestSpec6FilterENS_9allocatorIS3_EELj2EE5firstEv
FN:2235,_ZNKSt3__128__libcpp_compressed_pair_impINS_15__tree_end_nodeIPNS_16__tree_node_baseIPvEEEENS_9allocatorINS_11__tree_nodeINS_12__value_typeINS_12basic_stringIcNS_11char_traitsIcEENS7_IcEEEEN5Catch3PtrINSF_16IReporterFactoryEEEEES3_EEEELj2EE5firstEv
FN:2235,_ZNKSt3__128__libcpp_compressed_pair_impINS_12basic_stringIcNS_11char_traitsIcEENS_9allocatorIcEEE5__repES5_Lj2EE5firstEv
FN:2235,_ZNKSt3__128__libcpp_compressed_pair_impIPN5Catch11MessageInfoENS_9allocatorIS2_EELj2EE5firstEv
FN:2235,_ZNKSt3__128__libcpp_compressed_pair_impINS_15__tree_end_nodeIPNS_16__tree_node_baseIPvEEEENS_9allocatorINS_11__tree_nodeINS_12basic_stringIcNS_11char_traitsIcEENS7_IcEEEES3_EEEELj2EE5firstEv
FN:2235,_ZNKSt3__128__libcpp_compressed_pair_impIPNS_6vectorIN5Catch3PtrINS2_22CumulativeReporterBase11SectionNodeEEENS_9allocatorIS6_EEEENS7_IS9_EELj2EE5firstEv
FN:2235,_ZNKSt3__128__libcpp_compressed_pair_impIPN5Catch14SectionEndInfoENS_9allocatorIS2_EELj2EE5firstEv
FN:2235,_ZNKSt3__128__libcpp_compressed_pair_impIPN5Catch11SectionInfoENS_9allocatorIS2_EELj2EE5firstEv
FN:2235,_ZNKSt3__128__libcpp_compressed_pair_impImNS_19__map_value_compareINS_12basic_stringIcNS_11char_traitsIcEENS_9allocatorIcEEEENS_12__value_typeIS7_N5Catch3PtrINS9_16IReporterFactoryEEEEENS_4lessIS7_EELb1EEELj2EE5firstEv
FN:2235,_ZNKSt3__128__libcpp_compressed_pair_impIPPKN5Catch8Matchers4Impl11MatcherBaseINS_12basic_stringIcNS_11char_traitsIcEENS_9allocatorIcEEEESA_EENS8_ISD_EELj2EE5firstEv
FN:2235,_ZNKSt3__128__libcpp_compressed_pair_impIPmNS_9allocatorImEELj2EE5firstEv
FN:2235,_ZNKSt3__128__libcpp_compressed_pair_impIPN5Catch3PtrINS1_22CumulativeReporterBase4NodeINS1_13TestCaseStatsENS3_11SectionNodeEEEEENS_9allocatorIS8_EELj2EE5firstEv
FN:2235,_ZNKSt3__128__libcpp_compressed_pair_impINS_15__tree_end_nodeIPNS_16__tree_node_baseIPvEEEENS_9allocatorINS_11__tree_nodeINS_12__value_typeINS_12basic_stringIcNS_11char_traitsIcEENS7_IcEEEEPN5Catch14IGeneratorInfoEEES3_EEEELj2EE5firstEv
FN:2235,_ZNKSt3__128__libcpp_compressed_pair_impImNS_4lessINS_12basic_stringIcNS_11char_traitsIcEENS_9allocatorIcEEEEEELj2EE5firstEv
FN:2235,_ZNKSt3__128__libcpp_compressed_pair_impIPPKN5Catch20IExceptionTranslatorENS_9allocatorIS4_EELj2EE5firstEv
FN:2235,_ZNKSt3__128__libcpp_compressed_pair_impIPN5Catch3PtrINS1_22CumulativeReporterBase4NodeINS1_14TestGroupStatsENS4_INS1_13TestCaseStatsENS3_11SectionNodeEEEEEEENS_9allocatorISA_EELj2EE5firstEv
FN:2235,_ZNKSt3__128__libcpp_compressed_pair_impINS_15__tree_end_nodeIPNS_16__tree_node_baseIPvEEEENS_9allocatorINS_11__tree_nodeINS_12__value_typeINS_12basic_stringIcNS_11char_traitsIcEENS7_IcEEEEN5Catch7TagInfoEEES3_EEEELj2EE5firstEv
FN:2237,_ZNSt3__128__libcpp_compressed_pair_impINS_15__tree_end_nodeIPNS_16__tree_node_baseIPvEEEENS_9allocatorINS_11__tree_nodeIN5Catch8TestCaseES3_EEEELj2EE6secondEv
FN:2237,_ZNSt3__128__libcpp_compressed_pair_impINS_15__tree_end_nodeIPNS_16__tree_node_baseIPvEEEENS_9allocatorINS_11__tree_nodeINS_12__value_typeINS_12basic_stringIcNS_11char_traitsIcEENS7_IcEEEEN5Catch3PtrINSF_16IReporterFactoryEEEEES3_EEEELj2EE6secondEv
FN:2237,_ZNSt3__128__libcpp_compressed_pair_impImNS_4lessIN5Catch8TestCaseEEELj2EE6secondEv
FN:2237,_ZNSt3__128__libcpp_compressed_pair_impIPN5Catch8TestCaseENS_9allocatorIS2_EELj2EE6secondEv
FN:2237,_ZNSt3__128__libcpp_compressed_pair_impIPN5Catch3PtrINS1_16IReporterFactoryEEENS_9allocatorIS4_EELj2EE6secondEv
FN:2237,_ZNSt3__128__libcpp_compressed_pair_impImNS_19__map_value_compareINS_12basic_stringIcNS_11char_traitsIcEENS_9allocatorIcEEEENS_12__value_typeIS7_PN5Catch14IGeneratorInfoEEENS_4lessIS7_EELb1EEELj2EE6secondEv
FN:2237,_ZNSt3__128__libcpp_compressed_pair_impImNS_19__map_value_compareINS_12basic_stringIcNS_11char_traitsIcEENS_9allocatorIcEEEENS_12__value_typeIS7_N5Catch8TagAliasEEENS_4lessIS7_EELb1EEELj2EE6secondEv
FN:2237,_ZNSt3__128__libcpp_compressed_pair_impIPN5Catch3PtrINS1_22CumulativeReporterBase4NodeINS1_14TestGroupStatsENS4_INS1_13TestCaseStatsENS3_11SectionNodeEEEEEEENS_9allocatorISA_EELj2EE6secondEv
FN:2237,_ZNSt3__128__libcpp_compressed_pair_impIPNS_12basic_stringIcNS_11char_traitsIcEENS_9allocatorIcEEEENS4_IS6_EELj2EE6secondEv
FN:2237,_ZNSt3__128__libcpp_compressed_pair_impIPN5Catch11SectionInfoENS_9allocatorIS2_EELj2EE6secondEv
FN:2237,_ZNSt3__128__libcpp_compressed_pair_impIPN5Catch3PtrINS1_8TestSpec7PatternEEENS_9allocatorIS5_EELj2EE6secondEv
FN:2237,_ZNSt3__128__libcpp_compressed_pair_impIPPN5Catch16TestCaseTracking8ITrackerENS_9allocatorIS4_EELj2EE6secondEv
FN:2237,_ZNSt3__128__libcpp_compressed_pair_impIPN5Catch5Clara11CommandLineINS1_10ConfigDataEE3ArgENS_9allocatorIS6_EELj2EE6secondEv
FN:2237,_ZNSt3__128__libcpp_compressed_pair_impIPPKN5Catch8Matchers4Impl11MatcherBaseINS_12basic_stringIcNS_11char_traitsIcEENS_9allocatorIcEEEESA_EENS8_ISD_EELj2EE6secondEv
FN:2237,_ZNSt3__128__libcpp_compressed_pair_impIPN5Catch3PtrINS1_18IStreamingReporterEEENS_9allocatorIS4_EELj2EE6secondEv
FN:2237,_ZNSt3__128__libcpp_compressed_pair_impINS_15__tree_end_nodeIPNS_16__tree_node_baseIPvEEEENS_9allocatorINS_11__tree_nodeINS_12__value_typeINS_12basic_stringIcNS_11char_traitsIcEENS7_IcEEEEPN5Catch14IGeneratorInfoEEES3_EEEELj2EE6secondEv
FN:2237,_ZNSt3__128__libcpp_compressed_pair_impIPN5Catch11MessageInfoENS_9allocatorIS2_EELj2EE6secondEv
FN:2237,_ZNSt3__128__libcpp_compressed_pair_impIPN5Catch15ConsoleReporter13SummaryColumnENS_9allocatorIS3_EELj2EE6secondEv
FN:2237,_ZNSt3__128__libcpp_compressed_pair_impIPNS_6vectorIN5Catch3PtrINS2_22CumulativeReporterBase11SectionNodeEEENS_9allocatorIS6_EEEENS7_IS9_EELj2EE6secondEv
FN:2237,_ZNSt3__128__libcpp_compressed_pair_impIPN5Catch3PtrINS1_16TestCaseTracking8ITrackerEEENS_9allocatorIS5_EELj2EE6secondEv
FN:2237,_ZNSt3__128__libcpp_compressed_pair_impImNS_19__map_value_compareINS_12basic_stringIcNS_11char_traitsIcEENS_9allocatorIcEEEENS_12__value_typeIS7_N5Catch7TagInfoEEENS_4lessIS7_EELb1EEELj2EE6secondEv
FN:2237,_ZNSt3__128__libcpp_compressed_pair_impIPN5Catch14SectionEndInfoENS_9allocatorIS2_EELj2EE6secondEv
FN:2237,_ZNSt3__128__libcpp_compressed_pair_impINS_15__tree_end_nodeIPNS_16__tree_node_baseIPvEEEENS_9allocatorINS_11__tree_nodeINS_12__value_typeINS_12basic_stringIcNS_11char_traitsIcEENS7_IcEEEEN5Catch7TagInfoEEES3_EEEELj2EE6secondEv
FN:2237,_ZNSt3__128__libcpp_compressed_pair_impIPPN5Catch14IGeneratorInfoENS_9allocatorIS3_EELj2EE6secondEv
FN:2237,_ZNSt3__128__libcpp_compressed_pair_impIPmNS_9allocatorImEELj2EE6secondEv
FN:2237,_ZNSt3__128__libcpp_compressed_pair_impImNS_4lessINS_12basic_stringIcNS_11char_traitsIcEENS_9allocatorIcEEEEEELj2EE6secondEv
FN:2237,_ZNSt3__128__libcpp_compressed_pair_impINS_15__tree_end_nodeIPNS_16__tree_node_baseIPvEEEENS_9allocatorINS_11__tree_nodeINS_12basic_stringIcNS_11char_traitsIcEENS7_IcEEEES3_EEEELj2EE6secondEv
FN:2237,_ZNSt3__128__libcpp_compressed_pair_impIPN5Catch3PtrINS1_22CumulativeReporterBase4NodeINS1_12TestRunStatsENS4_INS1_14TestGroupStatsENS4_INS1_13TestCaseStatsENS3_11SectionNodeEEEEEEEEENS_9allocatorISC_EELj2EE6secondEv
FN:2237,_ZNSt3__128__libcpp_compressed_pair_impIPN5Catch5Clara6Parser5TokenENS_9allocatorIS4_EELj2EE6secondEv
FN:2237,_ZNSt3__128__libcpp_compressed_pair_impINS_12basic_stringIcNS_11char_traitsIcEENS_9allocatorIcEEE5__repES5_Lj2EE6secondEv
FN:2237,_ZNSt3__128__libcpp_compressed_pair_impIPPKN5Catch20IExceptionTranslatorENS_9allocatorIS4_EELj2EE6secondEv
FN:2237,_ZNSt3__128__libcpp_compressed_pair_impINS_15__tree_end_nodeIPNS_16__tree_node_baseIPvEEEENS_9allocatorINS_11__tree_nodeINS_12__value_typeINS_12basic_stringIcNS_11char_traitsIcEENS7_IcEEEEN5Catch8TagAliasEEES3_EEEELj2EE6secondEv
FN:2237,_ZNSt3__128__libcpp_compressed_pair_impImNS_19__map_value_compareINS_12basic_stringIcNS_11char_traitsIcEENS_9allocatorIcEEEENS_12__value_typeIS7_PN5Catch18IGeneratorsForTestEEENS_4lessIS7_EELb1EEELj2EE6secondEv
FN:2237,_ZNSt3__128__libcpp_compressed_pair_impIPN5Catch14AssertionStatsENS_9allocatorIS2_EELj2EE6secondEv
FN:2237,_ZNSt3__128__libcpp_compressed_pair_impINS_15__tree_end_nodeIPNS_16__tree_node_baseIPvEEEENS_9allocatorINS_11__tree_nodeINS_12__value_typeIiN5Catch5Clara11CommandLineINSA_10ConfigDataEE3ArgEEES3_EEEELj2EE6secondEv
FN:2237,_ZNSt3__128__libcpp_compressed_pair_impIPN5Catch3PtrINS1_22CumulativeReporterBase4NodeINS1_13TestCaseStatsENS3_11SectionNodeEEEEENS_9allocatorIS8_EELj2EE6secondEv
FN:2237,_ZNSt3__128__libcpp_compressed_pair_impINS_15__tree_end_nodeIPNS_16__tree_node_baseIPvEEEENS_9allocatorINS_11__tree_nodeINS_12__value_typeINS_12basic_stringIcNS_11char_traitsIcEENS7_IcEEEEPN5Catch18IGeneratorsForTestEEES3_EEEELj2EE6secondEv
FN:2237,_ZNSt3__128__libcpp_compressed_pair_impIPN5Catch8TestSpec6FilterENS_9allocatorIS3_EELj2EE6secondEv
FN:2237,_ZNSt3__128__libcpp_compressed_pair_impIPN5Catch3PtrINS1_22CumulativeReporterBase11SectionNodeEEENS_9allocatorIS5_EELj2EE6secondEv
FN:2237,_ZNSt3__128__libcpp_compressed_pair_impImNS_19__map_value_compareINS_12basic_stringIcNS_11char_traitsIcEENS_9allocatorIcEEEENS_12__value_typeIS7_N5Catch3PtrINS9_16IReporterFactoryEEEEENS_4lessIS7_EELb1EEELj2EE6secondEv
FN:2238,_ZNKSt3__128__libcpp_compressed_pair_impINS_12basic_stringIcNS_11char_traitsIcEENS_9allocatorIcEEE5__repES5_Lj2EE6secondEv
FN:2238,_ZNKSt3__128__libcpp_compressed_pair_impImNS_19__map_value_compareIiNS_12__value_typeIiN5Catch5Clara11CommandLineINS3_10ConfigDataEE3ArgEEENS_4lessIiEELb1EEELj2EE6secondEv
FN:2238,_ZNKSt3__128__libcpp_compressed_pair_impIPN5Catch5Clara11CommandLineINS1_10ConfigDataEE3ArgENS_9allocatorIS6_EELj2EE6secondEv
FN:2238,_ZNKSt3__128__libcpp_compressed_pair_impIPmNS_9allocatorImEELj2EE6secondEv
FN:2238,_ZNKSt3__128__libcpp_compressed_pair_impIPN5Catch3PtrINS1_18IStreamingReporterEEENS_9allocatorIS4_EELj2EE6secondEv
FN:2238,_ZNKSt3__128__libcpp_compressed_pair_impIPPN5Catch14IGeneratorInfoENS_9allocatorIS3_EELj2EE6secondEv
FN:2238,_ZNKSt3__128__libcpp_compressed_pair_impIPN5Catch3PtrINS1_8TestSpec7PatternEEENS_9allocatorIS5_EELj2EE6secondEv
FN:2238,_ZNKSt3__128__libcpp_compressed_pair_impImNS_19__map_value_compareINS_12basic_stringIcNS_11char_traitsIcEENS_9allocatorIcEEEENS_12__value_typeIS7_N5Catch8TagAliasEEENS_4lessIS7_EELb1EEELj2EE6secondEv
FN:2238,_ZNKSt3__128__libcpp_compressed_pair_impIPN5Catch3PtrINS1_22CumulativeReporterBase11SectionNodeEEENS_9allocatorIS5_EELj2EE6secondEv
FN:2238,_ZNKSt3__128__libcpp_compressed_pair_impImNS_4lessINS_12basic_stringIcNS_11char_traitsIcEENS_9allocatorIcEEEEEELj2EE6secondEv
FN:2238,_ZNKSt3__128__libcpp_compressed_pair_impIPN5Catch3PtrINS1_22CumulativeReporterBase4NodeINS1_12TestRunStatsENS4_INS1_14TestGroupStatsENS4_INS1_13TestCaseStatsENS3_11SectionNodeEEEEEEEEENS_9allocatorISC_EELj2EE6secondEv
FN:2238,_ZNKSt3__128__libcpp_compressed_pair_impIPN5Catch8TestSpec6FilterENS_9allocatorIS3_EELj2EE6secondEv
FN:2238,_ZNKSt3__128__libcpp_compressed_pair_impIPPN5Catch16TestCaseTracking8ITrackerENS_9allocatorIS4_EELj2EE6secondEv
FN:2238,_ZNKSt3__128__libcpp_compressed_pair_impIPN5Catch3PtrINS1_16IReporterFactoryEEENS_9allocatorIS4_EELj2EE6secondEv
FN:2238,_ZNKSt3__128__libcpp_compressed_pair_impIPN5Catch3PtrINS1_22CumulativeReporterBase4NodeINS1_14TestGroupStatsENS4_INS1_13TestCaseStatsENS3_11SectionNodeEEEEEEENS_9allocatorISA_EELj2EE6secondEv
FN:2238,_ZNKSt3__128__libcpp_compressed_pair_impImNS_19__map_value_compareINS_12basic_stringIcNS_11char_traitsIcEENS_9allocatorIcEEEENS_12__value_typeIS7_N5Catch3PtrINS9_16IReporterFactoryEEEEENS_4lessIS7_EELb1EEELj2EE6secondEv
FN:2238,_ZNKSt3__128__libcpp_compressed_pair_impIPN5Catch8TestCaseENS_9allocatorIS2_EELj2EE6secondEv
FN:2238,_ZNKSt3__128__libcpp_compressed_pair_impIPN5Catch14AssertionStatsENS_9allocatorIS2_EELj2EE6secondEv
FN:2238,_ZNKSt3__128__libcpp_compressed_pair_impIPPKN5Catch20IExceptionTranslatorENS_9allocatorIS4_EELj2EE6secondEv
FN:2238,_ZNKSt3__128__libcpp_compressed_pair_impIPN5Catch5Clara6Parser5TokenENS_9allocatorIS4_EELj2EE6secondEv
FN:2238,_ZNKSt3__128__libcpp_compressed_pair_impIPN5Catch14SectionEndInfoENS_9allocatorIS2_EELj2EE6secondEv
FN:2238,_ZNKSt3__128__libcpp_compressed_pair_impIPN5Catch15ConsoleReporter13SummaryColumnENS_9allocatorIS3_EELj2EE6secondEv
FN:2238,_ZNKSt3__128__libcpp_compressed_pair_impIPN5Catch11SectionInfoENS_9allocatorIS2_EELj2EE6secondEv
FN:2238,_ZNKSt3__128__libcpp_compressed_pair_impINS_15__tree_end_nodeIPNS_16__tree_node_baseIPvEEEENS_9allocatorINS_11__tree_nodeINS_12basic_stringIcNS_11char_traitsIcEENS7_IcEEEES3_EEEELj2EE6secondEv
FN:2238,_ZNKSt3__128__libcpp_compressed_pair_impIPN5Catch3PtrINS1_16TestCaseTracking8ITrackerEEENS_9allocatorIS5_EELj2EE6secondEv
FN:2238,_ZNKSt3__128__libcpp_compressed_pair_impIPN5Catch3PtrINS1_22CumulativeReporterBase4NodeINS1_13TestCaseStatsENS3_11SectionNodeEEEEENS_9allocatorIS8_EELj2EE6secondEv
FN:2238,_ZNKSt3__128__libcpp_compressed_pair_impIPN5Catch11MessageInfoENS_9allocatorIS2_EELj2EE6secondEv
FN:2238,_ZNKSt3__128__libcpp_compressed_pair_impIPNS_12basic_stringIcNS_11char_traitsIcEENS_9allocatorIcEEEENS4_IS6_EELj2EE6secondEv
FN:2240,_ZNSt3__128__libcpp_compressed_pair_impImNS_4lessINS_12basic_stringIcNS_11char_traitsIcEENS_9allocatorIcEEEEEELj2EE4swapERS9_
FN:2315,_ZNSt3__117__compressed_pairINS_15__tree_end_nodeIPNS_16__tree_node_baseIPvEEEENS_9allocatorINS_11__tree_nodeINS_12__value_typeINS_12basic_stringIcNS_11char_traitsIcEENS7_IcEEEEN5Catch8TagAliasEEES3_EEEEEC2Ev
FN:2315,_ZNSt3__117__compressed_pairINS_15__tree_end_nodeIPNS_16__tree_node_baseIPvEEEENS_9allocatorINS_11__tree_nodeINS_12__value_typeINS_12basic_stringIcNS_11char_traitsIcEENS7_IcEEEEPN5Catch18IGeneratorsForTestEEES3_EEEEEC2Ev
FN:2315,_ZNSt3__117__compressed_pairINS_12basic_stringIwNS_11char_traitsIwEENS_9allocatorIwEEE5__repES5_EC1Ev
FN:2315,_ZNSt3__117__compressed_pairINS_12basic_stringIwNS_11char_traitsIwEENS_9allocatorIwEEE5__repES5_EC2Ev
FN:2315,_ZNSt3__117__compressed_pairINS_15__tree_end_nodeIPNS_16__tree_node_baseIPvEEEENS_9allocatorINS_11__tree_nodeINS_12__value_typeIiN5Catch5Clara11CommandLineINSA_10ConfigDataEE3ArgEEES3_EEEEEC2Ev
FN:2315,_ZNSt3__117__compressed_pairINS_15__tree_end_nodeIPNS_16__tree_node_baseIPvEEEENS_9allocatorINS_11__tree_nodeINS_12__value_typeINS_12basic_stringIcNS_11char_traitsIcEENS7_IcEEEEPN5Catch14IGeneratorInfoEEES3_EEEEEC1Ev
FN:2315,_ZNSt3__117__compressed_pairINS_15__tree_end_nodeIPNS_16__tree_node_baseIPvEEEENS_9allocatorINS_11__tree_nodeIN5Catch8TestCaseES3_EEEEEC1Ev
FN:2315,_ZNSt3__117__compressed_pairINS_15__tree_end_nodeIPNS_16__tree_node_baseIPvEEEENS_9allocatorINS_11__tree_nodeINS_12__value_typeIiN5Catch5Clara11CommandLineINSA_10ConfigDataEE3ArgEEES3_EEEEEC1Ev
FN:2315,_ZNSt3__117__compressed_pairINS_15__tree_end_nodeIPNS_16__tree_node_baseIPvEEEENS_9allocatorINS_11__tree_nodeINS_12__value_typeINS_12basic_stringIcNS_11char_traitsIcEENS7_IcEEEEPN5Catch18IGeneratorsForTestEEES3_EEEEEC1Ev
FN:2315,_ZNSt3__117__compressed_pairINS_15__tree_end_nodeIPNS_16__tree_node_baseIPvEEEENS_9allocatorINS_11__tree_nodeINS_12__value_typeINS_12basic_stringIcNS_11char_traitsIcEENS7_IcEEEEN5Catch3PtrINSF_16IReporterFactoryEEEEES3_EEEEEC1Ev
FN:2315,_ZNSt3__117__compressed_pairINS_15__tree_end_nodeIPNS_16__tree_node_baseIPvEEEENS_9allocatorINS_11__tree_nodeINS_12__value_typeINS_12basic_stringIcNS_11char_traitsIcEENS7_IcEEEEPN5Catch14IGeneratorInfoEEES3_EEEEEC2Ev
FN:2315,_ZNSt3__117__compressed_pairINS_12basic_stringIcNS_11char_traitsIcEENS_9allocatorIcEEE5__repES5_EC1Ev
FN:2315,_ZNSt3__117__compressed_pairINS_15__tree_end_nodeIPNS_16__tree_node_baseIPvEEEENS_9allocatorINS_11__tree_nodeINS_12basic_stringIcNS_11char_traitsIcEENS7_IcEEEES3_EEEEEC2Ev
FN:2315,_ZNSt3__117__compressed_pairINS_15__tree_end_nodeIPNS_16__tree_node_baseIPvEEEENS_9allocatorINS_11__tree_nodeINS_12__value_typeINS_12basic_stringIcNS_11char_traitsIcEENS7_IcEEEEN5Catch3PtrINSF_16IReporterFactoryEEEEES3_EEEEEC2Ev
FN:2315,_ZNSt3__117__compressed_pairINS_15__tree_end_nodeIPNS_16__tree_node_baseIPvEEEENS_9allocatorINS_11__tree_nodeINS_12basic_stringIcNS_11char_traitsIcEENS7_IcEEEES3_EEEEEC1Ev
FN:2315,_ZNSt3__117__compressed_pairINS_15__tree_end_nodeIPNS_16__tree_node_baseIPvEEEENS_9allocatorINS_11__tree_nodeINS_12__value_typeINS_12basic_stringIcNS_11char_traitsIcEENS7_IcEEEEN5Catch7TagInfoEEES3_EEEEEC1Ev
FN:2315,_ZNSt3__117__compressed_pairINS_15__tree_end_nodeIPNS_16__tree_node_baseIPvEEEENS_9allocatorINS_11__tree_nodeINS_12__value_typeINS_12basic_stringIcNS_11char_traitsIcEENS7_IcEEEEN5Catch7TagInfoEEES3_EEEEEC2Ev
FN:2315,_ZNSt3__117__compressed_pairINS_12basic_stringIcNS_11char_traitsIcEENS_9allocatorIcEEE5__repES5_EC2Ev
FN:2315,_ZNSt3__117__compressed_pairINS_15__tree_end_nodeIPNS_16__tree_node_baseIPvEEEENS_9allocatorINS_11__tree_nodeINS_12__value_typeINS_12basic_stringIcNS_11char_traitsIcEENS7_IcEEEEN5Catch8TagAliasEEES3_EEEEEC1Ev
FN:2315,_ZNSt3__117__compressed_pairINS_15__tree_end_nodeIPNS_16__tree_node_baseIPvEEEENS_9allocatorINS_11__tree_nodeIN5Catch8TestCaseES3_EEEEEC2Ev
FN:2316,_ZNSt3__117__compressed_pairIPPKN5Catch20IExceptionTranslatorENS_9allocatorIS4_EEEC1ES5_
FN:2316,_ZNSt3__117__compressed_pairIPN5Catch3PtrINS1_18IStreamingReporterEEENS_9allocatorIS4_EEEC1ES5_
FN:2316,_ZNSt3__117__compressed_pairIPPN5Catch16TestCaseTracking8ITrackerENS_9allocatorIS4_EEEC1ES5_
FN:2316,_ZNSt3__117__compressed_pairIPPKN5Catch20IExceptionTranslatorENS_9allocatorIS4_EEEC2ES5_
FN:2316,_ZNSt3__117__compressed_pairIPN5Catch5Clara6Parser5TokenENS_9allocatorIS4_EEEC1ES5_
FN:2316,_ZNSt3__117__compressed_pairIPN5Catch5Clara11CommandLineINS1_10ConfigDataEE3ArgENS_9allocatorIS6_EEEC2ES7_
FN:2316,_ZNSt3__117__compressed_pairIPN5Catch3PtrINS1_16IReporterFactoryEEENS_9allocatorIS4_EEEC1ES5_
FN:2316,_ZNSt3__117__compressed_pairIPN5Catch3PtrINS1_22CumulativeReporterBase11SectionNodeEEENS_9allocatorIS5_EEEC2ES6_
FN:2316,_ZNSt3__117__compressed_pairIPmNS_9allocatorImEEEC1ES1_
FN:2316,_ZNSt3__117__compressed_pairIPN5Catch8TestSpec6FilterENS_9allocatorIS3_EEEC2ES4_
FN:2316,_ZNSt3__117__compressed_pairIPN5Catch3PtrINS1_18IStreamingReporterEEENS_9allocatorIS4_EEEC2ES5_
FN:2316,_ZNSt3__117__compressed_pairIPN5Catch11SectionInfoENS_9allocatorIS2_EEEC2ES3_
FN:2316,_ZNSt3__117__compressed_pairIPN5Catch14AssertionStatsENS_9allocatorIS2_EEEC2ES3_
FN:2316,_ZNSt3__117__compressed_pairIPN5Catch3PtrINS1_22CumulativeReporterBase4NodeINS1_14TestGroupStatsENS4_INS1_13TestCaseStatsENS3_11SectionNodeEEEEEEENS_9allocatorISA_EEEC2ESB_
FN:2316,_ZNSt3__117__compressed_pairIPN5Catch11SectionInfoENS_9allocatorIS2_EEEC1ES3_
FN:2316,_ZNSt3__117__compressed_pairIPN5Catch3PtrINS1_22CumulativeReporterBase4NodeINS1_12TestRunStatsENS4_INS1_14TestGroupStatsENS4_INS1_13TestCaseStatsENS3_11SectionNodeEEEEEEEEENS_9allocatorISC_EEEC2ESD_
FN:2316,_ZNSt3__117__compressed_pairIPPN5Catch16TestCaseTracking8ITrackerENS_9allocatorIS4_EEEC2ES5_
FN:2316,_ZNSt3__117__compressed_pairIPN5Catch3PtrINS1_8TestSpec7PatternEEENS_9allocatorIS5_EEEC2ES6_
FN:2316,_ZNSt3__117__compressed_pairIPN5Catch3PtrINS1_22CumulativeReporterBase4NodeINS1_13TestCaseStatsENS3_11SectionNodeEEEEENS_9allocatorIS8_EEEC1ES9_
FN:2316,_ZNSt3__117__compressed_pairIPN5Catch3PtrINS1_16TestCaseTracking8ITrackerEEENS_9allocatorIS5_EEEC1ES6_
FN:2316,_ZNSt3__117__compressed_pairIPNS_12basic_stringIcNS_11char_traitsIcEENS_9allocatorIcEEEENS4_IS6_EEEC1ES7_
FN:2316,_ZNSt3__117__compressed_pairIPN5Catch15ConsoleReporter13SummaryColumnENS_9allocatorIS3_EEEC2ES4_
FN:2316,_ZNSt3__117__compressed_pairIPN5Catch3PtrINS1_16TestCaseTracking8ITrackerEEENS_9allocatorIS5_EEEC2ES6_
FN:2316,_ZNSt3__117__compressed_pairIPPKN5Catch8Matchers4Impl11MatcherBaseINS_12basic_stringIcNS_11char_traitsIcEENS_9allocatorIcEEEESA_EENS8_ISD_EEEC1ESE_
FN:2316,_ZNSt3__117__compressed_pairIPN5Catch15ConsoleReporter13SummaryColumnENS_9allocatorIS3_EEEC1ES4_
FN:2316,_ZNSt3__117__compressed_pairIPN5Catch14AssertionStatsENS_9allocatorIS2_EEEC1ES3_
FN:2316,_ZNSt3__117__compressed_pairIPN5Catch14SectionEndInfoENS_9allocatorIS2_EEEC2ES3_
FN:2316,_ZNSt3__117__compressed_pairIPN5Catch3PtrINS1_16IReporterFactoryEEENS_9allocatorIS4_EEEC2ES5_
FN:2316,_ZNSt3__117__compressed_pairIPPKN5Catch8Matchers4Impl11MatcherBaseINS_12basic_stringIcNS_11char_traitsIcEENS_9allocatorIcEEEESA_EENS8_ISD_EEEC2ESE_
FN:2316,_ZNSt3__117__compressed_pairIPN5Catch8TestCaseENS_9allocatorIS2_EEEC1ES3_
FN:2316,_ZNSt3__117__compressed_pairIPN5Catch5Clara11CommandLineINS1_10ConfigDataEE3ArgENS_9allocatorIS6_EEEC1ES7_
FN:2316,_ZNSt3__117__compressed_pairIPN5Catch11MessageInfoENS_9allocatorIS2_EEEC1ES3_
FN:2316,_ZNSt3__117__compressed_pairIPN5Catch8TestCaseENS_9allocatorIS2_EEEC2ES3_
FN:2316,_ZNSt3__117__compressed_pairIPPN5Catch14IGeneratorInfoENS_9allocatorIS3_EEEC1ES4_
FN:2316,_ZNSt3__117__compressed_pairIPN5Catch3PtrINS1_8TestSpec7PatternEEENS_9allocatorIS5_EEEC1ES6_
FN:2316,_ZNSt3__117__compressed_pairIPN5Catch3PtrINS1_22CumulativeReporterBase4NodeINS1_13TestCaseStatsENS3_11SectionNodeEEEEENS_9allocatorIS8_EEEC2ES9_
FN:2316,_ZNSt3__117__compressed_pairIPN5Catch3PtrINS1_22CumulativeReporterBase11SectionNodeEEENS_9allocatorIS5_EEEC1ES6_
FN:2316,_ZNSt3__117__compressed_pairIPN5Catch3PtrINS1_22CumulativeReporterBase4NodeINS1_14TestGroupStatsENS4_INS1_13TestCaseStatsENS3_11SectionNodeEEEEEEENS_9allocatorISA_EEEC1ESB_
FN:2316,_ZNSt3__117__compressed_pairIPNS_12basic_stringIcNS_11char_traitsIcEENS_9allocatorIcEEEENS4_IS6_EEEC2ES7_
FN:2316,_ZNSt3__117__compressed_pairIPPN5Catch14IGeneratorInfoENS_9allocatorIS3_EEEC2ES4_
FN:2316,_ZNSt3__117__compressed_pairIPN5Catch3PtrINS1_22CumulativeReporterBase4NodeINS1_12TestRunStatsENS4_INS1_14TestGroupStatsENS4_INS1_13TestCaseStatsENS3_11SectionNodeEEEEEEEEENS_9allocatorISC_EEEC1ESD_
FN:2316,_ZNSt3__117__compressed_pairIPNS_6vectorIN5Catch3PtrINS2_22CumulativeReporterBase11SectionNodeEEENS_9allocatorIS6_EEEENS7_IS9_EEEC1ESA_
FN:2316,_ZNSt3__117__compressed_pairIPN5Catch14SectionEndInfoENS_9allocatorIS2_EEEC1ES3_
FN:2316,_ZNSt3__117__compressed_pairIPNS_6vectorIN5Catch3PtrINS2_22CumulativeReporterBase11SectionNodeEEENS_9allocatorIS6_EEEENS7_IS9_EEEC2ESA_
FN:2316,_ZNSt3__117__compressed_pairIPmNS_9allocatorImEEEC2ES1_
FN:2316,_ZNSt3__117__compressed_pairIPN5Catch8TestSpec6FilterENS_9allocatorIS3_EEEC1ES4_
FN:2316,_ZNSt3__117__compressed_pairIPN5Catch5Clara6Parser5TokenENS_9allocatorIS4_EEEC2ES5_
FN:2316,_ZNSt3__117__compressed_pairIPN5Catch11MessageInfoENS_9allocatorIS2_EEEC2ES3_
FN:2318,_ZNSt3__117__compressed_pairINS_12basic_stringIcNS_11char_traitsIcEENS_9allocatorIcEEE5__repES5_EC2ES5_
FN:2318,_ZNSt3__117__compressed_pairINS_12basic_stringIcNS_11char_traitsIcEENS_9allocatorIcEEE5__repES5_EC1ES5_
FN:2318,_ZNSt3__117__compressed_pairINS_15__tree_end_nodeIPNS_16__tree_node_baseIPvEEEENS_9allocatorINS_11__tree_nodeINS_12basic_stringIcNS_11char_traitsIcEENS7_IcEEEES3_EEEEEC2ESF_
FN:2318,_ZNSt3__117__compressed_pairINS_15__tree_end_nodeIPNS_16__tree_node_baseIPvEEEENS_9allocatorINS_11__tree_nodeINS_12basic_stringIcNS_11char_traitsIcEENS7_IcEEEES3_EEEEEC1ESF_
FN:2320,_ZNSt3__117__compressed_pairImNS_19__map_value_compareINS_12basic_stringIcNS_11char_traitsIcEENS_9allocatorIcEEEENS_12__value_typeIS7_N5Catch3PtrINS9_16IReporterFactoryEEEEENS_4lessIS7_EELb1EEEEC1EmSG_
FN:2320,_ZNSt3__117__compressed_pairIPN5Catch8TestCaseERNS_9allocatorIS2_EEEC2ES3_S6_
FN:2320,_ZNSt3__117__compressed_pairIPN5Catch14SectionEndInfoERNS_9allocatorIS2_EEEC1ES3_S6_
FN:2320,_ZNSt3__117__compressed_pairIPN5Catch5Clara6Parser5TokenERNS_9allocatorIS4_EEEC1ES5_S8_
FN:2320,_ZNSt3__117__compressed_pairIPN5Catch15ConsoleReporter13SummaryColumnERNS_9allocatorIS3_EEEC1ES4_S7_
FN:2320,_ZNSt3__117__compressed_pairImNS_19__map_value_compareINS_12basic_stringIcNS_11char_traitsIcEENS_9allocatorIcEEEENS_12__value_typeIS7_PN5Catch14IGeneratorInfoEEENS_4lessIS7_EELb1EEEEC1EmSF_
FN:2320,_ZNSt3__117__compressed_pairIPN5Catch11MessageInfoENS_9allocatorIS2_EEEC2ES3_S5_
FN:2320,_ZNSt3__117__compressed_pairIPN5Catch3PtrINS1_22CumulativeReporterBase4NodeINS1_14TestGroupStatsENS4_INS1_13TestCaseStatsENS3_11SectionNodeEEEEEEERNS_9allocatorISA_EEEC2ESB_SE_
FN:2320,_ZNSt3__117__compressed_pairIPN5Catch11MessageInfoERNS_9allocatorIS2_EEEC2ES3_S6_
FN:2320,_ZNSt3__117__compressed_pairIPNS_12basic_stringIcNS_11char_traitsIcEENS_9allocatorIcEEEERNS4_IS6_EEEC2ES7_S9_
FN:2320,_ZNSt3__117__compressed_pairIPN5Catch8TestSpec6FilterENS_9allocatorIS3_EEEC1ES4_S6_
FN:2320,_ZNSt3__117__compressed_pairIPN5Catch3PtrINS1_22CumulativeReporterBase4NodeINS1_13TestCaseStatsENS3_11SectionNodeEEEEERNS_9allocatorIS8_EEEC1ES9_SC_
FN:2320,_ZNSt3__117__compressed_pairImNS_4lessIN5Catch8TestCaseEEEEC2EmS4_
FN:2320,_ZNSt3__117__compressed_pairIPN5Catch3PtrINS1_22CumulativeReporterBase4NodeINS1_12TestRunStatsENS4_INS1_14TestGroupStatsENS4_INS1_13TestCaseStatsENS3_11SectionNodeEEEEEEEEERNS_9allocatorISC_EEEC2ESD_SG_
FN:2320,_ZNSt3__117__compressed_pairIPN5Catch11SectionInfoERNS_9allocatorIS2_EEEC1ES3_S6_
FN:2320,_ZNSt3__117__compressed_pairIPN5Catch3PtrINS1_22CumulativeReporterBase4NodeINS1_14TestGroupStatsENS4_INS1_13TestCaseStatsENS3_11SectionNodeEEEEEEERNS_9allocatorISA_EEEC1ESB_SE_
FN:2320,_ZNSt3__117__compressed_pairIPmRNS_9allocatorImEEEC1ES1_S4_
FN:2320,_ZNSt3__117__compressed_pairIPN5Catch3PtrINS1_8TestSpec7PatternEEERNS_9allocatorIS5_EEEC1ES6_S9_
FN:2320,_ZNSt3__117__compressed_pairIPN5Catch5Clara6Parser5TokenENS_9allocatorIS4_EEEC1ES5_S7_
FN:2320,_ZNSt3__117__compressed_pairIPNS_11__tree_nodeINS_12__value_typeINS_12basic_stringIcNS_11char_traitsIcEENS_9allocatorIcEEEEPN5Catch14IGeneratorInfoEEEPvEENS_22__tree_node_destructorINS6_ISE_EEEEEC2ESF_SI_
FN:2320,_ZNSt3__117__compressed_pairIPN5Catch3PtrINS1_22CumulativeReporterBase4NodeINS1_13TestCaseStatsENS3_11SectionNodeEEEEERNS_9allocatorIS8_EEEC2ES9_SC_
FN:2320,_ZNSt3__117__compressed_pairIPNS_11__tree_nodeINS_12__value_typeINS_12basic_stringIcNS_11char_traitsIcEENS_9allocatorIcEEEEN5Catch7TagInfoEEEPvEENS_22__tree_node_destructorINS6_ISD_EEEEEC1ESE_SH_
FN:2320,_ZNSt3__117__compressed_pairIPN5Catch3PtrINS1_8TestSpec7PatternEEENS_9allocatorIS5_EEEC1ES6_S8_
FN:2320,_ZNSt3__117__compressed_pairIPmRNS_9allocatorImEEEC2ES1_S4_
FN:2320,_ZNSt3__117__compressed_pairIPPN5Catch16TestCaseTracking8ITrackerERNS_9allocatorIS4_EEEC1ES5_S8_
FN:2320,_ZNSt3__117__compressed_pairIPNS_11__tree_nodeINS_12__value_typeINS_12basic_stringIcNS_11char_traitsIcEENS_9allocatorIcEEEEN5Catch8TagAliasEEEPvEENS_22__tree_node_destructorINS6_ISD_EEEEEC1ESE_SH_
FN:2320,_ZNSt3__117__compressed_pairImNS_19__map_value_compareINS_12basic_stringIcNS_11char_traitsIcEENS_9allocatorIcEEEENS_12__value_typeIS7_N5Catch3PtrINS9_16IReporterFactoryEEEEENS_4lessIS7_EELb1EEEEC2EmSG_
FN:2320,_ZNSt3__117__compressed_pairIP7__sFILEPFiS2_EEC2ES2_S4_
FN:2320,_ZNSt3__117__compressed_pairImNS_19__map_value_compareIiNS_12__value_typeIiN5Catch5Clara11CommandLineINS3_10ConfigDataEE3ArgEEENS_4lessIiEELb1EEEEC2EmSC_
FN:2320,_ZNSt3__117__compressed_pairIPNS_12basic_stringIcNS_11char_traitsIcEENS_9allocatorIcEEEENS4_IS6_EEEC1ES7_S8_
FN:2320,_ZNSt3__117__compressed_pairImNS_19__map_value_compareINS_12basic_stringIcNS_11char_traitsIcEENS_9allocatorIcEEEENS_12__value_typeIS7_N5Catch7TagInfoEEENS_4lessIS7_EELb1EEEEC1EmSE_
FN:2320,_ZNSt3__117__compressed_pairIPNS_11__tree_nodeINS_12__value_typeINS_12basic_stringIcNS_11char_traitsIcEENS_9allocatorIcEEEEN5Catch3PtrINS9_16IReporterFactoryEEEEEPvEENS_22__tree_node_destructorINS6_ISF_EEEEEC1ESG_SJ_
FN:2320,_ZNSt3__117__compressed_pairIPNS_11__tree_nodeINS_12__value_typeINS_12basic_stringIcNS_11char_traitsIcEENS_9allocatorIcEEEEPN5Catch18IGeneratorsForTestEEEPvEENS_22__tree_node_destructorINS6_ISE_EEEEEC2ESF_SI_
FN:2320,_ZNSt3__117__compressed_pairImNS_19__map_value_compareINS_12basic_stringIcNS_11char_traitsIcEENS_9allocatorIcEEEENS_12__value_typeIS7_N5Catch7TagInfoEEENS_4lessIS7_EELb1EEEEC2EmSE_
FN:2320,_ZNSt3__117__compressed_pairIPN5Catch3PtrINS1_8TestSpec7PatternEEENS_9allocatorIS5_EEEC2ES6_S8_
FN:2320,_ZNSt3__117__compressed_pairIPN5Catch5Clara6Parser5TokenENS_9allocatorIS4_EEEC2ES5_S7_
FN:2320,_ZNSt3__117__compressed_pairIPNS_11__tree_nodeINS_12__value_typeINS_12basic_stringIcNS_11char_traitsIcEENS_9allocatorIcEEEEPN5Catch14IGeneratorInfoEEEPvEENS_22__tree_node_destructorINS6_ISE_EEEEEC1ESF_SI_
FN:2320,_ZNSt3__117__compressed_pairIPN5Catch3PtrINS1_16IReporterFactoryEEENS_9allocatorIS4_EEEC2ES5_S7_
FN:2320,_ZNSt3__117__compressed_pairImNS_4lessINS_12basic_stringIcNS_11char_traitsIcEENS_9allocatorIcEEEEEEEC1EmS8_
FN:2320,_ZNSt3__117__compressed_pairImNS_19__map_value_compareIiNS_12__value_typeIiN5Catch5Clara11CommandLineINS3_10ConfigDataEE3ArgEEENS_4lessIiEELb1EEEEC1EmSC_
FN:2320,_ZNSt3__117__compressed_pairIPN5Catch3PtrINS1_22CumulativeReporterBase11SectionNodeEEERNS_9allocatorIS5_EEEC2ES6_S9_
FN:2320,_ZNSt3__117__compressed_pairIPN5Catch14SectionEndInfoERNS_9allocatorIS2_EEEC2ES3_S6_
FN:2320,_ZNSt3__117__compressed_pairIPN5Catch8TestSpec6FilterERNS_9allocatorIS3_EEEC1ES4_S7_
FN:2320,_ZNSt3__117__compressed_pairIPNS_11__tree_nodeINS_12__value_typeINS_12basic_stringIcNS_11char_traitsIcEENS_9allocatorIcEEEEN5Catch8TagAliasEEEPvEENS_22__tree_node_destructorINS6_ISD_EEEEEC2ESE_SH_
FN:2320,_ZNSt3__117__compressed_pairIPN5Catch14AssertionStatsERNS_9allocatorIS2_EEEC1ES3_S6_
FN:2320,_ZNSt3__117__compressed_pairIPNS_12basic_stringIcNS_11char_traitsIcEENS_9allocatorIcEEEENS4_IS6_EEEC2ES7_S8_
FN:2320,_ZNSt3__117__compressed_pairIPNS_11__tree_nodeINS_12__value_typeINS_12basic_stringIcNS_11char_traitsIcEENS_9allocatorIcEEEEN5Catch7TagInfoEEEPvEENS_22__tree_node_destructorINS6_ISD_EEEEEC2ESE_SH_
FN:2320,_ZNSt3__117__compressed_pairIPPKN5Catch20IExceptionTranslatorERNS_9allocatorIS4_EEEC2ES5_S8_
FN:2320,_ZNSt3__117__compressed_pairIPNS_11__tree_nodeINS_12__value_typeINS_12basic_stringIcNS_11char_traitsIcEENS_9allocatorIcEEEEN5Catch3PtrINS9_16IReporterFactoryEEEEEPvEENS_22__tree_node_destructorINS6_ISF_EEEEEC2ESG_SJ_
FN:2320,_ZNSt3__117__compressed_pairIPN5Catch3PtrINS1_16IReporterFactoryEEENS_9allocatorIS4_EEEC1ES5_S7_
FN:2320,_ZNSt3__117__compressed_pairIPPN5Catch14IGeneratorInfoERNS_9allocatorIS3_EEEC1ES4_S7_
FN:2320,_ZNSt3__117__compressed_pairIPN5Catch3PtrINS1_18IStreamingReporterEEERNS_9allocatorIS4_EEEC2ES5_S8_
FN:2320,_ZNSt3__117__compressed_pairIPNS_11__tree_nodeINS_12basic_stringIcNS_11char_traitsIcEENS_9allocatorIcEEEEPvEENS_22__tree_node_destructorINS5_IS9_EEEEEC1ESA_SD_
FN:2320,_ZNSt3__117__compressed_pairImNS_19__map_value_compareINS_12basic_stringIcNS_11char_traitsIcEENS_9allocatorIcEEEENS_12__value_typeIS7_PN5Catch14IGeneratorInfoEEENS_4lessIS7_EELb1EEEEC2EmSF_
FN:2320,_ZNSt3__117__compressed_pairIPN5Catch3PtrINS1_8TestSpec7PatternEEERNS_9allocatorIS5_EEEC2ES6_S9_
FN:2320,_ZNSt3__117__compressed_pairIPNS_11__tree_nodeINS_12__value_typeINS_12basic_stringIcNS_11char_traitsIcEENS_9allocatorIcEEEEPN5Catch18IGeneratorsForTestEEEPvEENS_22__tree_node_destructorINS6_ISE_EEEEEC1ESF_SI_
FN:2320,_ZNSt3__117__compressed_pairIPN5Catch3PtrINS1_22CumulativeReporterBase4NodeINS1_12TestRunStatsENS4_INS1_14TestGroupStatsENS4_INS1_13TestCaseStatsENS3_11SectionNodeEEEEEEEEERNS_9allocatorISC_EEEC1ESD_SG_
FN:2320,_ZNSt3__117__compressed_pairIPPKN5Catch20IExceptionTranslatorERNS_9allocatorIS4_EEEC1ES5_S8_
FN:2320,_ZNSt3__117__compressed_pairIPN5Catch11MessageInfoENS_9allocatorIS2_EEEC1ES3_S5_
FN:2320,_ZNSt3__117__compressed_pairIPN5Catch3PtrINS1_16IReporterFactoryEEERNS_9allocatorIS4_EEEC2ES5_S8_
FN:2320,_ZNSt3__117__compressed_pairImNS_4lessIN5Catch8TestCaseEEEEC1EmS4_
FN:2320,_ZNSt3__117__compressed_pairIPN5Catch8TestSpec6FilterERNS_9allocatorIS3_EEEC2ES4_S7_
FN:2320,_ZNSt3__117__compressed_pairIPPN5Catch16TestCaseTracking8ITrackerERNS_9allocatorIS4_EEEC2ES5_S8_
FN:2320,_ZNSt3__117__compressed_pairIPN5Catch15ConsoleReporter13SummaryColumnERNS_9allocatorIS3_EEEC2ES4_S7_
FN:2320,_ZNSt3__117__compressed_pairIPN5Catch8TestCaseERNS_9allocatorIS2_EEEC1ES3_S6_
FN:2320,_ZNSt3__117__compressed_pairImNS_4lessINS_12basic_stringIcNS_11char_traitsIcEENS_9allocatorIcEEEEEEEC2EmS8_
FN:2320,_ZNSt3__117__compressed_pairIPN5Catch3PtrINS1_16TestCaseTracking8ITrackerEEERNS_9allocatorIS5_EEEC2ES6_S9_
FN:2320,_ZNSt3__117__compressed_pairIPNS_11__tree_nodeINS_12basic_stringIcNS_11char_traitsIcEENS_9allocatorIcEEEEPvEENS_22__tree_node_destructorINS5_IS9_EEEEEC2ESA_SD_
FN:2320,_ZNSt3__117__compressed_pairImNS_19__map_value_compareINS_12basic_stringIcNS_11char_traitsIcEENS_9allocatorIcEEEENS_12__value_typeIS7_PN5Catch18IGeneratorsForTestEEENS_4lessIS7_EELb1EEEEC2EmSF_
FN:2320,_ZNSt3__117__compressed_pairIPNS_12basic_stringIcNS_11char_traitsIcEENS_9allocatorIcEEEERNS4_IS6_EEEC1ES7_S9_
FN:2320,_ZNSt3__117__compressed_pairIP7__sFILEPFiS2_EEC1ES2_S4_
FN:2320,_ZNSt3__117__compressed_pairIPN5Catch5Clara11CommandLineINS1_10ConfigDataEE3ArgERNS_9allocatorIS6_EEEC2ES7_SA_
FN:2320,_ZNSt3__117__compressed_pairIPN5Catch11SectionInfoERNS_9allocatorIS2_EEEC2ES3_S6_
FN:2320,_ZNSt3__117__compressed_pairImNS_19__map_value_compareINS_12basic_stringIcNS_11char_traitsIcEENS_9allocatorIcEEEENS_12__value_typeIS7_N5Catch8TagAliasEEENS_4lessIS7_EELb1EEEEC2EmSE_
FN:2320,_ZNSt3__117__compressed_pairIPPN5Catch14IGeneratorInfoERNS_9allocatorIS3_EEEC2ES4_S7_
FN:2320,_ZNSt3__117__compressed_pairIPN5Catch8TestSpec6FilterENS_9allocatorIS3_EEEC2ES4_S6_
FN:2320,_ZNSt3__117__compressed_pairIPN5Catch8TestCaseENS_9allocatorIS2_EEEC2ES3_S5_
FN:2320,_ZNSt3__117__compressed_pairIPN5Catch3PtrINS1_22CumulativeReporterBase11SectionNodeEEERNS_9allocatorIS5_EEEC1ES6_S9_
FN:2320,_ZNSt3__117__compressed_pairIPNS_11__tree_nodeIN5Catch8TestCaseEPvEENS_22__tree_node_destructorINS_9allocatorIS5_EEEEEC2ES6_SA_
FN:2320,_ZNSt3__117__compressed_pairIPN5Catch11MessageInfoERNS_9allocatorIS2_EEEC1ES3_S6_
FN:2320,_ZNSt3__117__compressed_pairIPN5Catch3PtrINS1_16TestCaseTracking8ITrackerEEERNS_9allocatorIS5_EEEC1ES6_S9_
FN:2320,_ZNSt3__117__compressed_pairIPNS_11__tree_nodeIN5Catch8TestCaseEPvEENS_22__tree_node_destructorINS_9allocatorIS5_EEEEEC1ES6_SA_
FN:2320,_ZNSt3__117__compressed_pairImNS_19__map_value_compareINS_12basic_stringIcNS_11char_traitsIcEENS_9allocatorIcEEEENS_12__value_typeIS7_N5Catch8TagAliasEEENS_4lessIS7_EELb1EEEEC1EmSE_
FN:2320,_ZNSt3__117__compressed_pairIPN5Catch5Clara11CommandLineINS1_10ConfigDataEE3ArgERNS_9allocatorIS6_EEEC1ES7_SA_
FN:2320,_ZNSt3__117__compressed_pairIPN5Catch14AssertionStatsERNS_9allocatorIS2_EEEC2ES3_S6_
FN:2320,_ZNSt3__117__compressed_pairImNS_19__map_value_compareINS_12basic_stringIcNS_11char_traitsIcEENS_9allocatorIcEEEENS_12__value_typeIS7_PN5Catch18IGeneratorsForTestEEENS_4lessIS7_EELb1EEEEC1EmSF_
FN:2320,_ZNSt3__117__compressed_pairIPN5Catch5Clara6Parser5TokenERNS_9allocatorIS4_EEEC2ES5_S8_
FN:2320,_ZNSt3__117__compressed_pairIPN5Catch8TestCaseENS_9allocatorIS2_EEEC1ES3_S5_
FN:2320,_ZNSt3__117__compressed_pairIPN5Catch3PtrINS1_16IReporterFactoryEEERNS_9allocatorIS4_EEEC1ES5_S8_
FN:2320,_ZNSt3__117__compressed_pairIPN5Catch3PtrINS1_18IStreamingReporterEEERNS_9allocatorIS4_EEEC1ES5_S8_
FN:2336,_ZNSt3__117__compressed_pairIPNS_11__tree_nodeINS_12__value_typeINS_12basic_stringIcNS_11char_traitsIcEENS_9allocatorIcEEEEN5Catch3PtrINS9_16IReporterFactoryEEEEEPvEENS_22__tree_node_destructorINS6_ISF_EEEEE5firstEv
FN:2336,_ZNSt3__117__compressed_pairIPN5Catch5Clara6Parser5TokenERNS_9allocatorIS4_EEE5firstEv
FN:2336,_ZNSt3__117__compressed_pairIPN5Catch11SectionInfoENS_9allocatorIS2_EEE5firstEv
FN:2336,_ZNSt3__117__compressed_pairIPN5Catch3PtrINS1_8TestSpec7PatternEEERNS_9allocatorIS5_EEE5firstEv
FN:2336,_ZNSt3__117__compressed_pairIPN5Catch8TestSpec6FilterENS_9allocatorIS3_EEE5firstEv
FN:2336,_ZNSt3__117__compressed_pairImNS_19__map_value_compareINS_12basic_stringIcNS_11char_traitsIcEENS_9allocatorIcEEEENS_12__value_typeIS7_PN5Catch18IGeneratorsForTestEEENS_4lessIS7_EELb1EEEE5firstEv
FN:2336,_ZNSt3__117__compressed_pairINS_15__tree_end_nodeIPNS_16__tree_node_baseIPvEEEENS_9allocatorINS_11__tree_nodeIN5Catch8TestCaseES3_EEEEE5firstEv
FN:2336,_ZNSt3__117__compressed_pairIPNS_11__tree_nodeIN5Catch8TestCaseEPvEENS_22__tree_node_destructorINS_9allocatorIS5_EEEEE5firstEv
FN:2336,_ZNSt3__117__compressed_pairIPN5Catch3PtrINS1_22CumulativeReporterBase11SectionNodeEEENS_9allocatorIS5_EEE5firstEv
FN:2336,_ZNSt3__117__compressed_pairIPPN5Catch16TestCaseTracking8ITrackerERNS_9allocatorIS4_EEE5firstEv
FN:2336,_ZNSt3__117__compressed_pairImNS_4lessIN5Catch8TestCaseEEEE5firstEv
FN:2336,_ZNSt3__117__compressed_pairIPN5Catch3PtrINS1_18IStreamingReporterEEENS_9allocatorIS4_EEE5firstEv
FN:2336,_ZNSt3__117__compressed_pairIPN5Catch8TestCaseENS_9allocatorIS2_EEE5firstEv
FN:2336,_ZNSt3__117__compressed_pairIPN5Catch15ConsoleReporter13SummaryColumnENS_9allocatorIS3_EEE5firstEv
FN:2336,_ZNSt3__117__compressed_pairIPN5Catch14SectionEndInfoERNS_9allocatorIS2_EEE5firstEv
FN:2336,_ZNSt3__117__compressed_pairIPN5Catch3PtrINS1_22CumulativeReporterBase4NodeINS1_12TestRunStatsENS4_INS1_14TestGroupStatsENS4_INS1_13TestCaseStatsENS3_11SectionNodeEEEEEEEEERNS_9allocatorISC_EEE5firstEv
FN:2336,_ZNSt3__117__compressed_pairImNS_19__map_value_compareINS_12basic_stringIcNS_11char_traitsIcEENS_9allocatorIcEEEENS_12__value_typeIS7_N5Catch7TagInfoEEENS_4lessIS7_EELb1EEEE5firstEv
FN:2336,_ZNSt3__117__compressed_pairINS_15__tree_end_nodeIPNS_16__tree_node_baseIPvEEEENS_9allocatorINS_11__tree_nodeINS_12__value_typeIiN5Catch5Clara11CommandLineINSA_10ConfigDataEE3ArgEEES3_EEEEE5firstEv
FN:2336,_ZNSt3__117__compressed_pairIPN5Catch3PtrINS1_22CumulativeReporterBase4NodeINS1_13TestCaseStatsENS3_11SectionNodeEEEEERNS_9allocatorIS8_EEE5firstEv
FN:2336,_ZNSt3__117__compressed_pairINS_15__tree_end_nodeIPNS_16__tree_node_baseIPvEEEENS_9allocatorINS_11__tree_nodeINS_12basic_stringIcNS_11char_traitsIcEENS7_IcEEEES3_EEEEE5firstEv
FN:2336,_ZNSt3__117__compressed_pairIPN5Catch5Clara6Parser5TokenENS_9allocatorIS4_EEE5firstEv
FN:2336,_ZNSt3__117__compressed_pairIPN5Catch3PtrINS1_16IReporterFactoryEEERNS_9allocatorIS4_EEE5firstEv
FN:2336,_ZNSt3__117__compressed_pairIPNS_11__tree_nodeINS_12__value_typeINS_12basic_stringIcNS_11char_traitsIcEENS_9allocatorIcEEEEPN5Catch18IGeneratorsForTestEEEPvEENS_22__tree_node_destructorINS6_ISE_EEEEE5firstEv
FN:2336,_ZNSt3__117__compressed_pairIPN5Catch14AssertionStatsENS_9allocatorIS2_EEE5firstEv
FN:2336,_ZNSt3__117__compressed_pairINS_15__tree_end_nodeIPNS_16__tree_node_baseIPvEEEENS_9allocatorINS_11__tree_nodeINS_12__value_typeINS_12basic_stringIcNS_11char_traitsIcEENS7_IcEEEEN5Catch3PtrINSF_16IReporterFactoryEEEEES3_EEEEE5firstEv
FN:2336,_ZNSt3__117__compressed_pairIPN5Catch3PtrINS1_22CumulativeReporterBase11SectionNodeEEERNS_9allocatorIS5_EEE5firstEv
FN:2336,_ZNSt3__117__compressed_pairIPNS_12basic_stringIcNS_11char_traitsIcEENS_9allocatorIcEEEENS4_IS6_EEE5firstEv
FN:2336,_ZNSt3__117__compressed_pairIPmNS_9allocatorImEEE5firstEv
FN:2336,_ZNSt3__117__compressed_pairIPN5Catch3PtrINS1_16IReporterFactoryEEENS_9allocatorIS4_EEE5firstEv
FN:2336,_ZNSt3__117__compressed_pairIPN5Catch11SectionInfoERNS_9allocatorIS2_EEE5firstEv
FN:2336,_ZNSt3__117__compressed_pairINS_12basic_stringIcNS_11char_traitsIcEENS_9allocatorIcEEE5__repES5_E5firstEv
FN:2336,_ZNSt3__117__compressed_pairIPN5Catch3PtrINS1_22CumulativeReporterBase4NodeINS1_14TestGroupStatsENS4_INS1_13TestCaseStatsENS3_11SectionNodeEEEEEEENS_9allocatorISA_EEE5firstEv
FN:2336,_ZNSt3__117__compressed_pairINS_15__tree_end_nodeIPNS_16__tree_node_baseIPvEEEENS_9allocatorINS_11__tree_nodeINS_12__value_typeINS_12basic_stringIcNS_11char_traitsIcEENS7_IcEEEEN5Catch7TagInfoEEES3_EEEEE5firstEv
FN:2336,_ZNSt3__117__compressed_pairINS_15__tree_end_nodeIPNS_16__tree_node_baseIPvEEEENS_9allocatorINS_11__tree_nodeINS_12__value_typeINS_12basic_stringIcNS_11char_traitsIcEENS7_IcEEEEPN5Catch14IGeneratorInfoEEES3_EEEEE5firstEv
FN:2336,_ZNSt3__117__compressed_pairIPN5Catch3PtrINS1_18IStreamingReporterEEERNS_9allocatorIS4_EEE5firstEv
FN:2336,_ZNSt3__117__compressed_pairIPPN5Catch14IGeneratorInfoERNS_9allocatorIS3_EEE5firstEv
FN:2336,_ZNSt3__117__compressed_pairIPN5Catch14AssertionStatsERNS_9allocatorIS2_EEE5firstEv
FN:2336,_ZNSt3__117__compressed_pairIPN5Catch8TestSpec6FilterERNS_9allocatorIS3_EEE5firstEv
FN:2336,_ZNSt3__117__compressed_pairIPN5Catch3PtrINS1_8TestSpec7PatternEEENS_9allocatorIS5_EEE5firstEv
FN:2336,_ZNSt3__117__compressed_pairIPN5Catch3PtrINS1_22CumulativeReporterBase4NodeINS1_14TestGroupStatsENS4_INS1_13TestCaseStatsENS3_11SectionNodeEEEEEEERNS_9allocatorISA_EEE5firstEv
FN:2336,_ZNSt3__117__compressed_pairIPPKN5Catch20IExceptionTranslatorERNS_9allocatorIS4_EEE5firstEv
FN:2336,_ZNSt3__117__compressed_pairIPN5Catch3PtrINS1_22CumulativeReporterBase4NodeINS1_13TestCaseStatsENS3_11SectionNodeEEEEENS_9allocatorIS8_EEE5firstEv
FN:2336,_ZNSt3__117__compressed_pairImNS_19__map_value_compareINS_12basic_stringIcNS_11char_traitsIcEENS_9allocatorIcEEEENS_12__value_typeIS7_N5Catch3PtrINS9_16IReporterFactoryEEEEENS_4lessIS7_EELb1EEEE5firstEv
FN:2336,_ZNSt3__117__compressed_pairIPN5Catch3PtrINS1_22CumulativeReporterBase4NodeINS1_12TestRunStatsENS4_INS1_14TestGroupStatsENS4_INS1_13TestCaseStatsENS3_11SectionNodeEEEEEEEEENS_9allocatorISC_EEE5firstEv
FN:2336,_ZNSt3__117__compressed_pairIPN5Catch3PtrINS1_16TestCaseTracking8ITrackerEEENS_9allocatorIS5_EEE5firstEv
FN:2336,_ZNSt3__117__compressed_pairIPN5Catch5Clara11CommandLineINS1_10ConfigDataEE3ArgENS_9allocatorIS6_EEE5firstEv
FN:2336,_ZNSt3__117__compressed_pairIPNS_12basic_stringIcNS_11char_traitsIcEENS_9allocatorIcEEEERNS4_IS6_EEE5firstEv
FN:2336,_ZNSt3__117__compressed_pairIPN5Catch15ConsoleReporter13SummaryColumnERNS_9allocatorIS3_EEE5firstEv
FN:2336,_ZNSt3__117__compressed_pairIPNS_11__tree_nodeINS_12__value_typeINS_12basic_stringIcNS_11char_traitsIcEENS_9allocatorIcEEEEN5Catch7TagInfoEEEPvEENS_22__tree_node_destructorINS6_ISD_EEEEE5firstEv
FN:2336,_ZNSt3__117__compressed_pairImNS_19__map_value_compareINS_12basic_stringIcNS_11char_traitsIcEENS_9allocatorIcEEEENS_12__value_typeIS7_N5Catch8TagAliasEEENS_4lessIS7_EELb1EEEE5firstEv
FN:2336,_ZNSt3__117__compressed_pairIP7__sFILEPFiS2_EE5firstEv
FN:2336,_ZNSt3__117__compressed_pairIPN5Catch8TestCaseERNS_9allocatorIS2_EEE5firstEv
FN:2336,_ZNSt3__117__compressed_pairIPPKN5Catch20IExceptionTranslatorENS_9allocatorIS4_EEE5firstEv
FN:2336,_ZNSt3__117__compressed_pairIPPN5Catch14IGeneratorInfoENS_9allocatorIS3_EEE5firstEv
FN:2336,_ZNSt3__117__compressed_pairIPN5Catch3PtrINS1_16TestCaseTracking8ITrackerEEERNS_9allocatorIS5_EEE5firstEv
FN:2336,_ZNSt3__117__compressed_pairIPNS_11__tree_nodeINS_12__value_typeINS_12basic_stringIcNS_11char_traitsIcEENS_9allocatorIcEEEEN5Catch8TagAliasEEEPvEENS_22__tree_node_destructorINS6_ISD_EEEEE5firstEv
FN:2336,_ZNSt3__117__compressed_pairIPN5Catch5Clara11CommandLineINS1_10ConfigDataEE3ArgERNS_9allocatorIS6_EEE5firstEv
FN:2336,_ZNSt3__117__compressed_pairINS_15__tree_end_nodeIPNS_16__tree_node_baseIPvEEEENS_9allocatorINS_11__tree_nodeINS_12__value_typeINS_12basic_stringIcNS_11char_traitsIcEENS7_IcEEEEPN5Catch18IGeneratorsForTestEEES3_EEEEE5firstEv
FN:2336,_ZNSt3__117__compressed_pairIPN5Catch11MessageInfoENS_9allocatorIS2_EEE5firstEv
FN:2336,_ZNSt3__117__compressed_pairImNS_19__map_value_compareINS_12basic_stringIcNS_11char_traitsIcEENS_9allocatorIcEEEENS_12__value_typeIS7_PN5Catch14IGeneratorInfoEEENS_4lessIS7_EELb1EEEE5firstEv
FN:2336,_ZNSt3__117__compressed_pairINS_15__tree_end_nodeIPNS_16__tree_node_baseIPvEEEENS_9allocatorINS_11__tree_nodeINS_12__value_typeINS_12basic_stringIcNS_11char_traitsIcEENS7_IcEEEEN5Catch8TagAliasEEES3_EEEEE5firstEv
FN:2336,_ZNSt3__117__compressed_pairIPN5Catch11MessageInfoERNS_9allocatorIS2_EEE5firstEv
FN:2336,_ZNSt3__117__compressed_pairIPNS_11__tree_nodeINS_12basic_stringIcNS_11char_traitsIcEENS_9allocatorIcEEEEPvEENS_22__tree_node_destructorINS5_IS9_EEEEE5firstEv
FN:2336,_ZNSt3__117__compressed_pairIPPN5Catch16TestCaseTracking8ITrackerENS_9allocatorIS4_EEE5firstEv
FN:2336,_ZNSt3__117__compressed_pairIPN5Catch14SectionEndInfoENS_9allocatorIS2_EEE5firstEv
FN:2336,_ZNSt3__117__compressed_pairImNS_4lessINS_12basic_stringIcNS_11char_traitsIcEENS_9allocatorIcEEEEEEE5firstEv
FN:2336,_ZNSt3__117__compressed_pairIPNS_11__tree_nodeINS_12__value_typeINS_12basic_stringIcNS_11char_traitsIcEENS_9allocatorIcEEEEPN5Catch14IGeneratorInfoEEEPvEENS_22__tree_node_destructorINS6_ISE_EEEEE5firstEv
FN:2336,_ZNSt3__117__compressed_pairIPmRNS_9allocatorImEEE5firstEv
FN:2337,_ZNKSt3__117__compressed_pairIPN5Catch3PtrINS1_16TestCaseTracking8ITrackerEEERNS_9allocatorIS5_EEE5firstEv
FN:2337,_ZNKSt3__117__compressed_pairIPNS_11__tree_nodeINS_12__value_typeINS_12basic_stringIcNS_11char_traitsIcEENS_9allocatorIcEEEEN5Catch3PtrINS9_16IReporterFactoryEEEEEPvEENS_22__tree_node_destructorINS6_ISF_EEEEE5firstEv
FN:2337,_ZNKSt3__117__compressed_pairIPN5Catch11SectionInfoERNS_9allocatorIS2_EEE5firstEv
FN:2337,_ZNKSt3__117__compressed_pairIPmNS_9allocatorImEEE5firstEv
FN:2337,_ZNKSt3__117__compressed_pairIPN5Catch14SectionEndInfoERNS_9allocatorIS2_EEE5firstEv
FN:2337,_ZNKSt3__117__compressed_pairINS_15__tree_end_nodeIPNS_16__tree_node_baseIPvEEEENS_9allocatorINS_11__tree_nodeINS_12__value_typeINS_12basic_stringIcNS_11char_traitsIcEENS7_IcEEEEN5Catch7TagInfoEEES3_EEEEE5firstEv
FN:2337,_ZNKSt3__117__compressed_pairIPN5Catch8TestSpec6FilterERNS_9allocatorIS3_EEE5firstEv
FN:2337,_ZNKSt3__117__compressed_pairIPPN5Catch16TestCaseTracking8ITrackerENS_9allocatorIS4_EEE5firstEv
FN:2337,_ZNKSt3__117__compressed_pairIPN5Catch5Clara11CommandLineINS1_10ConfigDataEE3ArgENS_9allocatorIS6_EEE5firstEv
FN:2337,_ZNKSt3__117__compressed_pairIPN5Catch3PtrINS1_22CumulativeReporterBase4NodeINS1_14TestGroupStatsENS4_INS1_13TestCaseStatsENS3_11SectionNodeEEEEEEENS_9allocatorISA_EEE5firstEv
FN:2337,_ZNKSt3__117__compressed_pairIPNS_12basic_stringIcNS_11char_traitsIcEENS_9allocatorIcEEEENS4_IS6_EEE5firstEv
FN:2337,_ZNKSt3__117__compressed_pairIPN5Catch3PtrINS1_18IStreamingReporterEEERNS_9allocatorIS4_EEE5firstEv
FN:2337,_ZNKSt3__117__compressed_pairIPN5Catch11MessageInfoERNS_9allocatorIS2_EEE5firstEv
FN:2337,_ZNKSt3__117__compressed_pairIPPKN5Catch20IExceptionTranslatorERNS_9allocatorIS4_EEE5firstEv
FN:2337,_ZNKSt3__117__compressed_pairINS_12basic_stringIwNS_11char_traitsIwEENS_9allocatorIwEEE5__repES5_E5firstEv
FN:2337,_ZNKSt3__117__compressed_pairIPN5Catch8TestCaseENS_9allocatorIS2_EEE5firstEv
FN:2337,_ZNKSt3__117__compressed_pairIPN5Catch5Clara6Parser5TokenERNS_9allocatorIS4_EEE5firstEv
FN:2337,_ZNKSt3__117__compressed_pairIPPN5Catch14IGeneratorInfoERNS_9allocatorIS3_EEE5firstEv
FN:2337,_ZNKSt3__117__compressed_pairIPN5Catch3PtrINS1_22CumulativeReporterBase4NodeINS1_12TestRunStatsENS4_INS1_14TestGroupStatsENS4_INS1_13TestCaseStatsENS3_11SectionNodeEEEEEEEEERNS_9allocatorISC_EEE5firstEv
FN:2337,_ZNKSt3__117__compressed_pairIPN5Catch8TestCaseERNS_9allocatorIS2_EEE5firstEv
FN:2337,_ZNKSt3__117__compressed_pairIPN5Catch3PtrINS1_22CumulativeReporterBase11SectionNodeEEENS_9allocatorIS5_EEE5firstEv
FN:2337,_ZNKSt3__117__compressed_pairINS_15__tree_end_nodeIPNS_16__tree_node_baseIPvEEEENS_9allocatorINS_11__tree_nodeIN5Catch8TestCaseES3_EEEEE5firstEv
FN:2337,_ZNKSt3__117__compressed_pairIPNS_11__tree_nodeINS_12__value_typeINS_12basic_stringIcNS_11char_traitsIcEENS_9allocatorIcEEEEPN5Catch18IGeneratorsForTestEEEPvEENS_22__tree_node_destructorINS6_ISE_EEEEE5firstEv
FN:2337,_ZNKSt3__117__compressed_pairIPN5Catch15ConsoleReporter13SummaryColumnENS_9allocatorIS3_EEE5firstEv
FN:2337,_ZNKSt3__117__compressed_pairINS_15__tree_end_nodeIPNS_16__tree_node_baseIPvEEEENS_9allocatorINS_11__tree_nodeINS_12__value_typeIiN5Catch5Clara11CommandLineINSA_10ConfigDataEE3ArgEEES3_EEEEE5firstEv
FN:2337,_ZNKSt3__117__compressed_pairIPN5Catch11MessageInfoENS_9allocatorIS2_EEE5firstEv
FN:2337,_ZNKSt3__117__compressed_pairIPNS_11__tree_nodeINS_12__value_typeINS_12basic_stringIcNS_11char_traitsIcEENS_9allocatorIcEEEEPN5Catch14IGeneratorInfoEEEPvEENS_22__tree_node_destructorINS6_ISE_EEEEE5firstEv
FN:2337,_ZNKSt3__117__compressed_pairIPNS_12basic_stringIcNS_11char_traitsIcEENS_9allocatorIcEEEERNS4_IS6_EEE5firstEv
FN:2337,_ZNKSt3__117__compressed_pairIPN5Catch3PtrINS1_22CumulativeReporterBase11SectionNodeEEERNS_9allocatorIS5_EEE5firstEv
FN:2337,_ZNKSt3__117__compressed_pairIPN5Catch3PtrINS1_22CumulativeReporterBase4NodeINS1_14TestGroupStatsENS4_INS1_13TestCaseStatsENS3_11SectionNodeEEEEEEERNS_9allocatorISA_EEE5firstEv
FN:2337,_ZNKSt3__117__compressed_pairIPN5Catch5Clara6Parser5TokenENS_9allocatorIS4_EEE5firstEv
FN:2337,_ZNKSt3__117__compressed_pairIPNS_6vectorIN5Catch3PtrINS2_22CumulativeReporterBase11SectionNodeEEENS_9allocatorIS6_EEEENS7_IS9_EEE5firstEv
FN:2337,_ZNKSt3__117__compressed_pairIPN5Catch3PtrINS1_8TestSpec7PatternEEERNS_9allocatorIS5_EEE5firstEv
FN:2337,_ZNKSt3__117__compressed_pairImNS_19__map_value_compareIiNS_12__value_typeIiN5Catch5Clara11CommandLineINS3_10ConfigDataEE3ArgEEENS_4lessIiEELb1EEEE5firstEv
FN:2337,_ZNKSt3__117__compressed_pairIPN5Catch3PtrINS1_16TestCaseTracking8ITrackerEEENS_9allocatorIS5_EEE5firstEv
FN:2337,_ZNKSt3__117__compressed_pairIPN5Catch3PtrINS1_18IStreamingReporterEEENS_9allocatorIS4_EEE5firstEv
FN:2337,_ZNKSt3__117__compressed_pairIPN5Catch3PtrINS1_22CumulativeReporterBase4NodeINS1_12TestRunStatsENS4_INS1_14TestGroupStatsENS4_INS1_13TestCaseStatsENS3_11SectionNodeEEEEEEEEENS_9allocatorISC_EEE5firstEv
FN:2337,_ZNKSt3__117__compressed_pairINS_15__tree_end_nodeIPNS_16__tree_node_baseIPvEEEENS_9allocatorINS_11__tree_nodeINS_12__value_typeINS_12basic_stringIcNS_11char_traitsIcEENS7_IcEEEEN5Catch3PtrINSF_16IReporterFactoryEEEEES3_EEEEE5firstEv
FN:2337,_ZNKSt3__117__compressed_pairIPN5Catch5Clara11CommandLineINS1_10ConfigDataEE3ArgERNS_9allocatorIS6_EEE5firstEv
FN:2337,_ZNKSt3__117__compressed_pairIPPN5Catch14IGeneratorInfoENS_9allocatorIS3_EEE5firstEv
FN:2337,_ZNKSt3__117__compressed_pairIPN5Catch3PtrINS1_22CumulativeReporterBase4NodeINS1_13TestCaseStatsENS3_11SectionNodeEEEEERNS_9allocatorIS8_EEE5firstEv
FN:2337,_ZNKSt3__117__compressed_pairINS_15__tree_end_nodeIPNS_16__tree_node_baseIPvEEEENS_9allocatorINS_11__tree_nodeINS_12__value_typeINS_12basic_stringIcNS_11char_traitsIcEENS7_IcEEEEN5Catch8TagAliasEEES3_EEEEE5firstEv
FN:2337,_ZNKSt3__117__compressed_pairImNS_19__map_value_compareINS_12basic_stringIcNS_11char_traitsIcEENS_9allocatorIcEEEENS_12__value_typeIS7_N5Catch7TagInfoEEENS_4lessIS7_EELb1EEEE5firstEv
FN:2337,_ZNKSt3__117__compressed_pairIPN5Catch15ConsoleReporter13SummaryColumnERNS_9allocatorIS3_EEE5firstEv
FN:2337,_ZNKSt3__117__compressed_pairIPNS_11__tree_nodeINS_12__value_typeINS_12basic_stringIcNS_11char_traitsIcEENS_9allocatorIcEEEEN5Catch8TagAliasEEEPvEENS_22__tree_node_destructorINS6_ISD_EEEEE5firstEv
FN:2337,_ZNKSt3__117__compressed_pairIPmRNS_9allocatorImEEE5firstEv
FN:2337,_ZNKSt3__117__compressed_pairIPPKN5Catch20IExceptionTranslatorENS_9allocatorIS4_EEE5firstEv
FN:2337,_ZNKSt3__117__compressed_pairINS_15__tree_end_nodeIPNS_16__tree_node_baseIPvEEEENS_9allocatorINS_11__tree_nodeINS_12basic_stringIcNS_11char_traitsIcEENS7_IcEEEES3_EEEEE5firstEv
FN:2337,_ZNKSt3__117__compressed_pairIPNS_11__tree_nodeINS_12basic_stringIcNS_11char_traitsIcEENS_9allocatorIcEEEEPvEENS_22__tree_node_destructorINS5_IS9_EEEEE5firstEv
FN:2337,_ZNKSt3__117__compressed_pairINS_15__tree_end_nodeIPNS_16__tree_node_baseIPvEEEENS_9allocatorINS_11__tree_nodeINS_12__value_typeINS_12basic_stringIcNS_11char_traitsIcEENS7_IcEEEEPN5Catch14IGeneratorInfoEEES3_EEEEE5firstEv
FN:2337,_ZNKSt3__117__compressed_pairIPN5Catch11SectionInfoENS_9allocatorIS2_EEE5firstEv
FN:2337,_ZNKSt3__117__compressed_pairIPN5Catch3PtrINS1_22CumulativeReporterBase4NodeINS1_13TestCaseStatsENS3_11SectionNodeEEEEENS_9allocatorIS8_EEE5firstEv
FN:2337,_ZNKSt3__117__compressed_pairINS_12basic_stringIcNS_11char_traitsIcEENS_9allocatorIcEEE5__repES5_E5firstEv
FN:2337,_ZNKSt3__117__compressed_pairImNS_4lessINS_12basic_stringIcNS_11char_traitsIcEENS_9allocatorIcEEEEEEE5firstEv
FN:2337,_ZNKSt3__117__compressed_pairIPN5Catch14SectionEndInfoENS_9allocatorIS2_EEE5firstEv
FN:2337,_ZNKSt3__117__compressed_pairIPNS_11__tree_nodeINS_12__value_typeINS_12basic_stringIcNS_11char_traitsIcEENS_9allocatorIcEEEEN5Catch7TagInfoEEEPvEENS_22__tree_node_destructorINS6_ISD_EEEEE5firstEv
FN:2337,_ZNKSt3__117__compressed_pairIPN5Catch3PtrINS1_16IReporterFactoryEEENS_9allocatorIS4_EEE5firstEv
FN:2337,_ZNKSt3__117__compressed_pairIPPN5Catch16TestCaseTracking8ITrackerERNS_9allocatorIS4_EEE5firstEv
FN:2337,_ZNKSt3__117__compressed_pairImNS_19__map_value_compareINS_12basic_stringIcNS_11char_traitsIcEENS_9allocatorIcEEEENS_12__value_typeIS7_N5Catch3PtrINS9_16IReporterFactoryEEEEENS_4lessIS7_EELb1EEEE5firstEv
FN:2337,_ZNKSt3__117__compressed_pairINS_15__tree_end_nodeIPNS_16__tree_node_baseIPvEEEENS_9allocatorINS_11__tree_nodeINS_12__value_typeINS_12basic_stringIcNS_11char_traitsIcEENS7_IcEEEEPN5Catch18IGeneratorsForTestEEES3_EEEEE5firstEv
FN:2337,_ZNKSt3__117__compressed_pairIPPKN5Catch8Matchers4Impl11MatcherBaseINS_12basic_stringIcNS_11char_traitsIcEENS_9allocatorIcEEEESA_EENS8_ISD_EEE5firstEv
FN:2337,_ZNKSt3__117__compressed_pairIPN5Catch8TestSpec6FilterENS_9allocatorIS3_EEE5firstEv
FN:2337,_ZNKSt3__117__compressed_pairIPN5Catch14AssertionStatsERNS_9allocatorIS2_EEE5firstEv
FN:2337,_ZNKSt3__117__compressed_pairIPN5Catch3PtrINS1_16IReporterFactoryEEERNS_9allocatorIS4_EEE5firstEv
FN:2337,_ZNKSt3__117__compressed_pairIPN5Catch14AssertionStatsENS_9allocatorIS2_EEE5firstEv
FN:2337,_ZNKSt3__117__compressed_pairIPNS_11__tree_nodeIN5Catch8TestCaseEPvEENS_22__tree_node_destructorINS_9allocatorIS5_EEEEE5firstEv
FN:2337,_ZNKSt3__117__compressed_pairIPN5Catch3PtrINS1_8TestSpec7PatternEEENS_9allocatorIS5_EEE5firstEv
FN:2339,_ZNSt3__117__compressed_pairIPN5Catch3PtrINS1_16IReporterFactoryEEERNS_9allocatorIS4_EEE6secondEv
FN:2339,_ZNSt3__117__compressed_pairIPPKN5Catch8Matchers4Impl11MatcherBaseINS_12basic_stringIcNS_11char_traitsIcEENS_9allocatorIcEEEESA_EENS8_ISD_EEE6secondEv
FN:2339,_ZNSt3__117__compressed_pairIPN5Catch8TestCaseERNS_9allocatorIS2_EEE6secondEv
FN:2339,_ZNSt3__117__compressed_pairIPN5Catch11SectionInfoERNS_9allocatorIS2_EEE6secondEv
FN:2339,_ZNSt3__117__compressed_pairINS_15__tree_end_nodeIPNS_16__tree_node_baseIPvEEEENS_9allocatorINS_11__tree_nodeINS_12__value_typeINS_12basic_stringIcNS_11char_traitsIcEENS7_IcEEEEPN5Catch18IGeneratorsForTestEEES3_EEEEE6secondEv
FN:2339,_ZNSt3__117__compressed_pairIPN5Catch8TestSpec6FilterERNS_9allocatorIS3_EEE6secondEv
FN:2339,_ZNSt3__117__compressed_pairIPN5Catch8TestCaseENS_9allocatorIS2_EEE6secondEv
FN:2339,_ZNSt3__117__compressed_pairINS_15__tree_end_nodeIPNS_16__tree_node_baseIPvEEEENS_9allocatorINS_11__tree_nodeINS_12__value_typeINS_12basic_stringIcNS_11char_traitsIcEENS7_IcEEEEN5Catch3PtrINSF_16IReporterFactoryEEEEES3_EEEEE6secondEv
FN:2339,_ZNSt3__117__compressed_pairIPNS_11__tree_nodeINS_12__value_typeINS_12basic_stringIcNS_11char_traitsIcEENS_9allocatorIcEEEEPN5Catch14IGeneratorInfoEEEPvEENS_22__tree_node_destructorINS6_ISE_EEEEE6secondEv
FN:2339,_ZNSt3__117__compressed_pairIPN5Catch3PtrINS1_16TestCaseTracking8ITrackerEEENS_9allocatorIS5_EEE6secondEv
FN:2339,_ZNSt3__117__compressed_pairIPPKN5Catch20IExceptionTranslatorENS_9allocatorIS4_EEE6secondEv
FN:2339,_ZNSt3__117__compressed_pairIPN5Catch3PtrINS1_8TestSpec7PatternEEERNS_9allocatorIS5_EEE6secondEv
FN:2339,_ZNSt3__117__compressed_pairIPPN5Catch14IGeneratorInfoERNS_9allocatorIS3_EEE6secondEv
FN:2339,_ZNSt3__117__compressed_pairIPN5Catch14SectionEndInfoERNS_9allocatorIS2_EEE6secondEv
FN:2339,_ZNSt3__117__compressed_pairINS_15__tree_end_nodeIPNS_16__tree_node_baseIPvEEEENS_9allocatorINS_11__tree_nodeIN5Catch8TestCaseES3_EEEEE6secondEv
FN:2339,_ZNSt3__117__compressed_pairIP7__sFILEPFiS2_EE6secondEv
FN:2339,_ZNSt3__117__compressed_pairIPN5Catch5Clara11CommandLineINS1_10ConfigDataEE3ArgENS_9allocatorIS6_EEE6secondEv
FN:2339,_ZNSt3__117__compressed_pairIPN5Catch3PtrINS1_22CumulativeReporterBase11SectionNodeEEERNS_9allocatorIS5_EEE6secondEv
FN:2339,_ZNSt3__117__compressed_pairIPN5Catch3PtrINS1_8TestSpec7PatternEEENS_9allocatorIS5_EEE6secondEv
FN:2339,_ZNSt3__117__compressed_pairIPN5Catch3PtrINS1_22CumulativeReporterBase4NodeINS1_14TestGroupStatsENS4_INS1_13TestCaseStatsENS3_11SectionNodeEEEEEEERNS_9allocatorISA_EEE6secondEv
FN:2339,_ZNSt3__117__compressed_pairIPPKN5Catch20IExceptionTranslatorERNS_9allocatorIS4_EEE6secondEv
FN:2339,_ZNSt3__117__compressed_pairIPNS_11__tree_nodeINS_12__value_typeINS_12basic_stringIcNS_11char_traitsIcEENS_9allocatorIcEEEEN5Catch7TagInfoEEEPvEENS_22__tree_node_destructorINS6_ISD_EEEEE6secondEv
FN:2339,_ZNSt3__117__compressed_pairIPN5Catch3PtrINS1_18IStreamingReporterEEERNS_9allocatorIS4_EEE6secondEv
FN:2339,_ZNSt3__117__compressed_pairIPN5Catch15ConsoleReporter13SummaryColumnENS_9allocatorIS3_EEE6secondEv
FN:2339,_ZNSt3__117__compressed_pairINS_15__tree_end_nodeIPNS_16__tree_node_baseIPvEEEENS_9allocatorINS_11__tree_nodeINS_12__value_typeINS_12basic_stringIcNS_11char_traitsIcEENS7_IcEEEEN5Catch8TagAliasEEES3_EEEEE6secondEv
FN:2339,_ZNSt3__117__compressed_pairIPN5Catch14AssertionStatsERNS_9allocatorIS2_EEE6secondEv
FN:2339,_ZNSt3__117__compressed_pairIPN5Catch3PtrINS1_22CumulativeReporterBase4NodeINS1_13TestCaseStatsENS3_11SectionNodeEEEEERNS_9allocatorIS8_EEE6secondEv
FN:2339,_ZNSt3__117__compressed_pairIPN5Catch15ConsoleReporter13SummaryColumnERNS_9allocatorIS3_EEE6secondEv
FN:2339,_ZNSt3__117__compressed_pairImNS_19__map_value_compareINS_12basic_stringIcNS_11char_traitsIcEENS_9allocatorIcEEEENS_12__value_typeIS7_N5Catch3PtrINS9_16IReporterFactoryEEEEENS_4lessIS7_EELb1EEEE6secondEv
FN:2339,_ZNSt3__117__compressed_pairIPPN5Catch16TestCaseTracking8ITrackerERNS_9allocatorIS4_EEE6secondEv
FN:2339,_ZNSt3__117__compressed_pairINS_15__tree_end_nodeIPNS_16__tree_node_baseIPvEEEENS_9allocatorINS_11__tree_nodeINS_12basic_stringIcNS_11char_traitsIcEENS7_IcEEEES3_EEEEE6secondEv
FN:2339,_ZNSt3__117__compressed_pairIPNS_11__tree_nodeINS_12__value_typeINS_12basic_stringIcNS_11char_traitsIcEENS_9allocatorIcEEEEN5Catch3PtrINS9_16IReporterFactoryEEEEEPvEENS_22__tree_node_destructorINS6_ISF_EEEEE6secondEv
FN:2339,_ZNSt3__117__compressed_pairImNS_4lessIN5Catch8TestCaseEEEE6secondEv
FN:2339,_ZNSt3__117__compressed_pairIPN5Catch3PtrINS1_22CumulativeReporterBase4NodeINS1_12TestRunStatsENS4_INS1_14TestGroupStatsENS4_INS1_13TestCaseStatsENS3_11SectionNodeEEEEEEEEERNS_9allocatorISC_EEE6secondEv
FN:2339,_ZNSt3__117__compressed_pairIPN5Catch8TestSpec6FilterENS_9allocatorIS3_EEE6secondEv
FN:2339,_ZNSt3__117__compressed_pairIPN5Catch3PtrINS1_18IStreamingReporterEEENS_9allocatorIS4_EEE6secondEv
FN:2339,_ZNSt3__117__compressed_pairIPmNS_9allocatorImEEE6secondEv
FN:2339,_ZNSt3__117__compressed_pairIPN5Catch14AssertionStatsENS_9allocatorIS2_EEE6secondEv
FN:2339,_ZNSt3__117__compressed_pairImNS_19__map_value_compareINS_12basic_stringIcNS_11char_traitsIcEENS_9allocatorIcEEEENS_12__value_typeIS7_N5Catch8TagAliasEEENS_4lessIS7_EELb1EEEE6secondEv
FN:2339,_ZNSt3__117__compressed_pairIPN5Catch3PtrINS1_16TestCaseTracking8ITrackerEEERNS_9allocatorIS5_EEE6secondEv
FN:2339,_ZNSt3__117__compressed_pairIPN5Catch3PtrINS1_22CumulativeReporterBase11SectionNodeEEENS_9allocatorIS5_EEE6secondEv
FN:2339,_ZNSt3__117__compressed_pairIPPN5Catch14IGeneratorInfoENS_9allocatorIS3_EEE6secondEv
FN:2339,_ZNSt3__117__compressed_pairIPNS_11__tree_nodeIN5Catch8TestCaseEPvEENS_22__tree_node_destructorINS_9allocatorIS5_EEEEE6secondEv
FN:2339,_ZNSt3__117__compressed_pairINS_12basic_stringIcNS_11char_traitsIcEENS_9allocatorIcEEE5__repES5_E6secondEv
FN:2339,_ZNSt3__117__compressed_pairIPNS_12basic_stringIcNS_11char_traitsIcEENS_9allocatorIcEEEENS4_IS6_EEE6secondEv
FN:2339,_ZNSt3__117__compressed_pairImNS_19__map_value_compareINS_12basic_stringIcNS_11char_traitsIcEENS_9allocatorIcEEEENS_12__value_typeIS7_PN5Catch14IGeneratorInfoEEENS_4lessIS7_EELb1EEEE6secondEv
FN:2339,_ZNSt3__117__compressed_pairIPPN5Catch16TestCaseTracking8ITrackerENS_9allocatorIS4_EEE6secondEv
FN:2339,_ZNSt3__117__compressed_pairINS_15__tree_end_nodeIPNS_16__tree_node_baseIPvEEEENS_9allocatorINS_11__tree_nodeINS_12__value_typeIiN5Catch5Clara11CommandLineINSA_10ConfigDataEE3ArgEEES3_EEEEE6secondEv
FN:2339,_ZNSt3__117__compressed_pairIPNS_11__tree_nodeINS_12__value_typeINS_12basic_stringIcNS_11char_traitsIcEENS_9allocatorIcEEEEPN5Catch18IGeneratorsForTestEEEPvEENS_22__tree_node_destructorINS6_ISE_EEEEE6secondEv
FN:2339,_ZNSt3__117__compressed_pairIPN5Catch11MessageInfoENS_9allocatorIS2_EEE6secondEv
FN:2339,_ZNSt3__117__compressed_pairIPN5Catch3PtrINS1_22CumulativeReporterBase4NodeINS1_13TestCaseStatsENS3_11SectionNodeEEEEENS_9allocatorIS8_EEE6secondEv
FN:2339,_ZNSt3__117__compressed_pairIPNS_11__tree_nodeINS_12__value_typeINS_12basic_stringIcNS_11char_traitsIcEENS_9allocatorIcEEEEN5Catch8TagAliasEEEPvEENS_22__tree_node_destructorINS6_ISD_EEEEE6secondEv
FN:2339,_ZNSt3__117__compressed_pairIPN5Catch3PtrINS1_16IReporterFactoryEEENS_9allocatorIS4_EEE6secondEv
FN:2339,_ZNSt3__117__compressed_pairImNS_19__map_value_compareINS_12basic_stringIcNS_11char_traitsIcEENS_9allocatorIcEEEENS_12__value_typeIS7_PN5Catch18IGeneratorsForTestEEENS_4lessIS7_EELb1EEEE6secondEv
FN:2339,_ZNSt3__117__compressed_pairINS_15__tree_end_nodeIPNS_16__tree_node_baseIPvEEEENS_9allocatorINS_11__tree_nodeINS_12__value_typeINS_12basic_stringIcNS_11char_traitsIcEENS7_IcEEEEPN5Catch14IGeneratorInfoEEES3_EEEEE6secondEv
FN:2339,_ZNSt3__117__compressed_pairIPN5Catch5Clara11CommandLineINS1_10ConfigDataEE3ArgERNS_9allocatorIS6_EEE6secondEv
FN:2339,_ZNSt3__117__compressed_pairIPN5Catch3PtrINS1_22CumulativeReporterBase4NodeINS1_14TestGroupStatsENS4_INS1_13TestCaseStatsENS3_11SectionNodeEEEEEEENS_9allocatorISA_EEE6secondEv
FN:2339,_ZNSt3__117__compressed_pairIPN5Catch14SectionEndInfoENS_9allocatorIS2_EEE6secondEv
FN:2339,_ZNSt3__117__compressed_pairImNS_19__map_value_compareINS_12basic_stringIcNS_11char_traitsIcEENS_9allocatorIcEEEENS_12__value_typeIS7_N5Catch7TagInfoEEENS_4lessIS7_EELb1EEEE6secondEv
FN:2339,_ZNSt3__117__compressed_pairIPN5Catch11MessageInfoERNS_9allocatorIS2_EEE6secondEv
FN:2339,_ZNSt3__117__compressed_pairIPN5Catch5Clara6Parser5TokenENS_9allocatorIS4_EEE6secondEv
FN:2339,_ZNSt3__117__compressed_pairIPN5Catch5Clara6Parser5TokenERNS_9allocatorIS4_EEE6secondEv
FN:2339,_ZNSt3__117__compressed_pairIPmRNS_9allocatorImEEE6secondEv
FN:2339,_ZNSt3__117__compressed_pairIPN5Catch11SectionInfoENS_9allocatorIS2_EEE6secondEv
FN:2339,_ZNSt3__117__compressed_pairINS_15__tree_end_nodeIPNS_16__tree_node_baseIPvEEEENS_9allocatorINS_11__tree_nodeINS_12__value_typeINS_12basic_stringIcNS_11char_traitsIcEENS7_IcEEEEN5Catch7TagInfoEEES3_EEEEE6secondEv
FN:2339,_ZNSt3__117__compressed_pairIPN5Catch3PtrINS1_22CumulativeReporterBase4NodeINS1_12TestRunStatsENS4_INS1_14TestGroupStatsENS4_INS1_13TestCaseStatsENS3_11SectionNodeEEEEEEEEENS_9allocatorISC_EEE6secondEv
FN:2339,_ZNSt3__117__compressed_pairIPNS_11__tree_nodeINS_12basic_stringIcNS_11char_traitsIcEENS_9allocatorIcEEEEPvEENS_22__tree_node_destructorINS5_IS9_EEEEE6secondEv
FN:2339,_ZNSt3__117__compressed_pairIPNS_6vectorIN5Catch3PtrINS2_22CumulativeReporterBase11SectionNodeEEENS_9allocatorIS6_EEEENS7_IS9_EEE6secondEv
FN:2339,_ZNSt3__117__compressed_pairIPNS_12basic_stringIcNS_11char_traitsIcEENS_9allocatorIcEEEERNS4_IS6_EEE6secondEv
FN:2339,_ZNSt3__117__compressed_pairImNS_4lessINS_12basic_stringIcNS_11char_traitsIcEENS_9allocatorIcEEEEEEE6secondEv
FN:2340,_ZNKSt3__117__compressed_pairINS_15__tree_end_nodeIPNS_16__tree_node_baseIPvEEEENS_9allocatorINS_11__tree_nodeINS_12basic_stringIcNS_11char_traitsIcEENS7_IcEEEES3_EEEEE6secondEv
FN:2340,_ZNKSt3__117__compressed_pairIPN5Catch14AssertionStatsENS_9allocatorIS2_EEE6secondEv
FN:2340,_ZNKSt3__117__compressed_pairIPN5Catch3PtrINS1_22CumulativeReporterBase4NodeINS1_12TestRunStatsENS4_INS1_14TestGroupStatsENS4_INS1_13TestCaseStatsENS3_11SectionNodeEEEEEEEEENS_9allocatorISC_EEE6secondEv
FN:2340,_ZNKSt3__117__compressed_pairImNS_19__map_value_compareIiNS_12__value_typeIiN5Catch5Clara11CommandLineINS3_10ConfigDataEE3ArgEEENS_4lessIiEELb1EEEE6secondEv
FN:2340,_ZNKSt3__117__compressed_pairImNS_4lessINS_12basic_stringIcNS_11char_traitsIcEENS_9allocatorIcEEEEEEE6secondEv
FN:2340,_ZNKSt3__117__compressed_pairImNS_19__map_value_compareINS_12basic_stringIcNS_11char_traitsIcEENS_9allocatorIcEEEENS_12__value_typeIS7_N5Catch3PtrINS9_16IReporterFactoryEEEEENS_4lessIS7_EELb1EEEE6secondEv
FN:2340,_ZNKSt3__117__compressed_pairIPN5Catch3PtrINS1_22CumulativeReporterBase11SectionNodeEEENS_9allocatorIS5_EEE6secondEv
FN:2340,_ZNKSt3__117__compressed_pairIPNS_12basic_stringIcNS_11char_traitsIcEENS_9allocatorIcEEEENS4_IS6_EEE6secondEv
FN:2340,_ZNKSt3__117__compressed_pairIPN5Catch3PtrINS1_8TestSpec7PatternEEENS_9allocatorIS5_EEE6secondEv
FN:2340,_ZNKSt3__117__compressed_pairIPN5Catch3PtrINS1_16TestCaseTracking8ITrackerEEENS_9allocatorIS5_EEE6secondEv
FN:2340,_ZNKSt3__117__compressed_pairIPN5Catch5Clara11CommandLineINS1_10ConfigDataEE3ArgENS_9allocatorIS6_EEE6secondEv
FN:2340,_ZNKSt3__117__compressed_pairIPmNS_9allocatorImEEE6secondEv
FN:2340,_ZNKSt3__117__compressed_pairIPN5Catch3PtrINS1_16IReporterFactoryEEENS_9allocatorIS4_EEE6secondEv
FN:2340,_ZNKSt3__117__compressed_pairIPN5Catch11SectionInfoENS_9allocatorIS2_EEE6secondEv
FN:2340,_ZNKSt3__117__compressed_pairIPN5Catch3PtrINS1_18IStreamingReporterEEENS_9allocatorIS4_EEE6secondEv
FN:2340,_ZNKSt3__117__compressed_pairIPN5Catch8TestCaseENS_9allocatorIS2_EEE6secondEv
FN:2340,_ZNKSt3__117__compressed_pairIPN5Catch3PtrINS1_22CumulativeReporterBase4NodeINS1_13TestCaseStatsENS3_11SectionNodeEEEEENS_9allocatorIS8_EEE6secondEv
FN:2340,_ZNKSt3__117__compressed_pairIPN5Catch11MessageInfoENS_9allocatorIS2_EEE6secondEv
FN:2340,_ZNKSt3__117__compressed_pairIPN5Catch5Clara6Parser5TokenENS_9allocatorIS4_EEE6secondEv
FN:2340,_ZNKSt3__117__compressed_pairIPN5Catch14SectionEndInfoENS_9allocatorIS2_EEE6secondEv
FN:2340,_ZNKSt3__117__compressed_pairIPN5Catch15ConsoleReporter13SummaryColumnENS_9allocatorIS3_EEE6secondEv
FN:2340,_ZNKSt3__117__compressed_pairIPPN5Catch14IGeneratorInfoENS_9allocatorIS3_EEE6secondEv
FN:2340,_ZNKSt3__117__compressed_pairImNS_19__map_value_compareINS_12basic_stringIcNS_11char_traitsIcEENS_9allocatorIcEEEENS_12__value_typeIS7_N5Catch8TagAliasEEENS_4lessIS7_EELb1EEEE6secondEv
FN:2340,_ZNKSt3__117__compressed_pairINS_12basic_stringIcNS_11char_traitsIcEENS_9allocatorIcEEE5__repES5_E6secondEv
FN:2340,_ZNKSt3__117__compressed_pairIPN5Catch3PtrINS1_22CumulativeReporterBase4NodeINS1_14TestGroupStatsENS4_INS1_13TestCaseStatsENS3_11SectionNodeEEEEEEENS_9allocatorISA_EEE6secondEv
FN:2340,_ZNKSt3__117__compressed_pairIPPN5Catch16TestCaseTracking8ITrackerENS_9allocatorIS4_EEE6secondEv
FN:2340,_ZNKSt3__117__compressed_pairIPPKN5Catch20IExceptionTranslatorENS_9allocatorIS4_EEE6secondEv
FN:2340,_ZNKSt3__117__compressed_pairIPN5Catch8TestSpec6FilterENS_9allocatorIS3_EEE6secondEv
FN:2342,_ZNSt3__117__compressed_pairImNS_4lessINS_12basic_stringIcNS_11char_traitsIcEENS_9allocatorIcEEEEEEE4swapERS9_
FN:2534,_ZNSt3__110unique_ptrINS_11__tree_nodeIN5Catch8TestCaseEPvEENS_22__tree_node_destructorINS_9allocatorIS5_EEEEEcvNS_4__rvISA_EEEv
FN:2534,_ZNSt3__110unique_ptrINS_11__tree_nodeINS_12__value_typeINS_12basic_stringIcNS_11char_traitsIcEENS_9allocatorIcEEEEN5Catch7TagInfoEEEPvEENS_22__tree_node_destructorINS6_ISD_EEEEEcvNS_4__rvISH_EEEv
FN:2534,_ZNSt3__110unique_ptrINS_11__tree_nodeINS_12__value_typeINS_12basic_stringIcNS_11char_traitsIcEENS_9allocatorIcEEEEPN5Catch18IGeneratorsForTestEEEPvEENS_22__tree_node_destructorINS6_ISE_EEEEEcvNS_4__rvISI_EEEv
FN:2534,_ZNSt3__110unique_ptrINS_11__tree_nodeINS_12basic_stringIcNS_11char_traitsIcEENS_9allocatorIcEEEEPvEENS_22__tree_node_destructorINS5_IS9_EEEEEcvNS_4__rvISD_EEEv
FN:2534,_ZNSt3__110unique_ptrINS_11__tree_nodeINS_12__value_typeINS_12basic_stringIcNS_11char_traitsIcEENS_9allocatorIcEEEEN5Catch3PtrINS9_16IReporterFactoryEEEEEPvEENS_22__tree_node_destructorINS6_ISF_EEEEEcvNS_4__rvISJ_EEEv
FN:2534,_ZNSt3__110unique_ptrINS_11__tree_nodeINS_12__value_typeINS_12basic_stringIcNS_11char_traitsIcEENS_9allocatorIcEEEEPN5Catch14IGeneratorInfoEEEPvEENS_22__tree_node_destructorINS6_ISE_EEEEEcvNS_4__rvISI_EEEv
FN:2534,_ZNSt3__110unique_ptrINS_11__tree_nodeINS_12__value_typeINS_12basic_stringIcNS_11char_traitsIcEENS_9allocatorIcEEEEN5Catch8TagAliasEEEPvEENS_22__tree_node_destructorINS6_ISD_EEEEEcvNS_4__rvISH_EEEv
FN:2539,_ZNSt3__110unique_ptrINS_11__tree_nodeINS_12basic_stringIcNS_11char_traitsIcEENS_9allocatorIcEEEEPvEENS_22__tree_node_destructorINS5_IS9_EEEEEC2ENS_4__rvISD_EE
FN:2539,_ZNSt3__110unique_ptrINS_11__tree_nodeINS_12__value_typeINS_12basic_stringIcNS_11char_traitsIcEENS_9allocatorIcEEEEPN5Catch14IGeneratorInfoEEEPvEENS_22__tree_node_destructorINS6_ISE_EEEEEC2ENS_4__rvISI_EE
FN:2539,_ZNSt3__110unique_ptrINS_11__tree_nodeINS_12__value_typeINS_12basic_stringIcNS_11char_traitsIcEENS_9allocatorIcEEEEPN5Catch14IGeneratorInfoEEEPvEENS_22__tree_node_destructorINS6_ISE_EEEEEC1ENS_4__rvISI_EE
FN:2539,_ZNSt3__110unique_ptrINS_11__tree_nodeINS_12__value_typeINS_12basic_stringIcNS_11char_traitsIcEENS_9allocatorIcEEEEN5Catch7TagInfoEEEPvEENS_22__tree_node_destructorINS6_ISD_EEEEEC2ENS_4__rvISH_EE
FN:2539,_ZNSt3__110unique_ptrINS_11__tree_nodeINS_12__value_typeINS_12basic_stringIcNS_11char_traitsIcEENS_9allocatorIcEEEEN5Catch3PtrINS9_16IReporterFactoryEEEEEPvEENS_22__tree_node_destructorINS6_ISF_EEEEEC1ENS_4__rvISJ_EE
FN:2539,_ZNSt3__110unique_ptrINS_11__tree_nodeINS_12__value_typeINS_12basic_stringIcNS_11char_traitsIcEENS_9allocatorIcEEEEN5Catch8TagAliasEEEPvEENS_22__tree_node_destructorINS6_ISD_EEEEEC2ENS_4__rvISH_EE
FN:2539,_ZNSt3__110unique_ptrINS_11__tree_nodeINS_12basic_stringIcNS_11char_traitsIcEENS_9allocatorIcEEEEPvEENS_22__tree_node_destructorINS5_IS9_EEEEEC1ENS_4__rvISD_EE
FN:2539,_ZNSt3__110unique_ptrINS_11__tree_nodeINS_12__value_typeINS_12basic_stringIcNS_11char_traitsIcEENS_9allocatorIcEEEEN5Catch7TagInfoEEEPvEENS_22__tree_node_destructorINS6_ISD_EEEEEC1ENS_4__rvISH_EE
FN:2539,_ZNSt3__110unique_ptrINS_11__tree_nodeIN5Catch8TestCaseEPvEENS_22__tree_node_destructorINS_9allocatorIS5_EEEEEC1ENS_4__rvISA_EE
FN:2539,_ZNSt3__110unique_ptrINS_11__tree_nodeINS_12__value_typeINS_12basic_stringIcNS_11char_traitsIcEENS_9allocatorIcEEEEPN5Catch18IGeneratorsForTestEEEPvEENS_22__tree_node_destructorINS6_ISE_EEEEEC1ENS_4__rvISI_EE
FN:2539,_ZNSt3__110unique_ptrINS_11__tree_nodeIN5Catch8TestCaseEPvEENS_22__tree_node_destructorINS_9allocatorIS5_EEEEEC2ENS_4__rvISA_EE
FN:2539,_ZNSt3__110unique_ptrINS_11__tree_nodeINS_12__value_typeINS_12basic_stringIcNS_11char_traitsIcEENS_9allocatorIcEEEEPN5Catch18IGeneratorsForTestEEEPvEENS_22__tree_node_destructorINS6_ISE_EEEEEC2ENS_4__rvISI_EE
FN:2539,_ZNSt3__110unique_ptrINS_11__tree_nodeINS_12__value_typeINS_12basic_stringIcNS_11char_traitsIcEENS_9allocatorIcEEEEN5Catch3PtrINS9_16IReporterFactoryEEEEEPvEENS_22__tree_node_destructorINS6_ISF_EEEEEC2ENS_4__rvISJ_EE
FN:2539,_ZNSt3__110unique_ptrINS_11__tree_nodeINS_12__value_typeINS_12basic_stringIcNS_11char_traitsIcEENS_9allocatorIcEEEEN5Catch8TagAliasEEEPvEENS_22__tree_node_destructorINS6_ISD_EEEEEC1ENS_4__rvISH_EE
FN:2557,_ZNSt3__110unique_ptrINS_11__tree_nodeINS_12__value_typeINS_12basic_stringIcNS_11char_traitsIcEENS_9allocatorIcEEEEN5Catch3PtrINS9_16IReporterFactoryEEEEEPvEENS_22__tree_node_destructorINS6_ISF_EEEEEC2EPSF_SI_
FN:2557,_ZNSt3__110unique_ptrINS_11__tree_nodeIN5Catch8TestCaseEPvEENS_22__tree_node_destructorINS_9allocatorIS5_EEEEEC2EPS5_S9_
FN:2557,_ZNSt3__110unique_ptrINS_11__tree_nodeINS_12basic_stringIcNS_11char_traitsIcEENS_9allocatorIcEEEEPvEENS_22__tree_node_destructorINS5_IS9_EEEEEC1EPS9_SC_
FN:2557,_ZNSt3__110unique_ptrINS_11__tree_nodeIN5Catch8TestCaseEPvEENS_22__tree_node_destructorINS_9allocatorIS5_EEEEEC1EPS5_S9_
FN:2557,_ZNSt3__110unique_ptrINS_11__tree_nodeINS_12__value_typeINS_12basic_stringIcNS_11char_traitsIcEENS_9allocatorIcEEEEPN5Catch18IGeneratorsForTestEEEPvEENS_22__tree_node_destructorINS6_ISE_EEEEEC1EPSE_SH_
FN:2557,_ZNSt3__110unique_ptrINS_11__tree_nodeINS_12__value_typeINS_12basic_stringIcNS_11char_traitsIcEENS_9allocatorIcEEEEN5Catch8TagAliasEEEPvEENS_22__tree_node_destructorINS6_ISD_EEEEEC1EPSD_SG_
FN:2557,_ZNSt3__110unique_ptrINS_11__tree_nodeINS_12__value_typeINS_12basic_stringIcNS_11char_traitsIcEENS_9allocatorIcEEEEN5Catch7TagInfoEEEPvEENS_22__tree_node_destructorINS6_ISD_EEEEEC1EPSD_SG_
FN:2557,_ZNSt3__110unique_ptrINS_11__tree_nodeINS_12__value_typeINS_12basic_stringIcNS_11char_traitsIcEENS_9allocatorIcEEEEN5Catch8TagAliasEEEPvEENS_22__tree_node_destructorINS6_ISD_EEEEEC2EPSD_SG_
FN:2557,_ZNSt3__110unique_ptrINS_11__tree_nodeINS_12__value_typeINS_12basic_stringIcNS_11char_traitsIcEENS_9allocatorIcEEEEPN5Catch14IGeneratorInfoEEEPvEENS_22__tree_node_destructorINS6_ISE_EEEEEC2EPSE_SH_
FN:2557,_ZNSt3__110unique_ptrI7__sFILEPFiPS1_EEC1ES2_S4_
FN:2557,_ZNSt3__110unique_ptrINS_11__tree_nodeINS_12basic_stringIcNS_11char_traitsIcEENS_9allocatorIcEEEEPvEENS_22__tree_node_destructorINS5_IS9_EEEEEC2EPS9_SC_
FN:2557,_ZNSt3__110unique_ptrINS_11__tree_nodeINS_12__value_typeINS_12basic_stringIcNS_11char_traitsIcEENS_9allocatorIcEEEEN5Catch7TagInfoEEEPvEENS_22__tree_node_destructorINS6_ISD_EEEEEC2EPSD_SG_
FN:2557,_ZNSt3__110unique_ptrINS_11__tree_nodeINS_12__value_typeINS_12basic_stringIcNS_11char_traitsIcEENS_9allocatorIcEEEEPN5Catch14IGeneratorInfoEEEPvEENS_22__tree_node_destructorINS6_ISE_EEEEEC1EPSE_SH_
FN:2557,_ZNSt3__110unique_ptrINS_11__tree_nodeINS_12__value_typeINS_12basic_stringIcNS_11char_traitsIcEENS_9allocatorIcEEEEPN5Catch18IGeneratorsForTestEEEPvEENS_22__tree_node_destructorINS6_ISE_EEEEEC2EPSE_SH_
FN:2557,_ZNSt3__110unique_ptrI7__sFILEPFiPS1_EEC2ES2_S4_
FN:2557,_ZNSt3__110unique_ptrINS_11__tree_nodeINS_12__value_typeINS_12basic_stringIcNS_11char_traitsIcEENS_9allocatorIcEEEEN5Catch3PtrINS9_16IReporterFactoryEEEEEPvEENS_22__tree_node_destructorINS6_ISF_EEEEEC1EPSF_SI_
FN:2571,_ZNSt3__110unique_ptrINS_11__tree_nodeINS_12basic_stringIcNS_11char_traitsIcEENS_9allocatorIcEEEEPvEENS_22__tree_node_destructorINS5_IS9_EEEEED2Ev
FN:2571,_ZNSt3__110unique_ptrI7__sFILEPFiPS1_EED1Ev
FN:2571,_ZNSt3__110unique_ptrINS_11__tree_nodeINS_12__value_typeINS_12basic_stringIcNS_11char_traitsIcEENS_9allocatorIcEEEEN5Catch8TagAliasEEEPvEENS_22__tree_node_destructorINS6_ISD_EEEEED1Ev
FN:2571,_ZNSt3__110unique_ptrI7__sFILEPFiPS1_EED2Ev
FN:2571,_ZNSt3__110unique_ptrINS_11__tree_nodeIN5Catch8TestCaseEPvEENS_22__tree_node_destructorINS_9allocatorIS5_EEEEED2Ev
FN:2571,_ZNSt3__110unique_ptrINS_11__tree_nodeINS_12__value_typeINS_12basic_stringIcNS_11char_traitsIcEENS_9allocatorIcEEEEN5Catch7TagInfoEEEPvEENS_22__tree_node_destructorINS6_ISD_EEEEED2Ev
FN:2571,_ZNSt3__110unique_ptrINS_11__tree_nodeINS_12__value_typeINS_12basic_stringIcNS_11char_traitsIcEENS_9allocatorIcEEEEN5Catch3PtrINS9_16IReporterFactoryEEEEEPvEENS_22__tree_node_destructorINS6_ISF_EEEEED2Ev
FN:2571,_ZNSt3__110unique_ptrINS_11__tree_nodeINS_12__value_typeINS_12basic_stringIcNS_11char_traitsIcEENS_9allocatorIcEEEEN5Catch8TagAliasEEEPvEENS_22__tree_node_destructorINS6_ISD_EEEEED2Ev
FN:2571,_ZNSt3__110unique_ptrINS_11__tree_nodeINS_12__value_typeINS_12basic_stringIcNS_11char_traitsIcEENS_9allocatorIcEEEEPN5Catch18IGeneratorsForTestEEEPvEENS_22__tree_node_destructorINS6_ISE_EEEEED1Ev
FN:2571,_ZNSt3__110unique_ptrINS_11__tree_nodeINS_12__value_typeINS_12basic_stringIcNS_11char_traitsIcEENS_9allocatorIcEEEEN5Catch7TagInfoEEEPvEENS_22__tree_node_destructorINS6_ISD_EEEEED1Ev
FN:2571,_ZNSt3__110unique_ptrINS_11__tree_nodeINS_12__value_typeINS_12basic_stringIcNS_11char_traitsIcEENS_9allocatorIcEEEEN5Catch3PtrINS9_16IReporterFactoryEEEEEPvEENS_22__tree_node_destructorINS6_ISF_EEEEED1Ev
FN:2571,_ZNSt3__110unique_ptrINS_11__tree_nodeINS_12basic_stringIcNS_11char_traitsIcEENS_9allocatorIcEEEEPvEENS_22__tree_node_destructorINS5_IS9_EEEEED1Ev
FN:2571,_ZNSt3__110unique_ptrINS_11__tree_nodeINS_12__value_typeINS_12basic_stringIcNS_11char_traitsIcEENS_9allocatorIcEEEEPN5Catch18IGeneratorsForTestEEEPvEENS_22__tree_node_destructorINS6_ISE_EEEEED2Ev
FN:2571,_ZNSt3__110unique_ptrINS_11__tree_nodeINS_12__value_typeINS_12basic_stringIcNS_11char_traitsIcEENS_9allocatorIcEEEEPN5Catch14IGeneratorInfoEEEPvEENS_22__tree_node_destructorINS6_ISE_EEEEED1Ev
FN:2571,_ZNSt3__110unique_ptrINS_11__tree_nodeIN5Catch8TestCaseEPvEENS_22__tree_node_destructorINS_9allocatorIS5_EEEEED1Ev
FN:2571,_ZNSt3__110unique_ptrINS_11__tree_nodeINS_12__value_typeINS_12basic_stringIcNS_11char_traitsIcEENS_9allocatorIcEEEEPN5Catch14IGeneratorInfoEEEPvEENS_22__tree_node_destructorINS6_ISE_EEEEED2Ev
FN:2581,_ZNKSt3__110unique_ptrINS_11__tree_nodeINS_12__value_typeINS_12basic_stringIcNS_11char_traitsIcEENS_9allocatorIcEEEEN5Catch7TagInfoEEEPvEENS_22__tree_node_destructorINS6_ISD_EEEEEptEv
FN:2581,_ZNKSt3__110unique_ptrINS_11__tree_nodeINS_12basic_stringIcNS_11char_traitsIcEENS_9allocatorIcEEEEPvEENS_22__tree_node_destructorINS5_IS9_EEEEEptEv
FN:2581,_ZNKSt3__110unique_ptrINS_11__tree_nodeINS_12__value_typeINS_12basic_stringIcNS_11char_traitsIcEENS_9allocatorIcEEEEPN5Catch18IGeneratorsForTestEEEPvEENS_22__tree_node_destructorINS6_ISE_EEEEEptEv
FN:2581,_ZNKSt3__110unique_ptrINS_11__tree_nodeIN5Catch8TestCaseEPvEENS_22__tree_node_destructorINS_9allocatorIS5_EEEEEptEv
FN:2581,_ZNKSt3__110unique_ptrINS_11__tree_nodeINS_12__value_typeINS_12basic_stringIcNS_11char_traitsIcEENS_9allocatorIcEEEEPN5Catch14IGeneratorInfoEEEPvEENS_22__tree_node_destructorINS6_ISE_EEEEEptEv
FN:2581,_ZNKSt3__110unique_ptrINS_11__tree_nodeINS_12__value_typeINS_12basic_stringIcNS_11char_traitsIcEENS_9allocatorIcEEEEN5Catch3PtrINS9_16IReporterFactoryEEEEEPvEENS_22__tree_node_destructorINS6_ISF_EEEEEptEv
FN:2581,_ZNKSt3__110unique_ptrINS_11__tree_nodeINS_12__value_typeINS_12basic_stringIcNS_11char_traitsIcEENS_9allocatorIcEEEEN5Catch8TagAliasEEEPvEENS_22__tree_node_destructorINS6_ISD_EEEEEptEv
FN:2582,_ZNKSt3__110unique_ptrINS_11__tree_nodeINS_12__value_typeINS_12basic_stringIcNS_11char_traitsIcEENS_9allocatorIcEEEEN5Catch7TagInfoEEEPvEENS_22__tree_node_destructorINS6_ISD_EEEEE3getEv
FN:2582,_ZNKSt3__110unique_ptrINS_11__tree_nodeINS_12basic_stringIcNS_11char_traitsIcEENS_9allocatorIcEEEEPvEENS_22__tree_node_destructorINS5_IS9_EEEEE3getEv
FN:2582,_ZNKSt3__110unique_ptrINS_11__tree_nodeINS_12__value_typeINS_12basic_stringIcNS_11char_traitsIcEENS_9allocatorIcEEEEN5Catch8TagAliasEEEPvEENS_22__tree_node_destructorINS6_ISD_EEEEE3getEv
FN:2582,_ZNKSt3__110unique_ptrINS_11__tree_nodeIN5Catch8TestCaseEPvEENS_22__tree_node_destructorINS_9allocatorIS5_EEEEE3getEv
FN:2582,_ZNKSt3__110unique_ptrINS_11__tree_nodeINS_12__value_typeINS_12basic_stringIcNS_11char_traitsIcEENS_9allocatorIcEEEEPN5Catch18IGeneratorsForTestEEEPvEENS_22__tree_node_destructorINS6_ISE_EEEEE3getEv
FN:2582,_ZNKSt3__110unique_ptrINS_11__tree_nodeINS_12__value_typeINS_12basic_stringIcNS_11char_traitsIcEENS_9allocatorIcEEEEPN5Catch14IGeneratorInfoEEEPvEENS_22__tree_node_destructorINS6_ISE_EEEEE3getEv
FN:2582,_ZNKSt3__110unique_ptrINS_11__tree_nodeINS_12__value_typeINS_12basic_stringIcNS_11char_traitsIcEENS_9allocatorIcEEEEN5Catch3PtrINS9_16IReporterFactoryEEEEEPvEENS_22__tree_node_destructorINS6_ISF_EEEEE3getEv
FN:2583,_ZNSt3__110unique_ptrINS_11__tree_nodeINS_12__value_typeINS_12basic_stringIcNS_11char_traitsIcEENS_9allocatorIcEEEEN5Catch3PtrINS9_16IReporterFactoryEEEEEPvEENS_22__tree_node_destructorINS6_ISF_EEEEE11get_deleterEv
FN:2583,_ZNSt3__110unique_ptrINS_11__tree_nodeINS_12__value_typeINS_12basic_stringIcNS_11char_traitsIcEENS_9allocatorIcEEEEPN5Catch14IGeneratorInfoEEEPvEENS_22__tree_node_destructorINS6_ISE_EEEEE11get_deleterEv
FN:2583,_ZNSt3__110unique_ptrINS_11__tree_nodeINS_12__value_typeINS_12basic_stringIcNS_11char_traitsIcEENS_9allocatorIcEEEEN5Catch8TagAliasEEEPvEENS_22__tree_node_destructorINS6_ISD_EEEEE11get_deleterEv
FN:2583,_ZNSt3__110unique_ptrINS_11__tree_nodeINS_12basic_stringIcNS_11char_traitsIcEENS_9allocatorIcEEEEPvEENS_22__tree_node_destructorINS5_IS9_EEEEE11get_deleterEv
FN:2583,_ZNSt3__110unique_ptrINS_11__tree_nodeIN5Catch8TestCaseEPvEENS_22__tree_node_destructorINS_9allocatorIS5_EEEEE11get_deleterEv
FN:2583,_ZNSt3__110unique_ptrINS_11__tree_nodeINS_12__value_typeINS_12basic_stringIcNS_11char_traitsIcEENS_9allocatorIcEEEEPN5Catch18IGeneratorsForTestEEEPvEENS_22__tree_node_destructorINS6_ISE_EEEEE11get_deleterEv
FN:2583,_ZNSt3__110unique_ptrINS_11__tree_nodeINS_12__value_typeINS_12basic_stringIcNS_11char_traitsIcEENS_9allocatorIcEEEEN5Catch7TagInfoEEEPvEENS_22__tree_node_destructorINS6_ISD_EEEEE11get_deleterEv
FN:2591,_ZNSt3__110unique_ptrINS_11__tree_nodeINS_12__value_typeINS_12basic_stringIcNS_11char_traitsIcEENS_9allocatorIcEEEEN5Catch3PtrINS9_16IReporterFactoryEEEEEPvEENS_22__tree_node_destructorINS6_ISF_EEEEE7releaseEv
FN:2591,_ZNSt3__110unique_ptrINS_11__tree_nodeINS_12__value_typeINS_12basic_stringIcNS_11char_traitsIcEENS_9allocatorIcEEEEPN5Catch18IGeneratorsForTestEEEPvEENS_22__tree_node_destructorINS6_ISE_EEEEE7releaseEv
FN:2591,_ZNSt3__110unique_ptrINS_11__tree_nodeINS_12__value_typeINS_12basic_stringIcNS_11char_traitsIcEENS_9allocatorIcEEEEPN5Catch14IGeneratorInfoEEEPvEENS_22__tree_node_destructorINS6_ISE_EEEEE7releaseEv
FN:2591,_ZNSt3__110unique_ptrI7__sFILEPFiPS1_EE7releaseEv
FN:2591,_ZNSt3__110unique_ptrINS_11__tree_nodeINS_12__value_typeINS_12basic_stringIcNS_11char_traitsIcEENS_9allocatorIcEEEEN5Catch8TagAliasEEEPvEENS_22__tree_node_destructorINS6_ISD_EEEEE7releaseEv
FN:2591,_ZNSt3__110unique_ptrINS_11__tree_nodeINS_12__value_typeINS_12basic_stringIcNS_11char_traitsIcEENS_9allocatorIcEEEEN5Catch7TagInfoEEEPvEENS_22__tree_node_destructorINS6_ISD_EEEEE7releaseEv
FN:2591,_ZNSt3__110unique_ptrINS_11__tree_nodeIN5Catch8TestCaseEPvEENS_22__tree_node_destructorINS_9allocatorIS5_EEEEE7releaseEv
FN:2591,_ZNSt3__110unique_ptrINS_11__tree_nodeINS_12basic_stringIcNS_11char_traitsIcEENS_9allocatorIcEEEEPvEENS_22__tree_node_destructorINS5_IS9_EEEEE7releaseEv
FN:2598,_ZNSt3__110unique_ptrINS_11__tree_nodeINS_12__value_typeINS_12basic_stringIcNS_11char_traitsIcEENS_9allocatorIcEEEEPN5Catch14IGeneratorInfoEEEPvEENS_22__tree_node_destructorINS6_ISE_EEEEE5resetEPSE_
FN:2598,_ZNSt3__110unique_ptrI7__sFILEPFiPS1_EE5resetES2_
FN:2598,_ZNSt3__110unique_ptrINS_11__tree_nodeINS_12basic_stringIcNS_11char_traitsIcEENS_9allocatorIcEEEEPvEENS_22__tree_node_destructorINS5_IS9_EEEEE5resetEPS9_
FN:2598,_ZNSt3__110unique_ptrINS_11__tree_nodeINS_12__value_typeINS_12basic_stringIcNS_11char_traitsIcEENS_9allocatorIcEEEEN5Catch7TagInfoEEEPvEENS_22__tree_node_destructorINS6_ISD_EEEEE5resetEPSD_
FN:2598,_ZNSt3__110unique_ptrINS_11__tree_nodeINS_12__value_typeINS_12basic_stringIcNS_11char_traitsIcEENS_9allocatorIcEEEEN5Catch8TagAliasEEEPvEENS_22__tree_node_destructorINS6_ISD_EEEEE5resetEPSD_
FN:2598,_ZNSt3__110unique_ptrINS_11__tree_nodeINS_12__value_typeINS_12basic_stringIcNS_11char_traitsIcEENS_9allocatorIcEEEEPN5Catch18IGeneratorsForTestEEEPvEENS_22__tree_node_destructorINS6_ISE_EEEEE5resetEPSE_
FN:2598,_ZNSt3__110unique_ptrINS_11__tree_nodeINS_12__value_typeINS_12basic_stringIcNS_11char_traitsIcEENS_9allocatorIcEEEEN5Catch3PtrINS9_16IReporterFactoryEEEEEPvEENS_22__tree_node_destructorINS6_ISF_EEEEE5resetEPSF_
FN:2598,_ZNSt3__110unique_ptrINS_11__tree_nodeIN5Catch8TestCaseEPvEENS_22__tree_node_destructorINS_9allocatorIS5_EEEEE5resetEPS5_
FN:2974,_ZNSt3__14moveINS_11__tree_nodeINS_12__value_typeINS_12basic_stringIcNS_11char_traitsIcEENS_9allocatorIcEEEEPN5Catch18IGeneratorsForTestEEEPvEENS_22__tree_node_destructorINS6_ISE_EEEEEENS_10unique_ptrIT_T0_EERSL_
FN:2974,_ZNSt3__14moveINS_11__tree_nodeINS_12__value_typeINS_12basic_stringIcNS_11char_traitsIcEENS_9allocatorIcEEEEPN5Catch14IGeneratorInfoEEEPvEENS_22__tree_node_destructorINS6_ISE_EEEEEENS_10unique_ptrIT_T0_EERSL_
FN:2974,_ZNSt3__14moveINS_11__tree_nodeIN5Catch8TestCaseEPvEENS_22__tree_node_destructorINS_9allocatorIS5_EEEEEENS_10unique_ptrIT_T0_EERSD_
FN:2974,_ZNSt3__14moveINS_11__tree_nodeINS_12__value_typeINS_12basic_stringIcNS_11char_traitsIcEENS_9allocatorIcEEEEN5Catch3PtrINS9_16IReporterFactoryEEEEEPvEENS_22__tree_node_destructorINS6_ISF_EEEEEENS_10unique_ptrIT_T0_EERSM_
FN:2974,_ZNSt3__14moveINS_11__tree_nodeINS_12__value_typeINS_12basic_stringIcNS_11char_traitsIcEENS_9allocatorIcEEEEN5Catch7TagInfoEEEPvEENS_22__tree_node_destructorINS6_ISD_EEEEEENS_10unique_ptrIT_T0_EERSK_
FN:2974,_ZNSt3__14moveINS_11__tree_nodeINS_12__value_typeINS_12basic_stringIcNS_11char_traitsIcEENS_9allocatorIcEEEEN5Catch8TagAliasEEEPvEENS_22__tree_node_destructorINS6_ISD_EEEEEENS_10unique_ptrIT_T0_EERSK_
FN:2974,_ZNSt3__14moveINS_11__tree_nodeINS_12basic_stringIcNS_11char_traitsIcEENS_9allocatorIcEEEEPvEENS_22__tree_node_destructorINS5_IS9_EEEEEENS_10unique_ptrIT_T0_EERSG_
FN:5695,_ZNSt3__116__swap_allocatorINS_9allocatorINS_11__tree_nodeINS_12basic_stringIcNS_11char_traitsIcEENS1_IcEEEEPvEEEEEEvRT_SC_
FN:5695,_ZNSt3__116__swap_allocatorINS_9allocatorIcEEEEvRT_S4_
FN:5721,_ZNSt3__116__swap_allocatorINS_9allocatorIcEEEEvRT_S4_NS_17integral_constantIbLb0EEE
FN:5721,_ZNSt3__116__swap_allocatorINS_9allocatorIN5Catch3PtrINS2_22CumulativeReporterBase4NodeINS2_14TestGroupStatsENS5_INS2_13TestCaseStatsENS4_11SectionNodeEEEEEEEEEEEvRT_SE_NS_17integral_constantIbLb0EEE
FN:5721,_ZNSt3__116__swap_allocatorINS_9allocatorIN5Catch3PtrINS2_22CumulativeReporterBase4NodeINS2_13TestCaseStatsENS4_11SectionNodeEEEEEEEEEvRT_SC_NS_17integral_constantIbLb0EEE
FN:5721,_ZNSt3__116__swap_allocatorINS_9allocatorINS_11__tree_nodeINS_12basic_stringIcNS_11char_traitsIcEENS1_IcEEEEPvEEEEEEvRT_SC_NS_17integral_constantIbLb0EEE
FNDA:605,_ZNSt3__114pointer_traitsIPKcE10pointer_toERS1_
FNDA:118,_ZNSt3__114pointer_traitsIPNS_15__tree_end_nodeIPNS_16__tree_node_baseIPvEEEEE10pointer_toERS6_
FNDA:1,_ZNSt3__114pointer_traitsIPKNS_4pairIKNS_12basic_stringIcNS_11char_traitsIcEENS_9allocatorIcEEEEN5Catch3PtrINS9_16IReporterFactoryEEEEEE10pointer_toERSE_
FNDA:1,_ZNSt3__114pointer_traitsIPKNS_12__value_typeINS_12basic_stringIcNS_11char_traitsIcEENS_9allocatorIcEEEEN5Catch3PtrINS8_16IReporterFactoryEEEEEE10pointer_toERSD_
FNDA:0,_ZNSt3__114pointer_traitsIPKNS_4pairIKNS_12basic_stringIcNS_11char_traitsIcEENS_9allocatorIcEEEEPN5Catch18IGeneratorsForTestEEEE10pointer_toERSD_
FNDA:0,_ZNSt3__114pointer_traitsIPKNS_12__value_typeINS_12basic_stringIcNS_11char_traitsIcEENS_9allocatorIcEEEEPN5Catch18IGeneratorsForTestEEEE10pointer_toERSC_
FNDA:0,_ZNSt3__114pointer_traitsIPKNS_4pairIKNS_12basic_stringIcNS_11char_traitsIcEENS_9allocatorIcEEEEPN5Catch14IGeneratorInfoEEEE10pointer_toERSD_
FNDA:0,_ZNSt3__114pointer_traitsIPKNS_12__value_typeINS_12basic_stringIcNS_11char_traitsIcEENS_9allocatorIcEEEEPN5Catch14IGeneratorInfoEEEE10pointer_toERSC_
FNDA:0,_ZNSt3__114pointer_traitsIPKNS_4pairIKiN5Catch5Clara11CommandLineINS3_10ConfigDataEE3ArgEEEE10pointer_toERSA_
FNDA:0,_ZNSt3__114pointer_traitsIPKNS_12__value_typeIiN5Catch5Clara11CommandLineINS2_10ConfigDataEE3ArgEEEE10pointer_toERS9_
FNDA:117,_ZNSt3__114pointer_traitsIPcE10pointer_toERc
FNDA:0,_ZNSt3__114pointer_traitsIPNS_4pairIKNS_12basic_stringIcNS_11char_traitsIcEENS_9allocatorIcEEEEN5Catch7TagInfoEEEE10pointer_toERSB_
FNDA:0,_ZNSt3__114pointer_traitsIPNS_12__value_typeINS_12basic_stringIcNS_11char_traitsIcEENS_9allocatorIcEEEEN5Catch7TagInfoEEEE10pointer_toERSA_
FNDA:0,_ZNSt3__114pointer_traitsIPKNS_4pairIKNS_12basic_stringIcNS_11char_traitsIcEENS_9allocatorIcEEEEN5Catch7TagInfoEEEE10pointer_toERSC_
FNDA:0,_ZNSt3__114pointer_traitsIPKNS_12__value_typeINS_12basic_stringIcNS_11char_traitsIcEENS_9allocatorIcEEEEN5Catch7TagInfoEEEE10pointer_toERSB_
FNDA:0,_ZNSt3__114pointer_traitsIPKN5Catch8TestCaseEE10pointer_toERS3_
FNDA:0,_ZNSt3__114pointer_traitsIPKwE10pointer_toERS1_
FNDA:0,_ZNSt3__114pointer_traitsIPKNS_4pairIKNS_12basic_stringIcNS_11char_traitsIcEENS_9allocatorIcEEEEN5Catch8TagAliasEEEE10pointer_toERSC_
FNDA:0,_ZNSt3__114pointer_traitsIPKNS_12__value_typeINS_12basic_stringIcNS_11char_traitsIcEENS_9allocatorIcEEEEN5Catch8TagAliasEEEE10pointer_toERSB_
FNDA:663,_ZNSt3__116__to_raw_pointerIKcEEPT_S3_
FNDA:634,_ZNSt3__116__to_raw_pointerINS_12basic_stringIcNS_11char_traitsIcEENS_9allocatorIcEEEEEEPT_S8_
FNDA:0,_ZNSt3__116__to_raw_pointerIN5Catch3PtrINS1_16IReporterFactoryEEEEEPT_S6_
FNDA:321,_ZNSt3__116__to_raw_pointerIPN5Catch16TestCaseTracking8ITrackerEEEPT_S6_
FNDA:72,_ZNSt3__116__to_raw_pointerIN5Catch14SectionEndInfoEEEPT_S4_
FNDA:268,_ZNSt3__116__to_raw_pointerIN5Catch11MessageInfoEEEPT_S4_
FNDA:22,_ZNSt3__116__to_raw_pointerIN5Catch8TestSpec6FilterEEEPT_S5_
FNDA:32,_ZNSt3__116__to_raw_pointerIN5Catch3PtrINS1_8TestSpec7PatternEEEEEPT_S7_
FNDA:8,_ZNSt3__116__to_raw_pointerImEEPT_S2_
FNDA:22,_ZNSt3__116__to_raw_pointerIN5Catch8TestCaseEEEPT_S4_
FNDA:0,_ZNSt3__116__to_raw_pointerIPKN5Catch20IExceptionTranslatorEEEPT_S6_
FNDA:0,_ZNSt3__116__to_raw_pointerIPN5Catch14IGeneratorInfoEEEPT_S5_
FNDA:0,_ZNSt3__116__to_raw_pointerIPKN5Catch8Matchers4Impl11MatcherBaseINS_12basic_stringIcNS_11char_traitsIcEENS_9allocatorIcEEEESA_EEEEPT_SF_
FNDA:0,_ZNSt3__116__to_raw_pointerIN5Catch3PtrINS1_18IStreamingReporterEEEEEPT_S6_
FNDA:0,_ZNSt3__116__to_raw_pointerIN5Catch14AssertionStatsEEEPT_S4_
FNDA:0,_ZNSt3__116__to_raw_pointerIN5Catch3PtrINS1_22CumulativeReporterBase11SectionNodeEEEEEPT_S7_
FNDA:0,_ZNSt3__116__to_raw_pointerIN5Catch3PtrINS1_22CumulativeReporterBase4NodeINS1_12TestRunStatsENS4_INS1_14TestGroupStatsENS4_INS1_13TestCaseStatsENS3_11SectionNodeEEEEEEEEEEEPT_SE_
FNDA:0,_ZNSt3__116__to_raw_pointerIN5Catch3PtrINS1_22CumulativeReporterBase4NodeINS1_14TestGroupStatsENS4_INS1_13TestCaseStatsENS3_11SectionNodeEEEEEEEEEPT_SC_
FNDA:0,_ZNSt3__116__to_raw_pointerIN5Catch3PtrINS1_22CumulativeReporterBase4NodeINS1_13TestCaseStatsENS3_11SectionNodeEEEEEEEPT_SA_
FNDA:0,_ZNSt3__116__to_raw_pointerINS_6vectorIN5Catch3PtrINS2_22CumulativeReporterBase11SectionNodeEEENS_9allocatorIS6_EEEEEEPT_SB_
FNDA:432,_ZNSt3__116__to_raw_pointerIN5Catch11SectionInfoEEEPT_S4_
FNDA:256,_ZNSt3__116__to_raw_pointerIN5Catch3PtrINS1_16TestCaseTracking8ITrackerEEEEEPT_S7_
FNDA:164,_ZNSt3__116__to_raw_pointerIN5Catch5Clara11CommandLineINS1_10ConfigDataEE3ArgEEEPT_S8_
FNDA:12,_ZNSt3__116__to_raw_pointerIN5Catch5Clara6Parser5TokenEEEPT_S6_
FNDA:0,_ZNSt3__116__to_raw_pointerIN5Catch15ConsoleReporter13SummaryColumnEEEPT_S5_
FNDA:0,_ZNSt3__116__to_raw_pointerIKwEEPT_S3_
FNDA:0,_ZNSt3__116allocator_traitsINS_9allocatorIN5Catch11MessageInfoEEEE8allocateERS4_m
FNDA:75,_ZNSt3__116allocator_traitsINS_9allocatorINS_12basic_stringIcNS_11char_traitsIcEENS1_IcEEEEEEE8allocateERS7_m
FNDA:3,_ZNSt3__116allocator_traitsINS_9allocatorIPN5Catch16TestCaseTracking8ITrackerEEEE8allocateERS6_m
FNDA:0,_ZNSt3__116allocator_traitsINS_9allocatorIN5Catch14SectionEndInfoEEEE8allocateERS4_m
FNDA:3,_ZNSt3__116allocator_traitsINS_9allocatorIN5Catch8TestSpec6FilterEEEE8allocateERS5_m
FNDA:4,_ZNSt3__116allocator_traitsINS_9allocatorIN5Catch3PtrINS2_8TestSpec7PatternEEEEEE8allocateERS7_m
FNDA:0,_ZNSt3__116allocator_traitsINS_9allocatorImEEE8allocateERS2_m
FNDA:0,_ZNSt3__116allocator_traitsINS_9allocatorIPKN5Catch20IExceptionTranslatorEEEE8allocateERS6_m
FNDA:4,_ZNSt3__116allocator_traitsINS_9allocatorINS_11__tree_nodeINS_12__value_typeINS_12basic_stringIcNS_11char_traitsIcEENS1_IcEEEEN5Catch3PtrINS9_16IReporterFactoryEEEEEPvEEEEE8allocateERSG_m
FNDA:0,_ZNSt3__116allocator_traitsINS_9allocatorIN5Catch3PtrINS2_16IReporterFactoryEEEEEE8allocateERS6_m
FNDA:0,_ZNSt3__116allocator_traitsINS_9allocatorINS_11__tree_nodeINS_12__value_typeINS_12basic_stringIcNS_11char_traitsIcEENS1_IcEEEEPN5Catch18IGeneratorsForTestEEEPvEEEEE8allocateERSF_m
FNDA:0,_ZNSt3__116allocator_traitsINS_9allocatorINS_11__tree_nodeINS_12__value_typeINS_12basic_stringIcNS_11char_traitsIcEENS1_IcEEEEPN5Catch14IGeneratorInfoEEEPvEEEEE8allocateERSF_m
FNDA:0,_ZNSt3__116allocator_traitsINS_9allocatorIPN5Catch14IGeneratorInfoEEEE8allocateERS5_m
FNDA:0,_ZNSt3__116allocator_traitsINS_9allocatorIN5Catch3PtrINS2_18IStreamingReporterEEEEEE8allocateERS6_m
FNDA:6,_ZNSt3__116allocator_traitsINS_9allocatorIN5Catch5Clara11CommandLineINS2_10ConfigDataEE3ArgEEEE8allocateERS8_m
FNDA:0,_ZNSt3__116allocator_traitsINS_9allocatorIN5Catch5Clara6Parser5TokenEEEE8allocateERS6_m
FNDA:0,_ZNSt3__116allocator_traitsINS_9allocatorIcEEE8allocateERS2_m
FNDA:0,_ZNSt3__116allocator_traitsINS_9allocatorINS_11__tree_nodeINS_12__value_typeINS_12basic_stringIcNS_11char_traitsIcEENS1_IcEEEEN5Catch7TagInfoEEEPvEEEEE8allocateERSE_m
FNDA:21,_ZNSt3__116allocator_traitsINS_9allocatorIN5Catch3PtrINS2_16TestCaseTracking8ITrackerEEEEEE8allocateERS7_m
FNDA:3,_ZNSt3__116allocator_traitsINS_9allocatorIN5Catch8TestCaseEEEE8allocateERS4_m
FNDA:3,_ZNSt3__116allocator_traitsINS_9allocatorIN5Catch11SectionInfoEEEE8allocateERS4_m
FNDA:0,_ZNSt3__116allocator_traitsINS_9allocatorIN5Catch3PtrINS2_22CumulativeReporterBase11SectionNodeEEEEEE8allocateERS7_m
FNDA:0,_ZNSt3__116allocator_traitsINS_9allocatorIN5Catch14AssertionStatsEEEE8allocateERS4_m
FNDA:0,_ZNSt3__116allocator_traitsINS_9allocatorIN5Catch3PtrINS2_22CumulativeReporterBase4NodeINS2_13TestCaseStatsENS4_11SectionNodeEEEEEEEE8allocateERSA_m
FNDA:0,_ZNSt3__116allocator_traitsINS_9allocatorIN5Catch3PtrINS2_22CumulativeReporterBase4NodeINS2_14TestGroupStatsENS5_INS2_13TestCaseStatsENS4_11SectionNodeEEEEEEEEEE8allocateERSC_m
FNDA:0,_ZNSt3__116allocator_traitsINS_9allocatorIN5Catch3PtrINS2_22CumulativeReporterBase4NodeINS2_12TestRunStatsENS5_INS2_14TestGroupStatsENS5_INS2_13TestCaseStatsENS4_11SectionNodeEEEEEEEEEEEE8allocateERSE_m
FNDA:0,_ZNSt3__116allocator_traitsINS_9allocatorIN5Catch15ConsoleReporter13SummaryColumnEEEE8allocateERS5_m
FNDA:0,_ZNSt3__116allocator_traitsINS_9allocatorINS_11__tree_nodeINS_12basic_stringIcNS_11char_traitsIcEENS1_IcEEEEPvEEEEE8allocateERSA_m
FNDA:1,_ZNSt3__116allocator_traitsINS_9allocatorINS_11__tree_nodeIN5Catch8TestCaseEPvEEEEE8allocateERS7_m
FNDA:0,_ZNSt3__116allocator_traitsINS_9allocatorINS_11__tree_nodeINS_12__value_typeINS_12basic_stringIcNS_11char_traitsIcEENS1_IcEEEEN5Catch8TagAliasEEEPvEEEEE8allocateERSE_m
FNDA:59,_ZNSt3__116allocator_traitsINS_9allocatorINS_12basic_stringIcNS_11char_traitsIcEENS1_IcEEEEEEE10deallocateERS7_PS6_m
FNDA:0,_ZNSt3__116allocator_traitsINS_9allocatorIN5Catch3PtrINS2_16IReporterFactoryEEEEEE10deallocateERS6_PS5_m
